
main.elf：     文件格式 elf64-littleriscv


Disassembly of section .text:

0000000080000000 <_start-0x1c>:
    80000000:	00004033          	nop
    80000004:	00004033          	nop
    80000008:	00004033          	nop
    8000000c:	00004033          	nop
    80000010:	00004033          	nop
    80000014:	00004033          	nop
    80000018:	00004033          	nop

000000008000001c <_start>:
    8000001c:	00016197          	auipc	gp,0x16
    80000020:	85418193          	addi	gp,gp,-1964 # 80015870 <enormlz+0x6c>
    80000024:	85818513          	addi	a0,gp,-1960 # 80015178 <_edata>
    80000028:	00018617          	auipc	a2,0x18
    8000002c:	98860613          	addi	a2,a2,-1656 # 800179b0 <e113toe.isra.0+0xc30>
    80000030:	40a60633          	sub	a2,a2,a0
    80000034:	00000593          	li	a1,0
    80000038:	28c010ef          	jal	ra,800012c4 <memset>
    8000003c:	0000e517          	auipc	a0,0xe
    80000040:	65850513          	addi	a0,a0,1624 # 8000e694 <atexit>
    80000044:	00050863          	beqz	a0,80000054 <_start+0x38>
    80000048:	00005517          	auipc	a0,0x5
    8000004c:	9e050513          	addi	a0,a0,-1568 # 80004a28 <__libc_fini_array>
    80000050:	6440e0ef          	jal	ra,8000e694 <atexit>
    80000054:	0b8010ef          	jal	ra,8000110c <__libc_init_array>
    80000058:	00012503          	lw	a0,0(sp)
    8000005c:	00810593          	addi	a1,sp,8
    80000060:	00000613          	li	a2,0
    80000064:	56c000ef          	jal	ra,800005d0 <main>
    80000068:	0740106f          	j	800010dc <exit>
    8000006c:	8d81c703          	lbu	a4,-1832(gp) # 800151f8 <errno+0x10>
    80000070:	04071463          	bnez	a4,800000b8 <_start+0x9c>
    80000074:	ff010113          	addi	sp,sp,-16
    80000078:	00813023          	sd	s0,0(sp)
    8000007c:	00078413          	mv	s0,a5
    80000080:	000007b7          	lui	a5,0x0
    80000084:	00113423          	sd	ra,8(sp)
    80000088:	00078793          	mv	a5,a5
    8000008c:	00078a63          	beqz	a5,800000a0 <_start+0x84>
    80000090:	00024537          	lui	a0,0x24
    80000094:	00050513          	mv	a0,a0
    80000098:	00000097          	auipc	ra,0x0
    8000009c:	000000e7          	jalr	zero # 0 <_start-0x8000001c>
    800000a0:	00100793          	li	a5,1
    800000a4:	00813083          	ld	ra,8(sp)
    800000a8:	8cf18c23          	sb	a5,-1832(gp) # 800151f8 <errno+0x10>
    800000ac:	00013403          	ld	s0,0(sp)
    800000b0:	01010113          	addi	sp,sp,16
    800000b4:	00008067          	ret
    800000b8:	00008067          	ret
    800000bc:	000007b7          	lui	a5,0x0
    800000c0:	00078793          	mv	a5,a5
    800000c4:	00078c63          	beqz	a5,800000dc <_start+0xc0>
    800000c8:	00024537          	lui	a0,0x24
    800000cc:	8e018593          	addi	a1,gp,-1824 # 80015200 <errno+0x18>
    800000d0:	00050513          	mv	a0,a0
    800000d4:	00000317          	auipc	t1,0x0
    800000d8:	00000067          	jr	zero # 0 <_start-0x8000001c>
    800000dc:	00008067          	ret

00000000800000e0 <Proc_6>:
    800000e0:	fe010113          	addi	sp,sp,-32
    800000e4:	00113c23          	sd	ra,24(sp)
    800000e8:	00813823          	sd	s0,16(sp)
    800000ec:	02010413          	addi	s0,sp,32
    800000f0:	00050793          	mv	a5,a0
    800000f4:	feb43023          	sd	a1,-32(s0)
    800000f8:	fef42623          	sw	a5,-20(s0)
    800000fc:	fe043783          	ld	a5,-32(s0)
    80000100:	fec42703          	lw	a4,-20(s0)
    80000104:	00e7a023          	sw	a4,0(a5) # 0 <_start-0x8000001c>
    80000108:	fec42783          	lw	a5,-20(s0)
    8000010c:	00078513          	mv	a0,a5
    80000110:	43c000ef          	jal	ra,8000054c <Func_3>
    80000114:	00050793          	mv	a5,a0
    80000118:	00079863          	bnez	a5,80000128 <Proc_6+0x48>
    8000011c:	fe043783          	ld	a5,-32(s0)
    80000120:	00300713          	li	a4,3
    80000124:	00e7a023          	sw	a4,0(a5)
    80000128:	fec42783          	lw	a5,-20(s0)
    8000012c:	0007871b          	sext.w	a4,a5
    80000130:	00400793          	li	a5,4
    80000134:	06e7ee63          	bltu	a5,a4,800001b0 <Proc_6+0xd0>
    80000138:	fec46783          	lwu	a5,-20(s0)
    8000013c:	00279713          	slli	a4,a5,0x2
    80000140:	000237b7          	lui	a5,0x23
    80000144:	86078793          	addi	a5,a5,-1952 # 22860 <_start-0x7ffdd7bc>
    80000148:	00f707b3          	add	a5,a4,a5
    8000014c:	0007a783          	lw	a5,0(a5)
    80000150:	00078067          	jr	a5
    80000154:	fe043783          	ld	a5,-32(s0)
    80000158:	0007a023          	sw	zero,0(a5)
    8000015c:	0540006f          	j	800001b0 <Proc_6+0xd0>
    80000160:	8681a783          	lw	a5,-1944(gp) # 80015188 <Int_Glob>
    80000164:	00078713          	mv	a4,a5
    80000168:	06400793          	li	a5,100
    8000016c:	00e7d863          	bge	a5,a4,8000017c <Proc_6+0x9c>
    80000170:	fe043783          	ld	a5,-32(s0)
    80000174:	0007a023          	sw	zero,0(a5)
    80000178:	0380006f          	j	800001b0 <Proc_6+0xd0>
    8000017c:	fe043783          	ld	a5,-32(s0)
    80000180:	00300713          	li	a4,3
    80000184:	00e7a023          	sw	a4,0(a5)
    80000188:	0280006f          	j	800001b0 <Proc_6+0xd0>
    8000018c:	fe043783          	ld	a5,-32(s0)
    80000190:	00100713          	li	a4,1
    80000194:	00e7a023          	sw	a4,0(a5)
    80000198:	0180006f          	j	800001b0 <Proc_6+0xd0>
    8000019c:	fe043783          	ld	a5,-32(s0)
    800001a0:	00200713          	li	a4,2
    800001a4:	00e7a023          	sw	a4,0(a5)
    800001a8:	0080006f          	j	800001b0 <Proc_6+0xd0>
    800001ac:	00000013          	nop
    800001b0:	00000013          	nop
    800001b4:	00078513          	mv	a0,a5
    800001b8:	01813083          	ld	ra,24(sp)
    800001bc:	01013403          	ld	s0,16(sp)
    800001c0:	02010113          	addi	sp,sp,32
    800001c4:	00008067          	ret

00000000800001c8 <Proc_7>:
    800001c8:	fd010113          	addi	sp,sp,-48
    800001cc:	02813423          	sd	s0,40(sp)
    800001d0:	03010413          	addi	s0,sp,48
    800001d4:	00050793          	mv	a5,a0
    800001d8:	00058713          	mv	a4,a1
    800001dc:	fcc43823          	sd	a2,-48(s0)
    800001e0:	fcf42e23          	sw	a5,-36(s0)
    800001e4:	00070793          	mv	a5,a4
    800001e8:	fcf42c23          	sw	a5,-40(s0)
    800001ec:	fdc42783          	lw	a5,-36(s0)
    800001f0:	0027879b          	addiw	a5,a5,2
    800001f4:	fef42623          	sw	a5,-20(s0)
    800001f8:	fd842703          	lw	a4,-40(s0)
    800001fc:	fec42783          	lw	a5,-20(s0)
    80000200:	00f707bb          	addw	a5,a4,a5
    80000204:	0007871b          	sext.w	a4,a5
    80000208:	fd043783          	ld	a5,-48(s0)
    8000020c:	00e7a023          	sw	a4,0(a5)
    80000210:	00000013          	nop
    80000214:	00078513          	mv	a0,a5
    80000218:	02813403          	ld	s0,40(sp)
    8000021c:	03010113          	addi	sp,sp,48
    80000220:	00008067          	ret

0000000080000224 <Proc_8>:
    80000224:	fc010113          	addi	sp,sp,-64
    80000228:	02813c23          	sd	s0,56(sp)
    8000022c:	04010413          	addi	s0,sp,64
    80000230:	fca43c23          	sd	a0,-40(s0)
    80000234:	fcb43823          	sd	a1,-48(s0)
    80000238:	00060793          	mv	a5,a2
    8000023c:	00068713          	mv	a4,a3
    80000240:	fcf42623          	sw	a5,-52(s0)
    80000244:	00070793          	mv	a5,a4
    80000248:	fcf42423          	sw	a5,-56(s0)
    8000024c:	fcc42783          	lw	a5,-52(s0)
    80000250:	0057879b          	addiw	a5,a5,5
    80000254:	fef42423          	sw	a5,-24(s0)
    80000258:	fe842783          	lw	a5,-24(s0)
    8000025c:	00279793          	slli	a5,a5,0x2
    80000260:	fd843703          	ld	a4,-40(s0)
    80000264:	00f707b3          	add	a5,a4,a5
    80000268:	fc842703          	lw	a4,-56(s0)
    8000026c:	00e7a023          	sw	a4,0(a5)
    80000270:	fe842783          	lw	a5,-24(s0)
    80000274:	00279793          	slli	a5,a5,0x2
    80000278:	fd843703          	ld	a4,-40(s0)
    8000027c:	00f70733          	add	a4,a4,a5
    80000280:	fe842783          	lw	a5,-24(s0)
    80000284:	00178793          	addi	a5,a5,1
    80000288:	00279793          	slli	a5,a5,0x2
    8000028c:	fd843683          	ld	a3,-40(s0)
    80000290:	00f687b3          	add	a5,a3,a5
    80000294:	00072703          	lw	a4,0(a4)
    80000298:	00e7a023          	sw	a4,0(a5)
    8000029c:	fe842783          	lw	a5,-24(s0)
    800002a0:	01e78793          	addi	a5,a5,30
    800002a4:	00279793          	slli	a5,a5,0x2
    800002a8:	fd843703          	ld	a4,-40(s0)
    800002ac:	00f707b3          	add	a5,a4,a5
    800002b0:	fe842703          	lw	a4,-24(s0)
    800002b4:	00e7a023          	sw	a4,0(a5)
    800002b8:	fe842783          	lw	a5,-24(s0)
    800002bc:	fef42623          	sw	a5,-20(s0)
    800002c0:	0380006f          	j	800002f8 <Proc_8+0xd4>
    800002c4:	fe842703          	lw	a4,-24(s0)
    800002c8:	0c800793          	li	a5,200
    800002cc:	02f707b3          	mul	a5,a4,a5
    800002d0:	fd043703          	ld	a4,-48(s0)
    800002d4:	00f70733          	add	a4,a4,a5
    800002d8:	fec42783          	lw	a5,-20(s0)
    800002dc:	00279793          	slli	a5,a5,0x2
    800002e0:	00f707b3          	add	a5,a4,a5
    800002e4:	fe842703          	lw	a4,-24(s0)
    800002e8:	00e7a023          	sw	a4,0(a5)
    800002ec:	fec42783          	lw	a5,-20(s0)
    800002f0:	0017879b          	addiw	a5,a5,1
    800002f4:	fef42623          	sw	a5,-20(s0)
    800002f8:	fe842783          	lw	a5,-24(s0)
    800002fc:	0017879b          	addiw	a5,a5,1
    80000300:	0007871b          	sext.w	a4,a5
    80000304:	fec42783          	lw	a5,-20(s0)
    80000308:	0007879b          	sext.w	a5,a5
    8000030c:	faf75ce3          	bge	a4,a5,800002c4 <Proc_8+0xa0>
    80000310:	fe842703          	lw	a4,-24(s0)
    80000314:	0c800793          	li	a5,200
    80000318:	02f707b3          	mul	a5,a4,a5
    8000031c:	fd043703          	ld	a4,-48(s0)
    80000320:	00f70733          	add	a4,a4,a5
    80000324:	fe842783          	lw	a5,-24(s0)
    80000328:	fff7879b          	addiw	a5,a5,-1
    8000032c:	0007879b          	sext.w	a5,a5
    80000330:	00279793          	slli	a5,a5,0x2
    80000334:	00f707b3          	add	a5,a4,a5
    80000338:	0007a703          	lw	a4,0(a5)
    8000033c:	fe842683          	lw	a3,-24(s0)
    80000340:	0c800793          	li	a5,200
    80000344:	02f687b3          	mul	a5,a3,a5
    80000348:	fd043683          	ld	a3,-48(s0)
    8000034c:	00f686b3          	add	a3,a3,a5
    80000350:	fe842783          	lw	a5,-24(s0)
    80000354:	fff7879b          	addiw	a5,a5,-1
    80000358:	0007879b          	sext.w	a5,a5
    8000035c:	0017071b          	addiw	a4,a4,1
    80000360:	0007071b          	sext.w	a4,a4
    80000364:	00279793          	slli	a5,a5,0x2
    80000368:	00f687b3          	add	a5,a3,a5
    8000036c:	00e7a023          	sw	a4,0(a5)
    80000370:	fe842783          	lw	a5,-24(s0)
    80000374:	00279793          	slli	a5,a5,0x2
    80000378:	fd843703          	ld	a4,-40(s0)
    8000037c:	00f707b3          	add	a5,a4,a5
    80000380:	fe842683          	lw	a3,-24(s0)
    80000384:	0c800713          	li	a4,200
    80000388:	02e686b3          	mul	a3,a3,a4
    8000038c:	00001737          	lui	a4,0x1
    80000390:	fa070713          	addi	a4,a4,-96 # fa0 <_start-0x7ffff07c>
    80000394:	00e68733          	add	a4,a3,a4
    80000398:	fd043683          	ld	a3,-48(s0)
    8000039c:	00e686b3          	add	a3,a3,a4
    800003a0:	0007a703          	lw	a4,0(a5)
    800003a4:	fe842783          	lw	a5,-24(s0)
    800003a8:	00279793          	slli	a5,a5,0x2
    800003ac:	00f687b3          	add	a5,a3,a5
    800003b0:	00e7a023          	sw	a4,0(a5)
    800003b4:	00500713          	li	a4,5
    800003b8:	86e1a423          	sw	a4,-1944(gp) # 80015188 <Int_Glob>
    800003bc:	00000013          	nop
    800003c0:	00078513          	mv	a0,a5
    800003c4:	03813403          	ld	s0,56(sp)
    800003c8:	04010113          	addi	sp,sp,64
    800003cc:	00008067          	ret

00000000800003d0 <Func_1>:
    800003d0:	fd010113          	addi	sp,sp,-48
    800003d4:	02813423          	sd	s0,40(sp)
    800003d8:	03010413          	addi	s0,sp,48
    800003dc:	00050793          	mv	a5,a0
    800003e0:	00058713          	mv	a4,a1
    800003e4:	fcf40e23          	sb	a5,-36(s0)
    800003e8:	00070793          	mv	a5,a4
    800003ec:	fcf40c23          	sb	a5,-40(s0)
    800003f0:	fdc44783          	lbu	a5,-36(s0)
    800003f4:	fef407a3          	sb	a5,-17(s0)
    800003f8:	fef44783          	lbu	a5,-17(s0)
    800003fc:	fef40723          	sb	a5,-18(s0)
    80000400:	fee44703          	lbu	a4,-18(s0)
    80000404:	fd844783          	lbu	a5,-40(s0)
    80000408:	0ff77713          	andi	a4,a4,255
    8000040c:	0ff7f793          	andi	a5,a5,255
    80000410:	00f70663          	beq	a4,a5,8000041c <Func_1+0x4c>
    80000414:	00000793          	li	a5,0
    80000418:	0100006f          	j	80000428 <Func_1+0x58>
    8000041c:	fef44703          	lbu	a4,-17(s0)
    80000420:	86e18823          	sb	a4,-1936(gp) # 80015190 <Ch_1_Glob>
    80000424:	00100793          	li	a5,1
    80000428:	00078513          	mv	a0,a5
    8000042c:	02813403          	ld	s0,40(sp)
    80000430:	03010113          	addi	sp,sp,48
    80000434:	00008067          	ret

0000000080000438 <Func_2>:
    80000438:	fd010113          	addi	sp,sp,-48
    8000043c:	02113423          	sd	ra,40(sp)
    80000440:	02813023          	sd	s0,32(sp)
    80000444:	03010413          	addi	s0,sp,48
    80000448:	fca43c23          	sd	a0,-40(s0)
    8000044c:	fcb43823          	sd	a1,-48(s0)
    80000450:	00200793          	li	a5,2
    80000454:	fef42623          	sw	a5,-20(s0)
    80000458:	05c0006f          	j	800004b4 <Func_2+0x7c>
    8000045c:	fec42783          	lw	a5,-20(s0)
    80000460:	fd843703          	ld	a4,-40(s0)
    80000464:	00f707b3          	add	a5,a4,a5
    80000468:	0007c783          	lbu	a5,0(a5)
    8000046c:	0007869b          	sext.w	a3,a5
    80000470:	fec42783          	lw	a5,-20(s0)
    80000474:	00178793          	addi	a5,a5,1
    80000478:	fd043703          	ld	a4,-48(s0)
    8000047c:	00f707b3          	add	a5,a4,a5
    80000480:	0007c783          	lbu	a5,0(a5)
    80000484:	0007879b          	sext.w	a5,a5
    80000488:	00078593          	mv	a1,a5
    8000048c:	00068513          	mv	a0,a3
    80000490:	f41ff0ef          	jal	ra,800003d0 <Func_1>
    80000494:	00050793          	mv	a5,a0
    80000498:	0007879b          	sext.w	a5,a5
    8000049c:	00079c63          	bnez	a5,800004b4 <Func_2+0x7c>
    800004a0:	04100793          	li	a5,65
    800004a4:	fef405a3          	sb	a5,-21(s0)
    800004a8:	fec42783          	lw	a5,-20(s0)
    800004ac:	0017879b          	addiw	a5,a5,1
    800004b0:	fef42623          	sw	a5,-20(s0)
    800004b4:	fec42783          	lw	a5,-20(s0)
    800004b8:	0007871b          	sext.w	a4,a5
    800004bc:	00200793          	li	a5,2
    800004c0:	f8e7dee3          	bge	a5,a4,8000045c <Func_2+0x24>
    800004c4:	feb44783          	lbu	a5,-21(s0)
    800004c8:	0ff7f713          	andi	a4,a5,255
    800004cc:	05600793          	li	a5,86
    800004d0:	00e7fe63          	bgeu	a5,a4,800004ec <Func_2+0xb4>
    800004d4:	feb44783          	lbu	a5,-21(s0)
    800004d8:	0ff7f713          	andi	a4,a5,255
    800004dc:	05900793          	li	a5,89
    800004e0:	00e7e663          	bltu	a5,a4,800004ec <Func_2+0xb4>
    800004e4:	00700793          	li	a5,7
    800004e8:	fef42623          	sw	a5,-20(s0)
    800004ec:	feb44783          	lbu	a5,-21(s0)
    800004f0:	0ff7f713          	andi	a4,a5,255
    800004f4:	05200793          	li	a5,82
    800004f8:	00f71663          	bne	a4,a5,80000504 <Func_2+0xcc>
    800004fc:	00100793          	li	a5,1
    80000500:	0380006f          	j	80000538 <Func_2+0x100>
    80000504:	fd043583          	ld	a1,-48(s0)
    80000508:	fd843503          	ld	a0,-40(s0)
    8000050c:	154010ef          	jal	ra,80001660 <strcmp>
    80000510:	00050793          	mv	a5,a0
    80000514:	02f05063          	blez	a5,80000534 <Func_2+0xfc>
    80000518:	fec42783          	lw	a5,-20(s0)
    8000051c:	0077879b          	addiw	a5,a5,7
    80000520:	fef42623          	sw	a5,-20(s0)
    80000524:	fec42703          	lw	a4,-20(s0)
    80000528:	86e1a423          	sw	a4,-1944(gp) # 80015188 <Int_Glob>
    8000052c:	00100793          	li	a5,1
    80000530:	0080006f          	j	80000538 <Func_2+0x100>
    80000534:	00000793          	li	a5,0
    80000538:	00078513          	mv	a0,a5
    8000053c:	02813083          	ld	ra,40(sp)
    80000540:	02013403          	ld	s0,32(sp)
    80000544:	03010113          	addi	sp,sp,48
    80000548:	00008067          	ret

000000008000054c <Func_3>:
    8000054c:	fd010113          	addi	sp,sp,-48
    80000550:	02813423          	sd	s0,40(sp)
    80000554:	03010413          	addi	s0,sp,48
    80000558:	00050793          	mv	a5,a0
    8000055c:	fcf42e23          	sw	a5,-36(s0)
    80000560:	fdc42783          	lw	a5,-36(s0)
    80000564:	fef42623          	sw	a5,-20(s0)
    80000568:	fec42783          	lw	a5,-20(s0)
    8000056c:	0007871b          	sext.w	a4,a5
    80000570:	00200793          	li	a5,2
    80000574:	00f71663          	bne	a4,a5,80000580 <Func_3+0x34>
    80000578:	00100793          	li	a5,1
    8000057c:	0080006f          	j	80000584 <Func_3+0x38>
    80000580:	00000793          	li	a5,0
    80000584:	00078513          	mv	a0,a5
    80000588:	02813403          	ld	s0,40(sp)
    8000058c:	03010113          	addi	sp,sp,48
    80000590:	00008067          	ret

0000000080000594 <debug_printf>:
    80000594:	fa010113          	addi	sp,sp,-96
    80000598:	00813c23          	sd	s0,24(sp)
    8000059c:	02010413          	addi	s0,sp,32
    800005a0:	fea43423          	sd	a0,-24(s0)
    800005a4:	00b43423          	sd	a1,8(s0)
    800005a8:	00c43823          	sd	a2,16(s0)
    800005ac:	00d43c23          	sd	a3,24(s0)
    800005b0:	02e43023          	sd	a4,32(s0)
    800005b4:	02f43423          	sd	a5,40(s0)
    800005b8:	03043823          	sd	a6,48(s0)
    800005bc:	03143c23          	sd	a7,56(s0)
    800005c0:	00000013          	nop
    800005c4:	01813403          	ld	s0,24(sp)
    800005c8:	06010113          	addi	sp,sp,96
    800005cc:	00008067          	ret

00000000800005d0 <main>:
    800005d0:	f8010113          	addi	sp,sp,-128
    800005d4:	06113c23          	sd	ra,120(sp)
    800005d8:	06813823          	sd	s0,112(sp)
    800005dc:	08010413          	addi	s0,sp,128
    800005e0:	00050793          	mv	a5,a0
    800005e4:	f8b43023          	sd	a1,-128(s0)
    800005e8:	f8f42623          	sw	a5,-116(s0)
    800005ec:	3e800793          	li	a5,1000
    800005f0:	fef42023          	sw	a5,-32(s0)
    800005f4:	fc010113          	addi	sp,sp,-64
    800005f8:	00010793          	mv	a5,sp
    800005fc:	00f78793          	addi	a5,a5,15
    80000600:	0047d793          	srli	a5,a5,0x4
    80000604:	00479793          	slli	a5,a5,0x4
    80000608:	00078713          	mv	a4,a5
    8000060c:	86e1b023          	sd	a4,-1952(gp) # 80015180 <Next_Ptr_Glob>
    80000610:	fc010113          	addi	sp,sp,-64
    80000614:	00010793          	mv	a5,sp
    80000618:	00f78793          	addi	a5,a5,15
    8000061c:	0047d793          	srli	a5,a5,0x4
    80000620:	00479793          	slli	a5,a5,0x4
    80000624:	00078713          	mv	a4,a5
    80000628:	84e1bc23          	sd	a4,-1960(gp) # 80015178 <_edata>
    8000062c:	8581b783          	ld	a5,-1960(gp) # 80015178 <_edata>
    80000630:	8601b703          	ld	a4,-1952(gp) # 80015180 <Next_Ptr_Glob>
    80000634:	00e7b023          	sd	a4,0(a5)
    80000638:	8581b783          	ld	a5,-1960(gp) # 80015178 <_edata>
    8000063c:	0007a423          	sw	zero,8(a5)
    80000640:	8581b783          	ld	a5,-1960(gp) # 80015178 <_edata>
    80000644:	00200713          	li	a4,2
    80000648:	00e7a623          	sw	a4,12(a5)
    8000064c:	8581b783          	ld	a5,-1960(gp) # 80015178 <_edata>
    80000650:	02800713          	li	a4,40
    80000654:	00e7a823          	sw	a4,16(a5)
    80000658:	8581b783          	ld	a5,-1960(gp) # 80015178 <_edata>
    8000065c:	01478713          	addi	a4,a5,20
    80000660:	000237b7          	lui	a5,0x23
    80000664:	87878793          	addi	a5,a5,-1928 # 22878 <_start-0x7ffdd7a4>
    80000668:	00078693          	mv	a3,a5
    8000066c:	01f00793          	li	a5,31
    80000670:	00078613          	mv	a2,a5
    80000674:	00068593          	mv	a1,a3
    80000678:	00070513          	mv	a0,a4
    8000067c:	32d000ef          	jal	ra,800011a8 <memcpy>
    80000680:	000237b7          	lui	a5,0x23
    80000684:	89878793          	addi	a5,a5,-1896 # 22898 <_start-0x7ffdd784>
    80000688:	0007b603          	ld	a2,0(a5)
    8000068c:	0087b683          	ld	a3,8(a5)
    80000690:	0107b703          	ld	a4,16(a5)
    80000694:	fac43823          	sd	a2,-80(s0)
    80000698:	fad43c23          	sd	a3,-72(s0)
    8000069c:	fce43023          	sd	a4,-64(s0)
    800006a0:	0187a703          	lw	a4,24(a5)
    800006a4:	fce42423          	sw	a4,-56(s0)
    800006a8:	01c7d703          	lhu	a4,28(a5)
    800006ac:	fce41623          	sh	a4,-52(s0)
    800006b0:	01e7c783          	lbu	a5,30(a5)
    800006b4:	fcf40723          	sb	a5,-50(s0)
    800006b8:	000257b7          	lui	a5,0x25
    800006bc:	31878793          	addi	a5,a5,792 # 25318 <_start-0x7ffdad04>
    800006c0:	00a00713          	li	a4,10
    800006c4:	64e7ae23          	sw	a4,1628(a5)
    800006c8:	000237b7          	lui	a5,0x23
    800006cc:	8b878513          	addi	a0,a5,-1864 # 228b8 <_start-0x7ffdd764>
    800006d0:	ec5ff0ef          	jal	ra,80000594 <debug_printf>
    800006d4:	000237b7          	lui	a5,0x23
    800006d8:	8c078593          	addi	a1,a5,-1856 # 228c0 <_start-0x7ffdd75c>
    800006dc:	000237b7          	lui	a5,0x23
    800006e0:	8d078513          	addi	a0,a5,-1840 # 228d0 <_start-0x7ffdd74c>
    800006e4:	eb1ff0ef          	jal	ra,80000594 <debug_printf>
    800006e8:	8741a783          	lw	a5,-1932(gp) # 80015194 <Reg>
    800006ec:	00078a63          	beqz	a5,80000700 <main+0x130>
    800006f0:	000237b7          	lui	a5,0x23
    800006f4:	8f878513          	addi	a0,a5,-1800 # 228f8 <_start-0x7ffdd724>
    800006f8:	e9dff0ef          	jal	ra,80000594 <debug_printf>
    800006fc:	0100006f          	j	8000070c <main+0x13c>
    80000700:	000237b7          	lui	a5,0x23
    80000704:	92878513          	addi	a0,a5,-1752 # 22928 <_start-0x7ffdd6f4>
    80000708:	e8dff0ef          	jal	ra,80000594 <debug_printf>
    8000070c:	03c00613          	li	a2,60
    80000710:	000237b7          	lui	a5,0x23
    80000714:	95878593          	addi	a1,a5,-1704 # 22958 <_start-0x7ffdd6c4>
    80000718:	000237b7          	lui	a5,0x23
    8000071c:	96078513          	addi	a0,a5,-1696 # 22960 <_start-0x7ffdd6bc>
    80000720:	e75ff0ef          	jal	ra,80000594 <debug_printf>
    80000724:	000237b7          	lui	a5,0x23
    80000728:	8b878513          	addi	a0,a5,-1864 # 228b8 <_start-0x7ffdd764>
    8000072c:	e69ff0ef          	jal	ra,80000594 <debug_printf>
    80000730:	8601ac23          	sw	zero,-1928(gp) # 80015198 <Done>
    80000734:	2e00006f          	j	80000a14 <main+0x444>
    80000738:	fe042783          	lw	a5,-32(s0)
    8000073c:	00078593          	mv	a1,a5
    80000740:	000237b7          	lui	a5,0x23
    80000744:	97878513          	addi	a0,a5,-1672 # 22978 <_start-0x7ffdd6a4>
    80000748:	e4dff0ef          	jal	ra,80000594 <debug_printf>
    8000074c:	91018513          	addi	a0,gp,-1776 # 80015230 <time_info>
    80000750:	108010ef          	jal	ra,80001858 <times>
    80000754:	91018793          	addi	a5,gp,-1776 # 80015230 <time_info>
    80000758:	0007b783          	ld	a5,0(a5)
    8000075c:	00078713          	mv	a4,a5
    80000760:	88e1b023          	sd	a4,-1920(gp) # 800151a0 <Begin_Time>
    80000764:	00100793          	li	a5,1
    80000768:	fef42223          	sw	a5,-28(s0)
    8000076c:	2280006f          	j	80000994 <main+0x3c4>
    80000770:	141000ef          	jal	ra,800010b0 <Proc_5>
    80000774:	0e5000ef          	jal	ra,80001058 <Proc_4>
    80000778:	00200793          	li	a5,2
    8000077c:	fcf42e23          	sw	a5,-36(s0)
    80000780:	00300793          	li	a5,3
    80000784:	fef42623          	sw	a5,-20(s0)
    80000788:	000237b7          	lui	a5,0x23
    8000078c:	9a078793          	addi	a5,a5,-1632 # 229a0 <_start-0x7ffdd67c>
    80000790:	0007b603          	ld	a2,0(a5)
    80000794:	0087b683          	ld	a3,8(a5)
    80000798:	0107b703          	ld	a4,16(a5)
    8000079c:	f8c43823          	sd	a2,-112(s0)
    800007a0:	f8d43c23          	sd	a3,-104(s0)
    800007a4:	fae43023          	sd	a4,-96(s0)
    800007a8:	0187a703          	lw	a4,24(a5)
    800007ac:	fae42423          	sw	a4,-88(s0)
    800007b0:	01c7d703          	lhu	a4,28(a5)
    800007b4:	fae41623          	sh	a4,-84(s0)
    800007b8:	01e7c783          	lbu	a5,30(a5)
    800007bc:	faf40723          	sb	a5,-82(s0)
    800007c0:	00100793          	li	a5,1
    800007c4:	fcf42a23          	sw	a5,-44(s0)
    800007c8:	f9040713          	addi	a4,s0,-112
    800007cc:	fb040793          	addi	a5,s0,-80
    800007d0:	00070593          	mv	a1,a4
    800007d4:	00078513          	mv	a0,a5
    800007d8:	c61ff0ef          	jal	ra,80000438 <Func_2>
    800007dc:	00050793          	mv	a5,a0
    800007e0:	0017b793          	seqz	a5,a5
    800007e4:	0ff7f793          	andi	a5,a5,255
    800007e8:	0007871b          	sext.w	a4,a5
    800007ec:	86e1a623          	sw	a4,-1940(gp) # 8001518c <Bool_Glob>
    800007f0:	0580006f          	j	80000848 <main+0x278>
    800007f4:	fdc42783          	lw	a5,-36(s0)
    800007f8:	00078713          	mv	a4,a5
    800007fc:	00070793          	mv	a5,a4
    80000800:	0027979b          	slliw	a5,a5,0x2
    80000804:	00e787bb          	addw	a5,a5,a4
    80000808:	0007871b          	sext.w	a4,a5
    8000080c:	fec42783          	lw	a5,-20(s0)
    80000810:	40f707bb          	subw	a5,a4,a5
    80000814:	0007879b          	sext.w	a5,a5
    80000818:	fcf42c23          	sw	a5,-40(s0)
    8000081c:	fdc42783          	lw	a5,-36(s0)
    80000820:	fd840693          	addi	a3,s0,-40
    80000824:	fec42703          	lw	a4,-20(s0)
    80000828:	00068613          	mv	a2,a3
    8000082c:	00070593          	mv	a1,a4
    80000830:	00078513          	mv	a0,a5
    80000834:	995ff0ef          	jal	ra,800001c8 <Proc_7>
    80000838:	fdc42783          	lw	a5,-36(s0)
    8000083c:	0017879b          	addiw	a5,a5,1
    80000840:	0007879b          	sext.w	a5,a5
    80000844:	fcf42e23          	sw	a5,-36(s0)
    80000848:	fdc42703          	lw	a4,-36(s0)
    8000084c:	fec42783          	lw	a5,-20(s0)
    80000850:	0007879b          	sext.w	a5,a5
    80000854:	faf740e3          	blt	a4,a5,800007f4 <main+0x224>
    80000858:	fdc42783          	lw	a5,-36(s0)
    8000085c:	fd842703          	lw	a4,-40(s0)
    80000860:	00070693          	mv	a3,a4
    80000864:	00078613          	mv	a2,a5
    80000868:	000257b7          	lui	a5,0x25
    8000086c:	31878593          	addi	a1,a5,792 # 25318 <_start-0x7ffdad04>
    80000870:	93018513          	addi	a0,gp,-1744 # 80015250 <Arr_1_Glob>
    80000874:	9b1ff0ef          	jal	ra,80000224 <Proc_8>
    80000878:	8581b783          	ld	a5,-1960(gp) # 80015178 <_edata>
    8000087c:	00078513          	mv	a0,a5
    80000880:	5a0000ef          	jal	ra,80000e20 <Proc_1>
    80000884:	04100793          	li	a5,65
    80000888:	fef405a3          	sb	a5,-21(s0)
    8000088c:	08c0006f          	j	80000918 <main+0x348>
    80000890:	feb44783          	lbu	a5,-21(s0)
    80000894:	0007879b          	sext.w	a5,a5
    80000898:	04300593          	li	a1,67
    8000089c:	00078513          	mv	a0,a5
    800008a0:	b31ff0ef          	jal	ra,800003d0 <Func_1>
    800008a4:	00050793          	mv	a5,a0
    800008a8:	0007871b          	sext.w	a4,a5
    800008ac:	fd442783          	lw	a5,-44(s0)
    800008b0:	04f71e63          	bne	a4,a5,8000090c <main+0x33c>
    800008b4:	fd440793          	addi	a5,s0,-44
    800008b8:	00078593          	mv	a1,a5
    800008bc:	00000513          	li	a0,0
    800008c0:	821ff0ef          	jal	ra,800000e0 <Proc_6>
    800008c4:	000237b7          	lui	a5,0x23
    800008c8:	9c078793          	addi	a5,a5,-1600 # 229c0 <_start-0x7ffdd65c>
    800008cc:	0007b603          	ld	a2,0(a5)
    800008d0:	0087b683          	ld	a3,8(a5)
    800008d4:	0107b703          	ld	a4,16(a5)
    800008d8:	f8c43823          	sd	a2,-112(s0)
    800008dc:	f8d43c23          	sd	a3,-104(s0)
    800008e0:	fae43023          	sd	a4,-96(s0)
    800008e4:	0187a703          	lw	a4,24(a5)
    800008e8:	fae42423          	sw	a4,-88(s0)
    800008ec:	01c7d703          	lhu	a4,28(a5)
    800008f0:	fae41623          	sh	a4,-84(s0)
    800008f4:	01e7c783          	lbu	a5,30(a5)
    800008f8:	faf40723          	sb	a5,-82(s0)
    800008fc:	fe442783          	lw	a5,-28(s0)
    80000900:	fef42623          	sw	a5,-20(s0)
    80000904:	fe442703          	lw	a4,-28(s0)
    80000908:	86e1a423          	sw	a4,-1944(gp) # 80015188 <Int_Glob>
    8000090c:	feb44783          	lbu	a5,-21(s0)
    80000910:	0017879b          	addiw	a5,a5,1
    80000914:	fef405a3          	sb	a5,-21(s0)
    80000918:	8711c703          	lbu	a4,-1935(gp) # 80015191 <Ch_2_Glob>
    8000091c:	feb44783          	lbu	a5,-21(s0)
    80000920:	0ff7f793          	andi	a5,a5,255
    80000924:	f6f776e3          	bgeu	a4,a5,80000890 <main+0x2c0>
    80000928:	fdc42783          	lw	a5,-36(s0)
    8000092c:	fec42703          	lw	a4,-20(s0)
    80000930:	02f707bb          	mulw	a5,a4,a5
    80000934:	fef42623          	sw	a5,-20(s0)
    80000938:	fd842783          	lw	a5,-40(s0)
    8000093c:	fec42703          	lw	a4,-20(s0)
    80000940:	02f747bb          	divw	a5,a4,a5
    80000944:	0007879b          	sext.w	a5,a5
    80000948:	fcf42e23          	sw	a5,-36(s0)
    8000094c:	fd842783          	lw	a5,-40(s0)
    80000950:	fec42703          	lw	a4,-20(s0)
    80000954:	40f707bb          	subw	a5,a4,a5
    80000958:	0007879b          	sext.w	a5,a5
    8000095c:	00078713          	mv	a4,a5
    80000960:	00070793          	mv	a5,a4
    80000964:	0037979b          	slliw	a5,a5,0x3
    80000968:	40e787bb          	subw	a5,a5,a4
    8000096c:	0007871b          	sext.w	a4,a5
    80000970:	fdc42783          	lw	a5,-36(s0)
    80000974:	40f707bb          	subw	a5,a4,a5
    80000978:	fef42623          	sw	a5,-20(s0)
    8000097c:	fdc40793          	addi	a5,s0,-36
    80000980:	00078513          	mv	a0,a5
    80000984:	5fc000ef          	jal	ra,80000f80 <Proc_2>
    80000988:	fe442783          	lw	a5,-28(s0)
    8000098c:	0017879b          	addiw	a5,a5,1
    80000990:	fef42223          	sw	a5,-28(s0)
    80000994:	fe442703          	lw	a4,-28(s0)
    80000998:	fe042783          	lw	a5,-32(s0)
    8000099c:	0007071b          	sext.w	a4,a4
    800009a0:	0007879b          	sext.w	a5,a5
    800009a4:	dce7d6e3          	bge	a5,a4,80000770 <main+0x1a0>
    800009a8:	91018513          	addi	a0,gp,-1776 # 80015230 <time_info>
    800009ac:	6ad000ef          	jal	ra,80001858 <times>
    800009b0:	91018793          	addi	a5,gp,-1776 # 80015230 <time_info>
    800009b4:	0007b783          	ld	a5,0(a5)
    800009b8:	00078713          	mv	a4,a5
    800009bc:	88e1b423          	sd	a4,-1912(gp) # 800151a8 <End_Time>
    800009c0:	8881b703          	ld	a4,-1912(gp) # 800151a8 <End_Time>
    800009c4:	8801b783          	ld	a5,-1920(gp) # 800151a0 <Begin_Time>
    800009c8:	40f70733          	sub	a4,a4,a5
    800009cc:	88e1b823          	sd	a4,-1904(gp) # 800151b0 <User_Time>
    800009d0:	8901b703          	ld	a4,-1904(gp) # 800151b0 <User_Time>
    800009d4:	07700793          	li	a5,119
    800009d8:	02e7ca63          	blt	a5,a4,80000a0c <main+0x43c>
    800009dc:	000237b7          	lui	a5,0x23
    800009e0:	9e078513          	addi	a0,a5,-1568 # 229e0 <_start-0x7ffdd63c>
    800009e4:	471000ef          	jal	ra,80001654 <puts>
    800009e8:	fe042703          	lw	a4,-32(s0)
    800009ec:	00070793          	mv	a5,a4
    800009f0:	0027979b          	slliw	a5,a5,0x2
    800009f4:	00e787bb          	addw	a5,a5,a4
    800009f8:	0017979b          	slliw	a5,a5,0x1
    800009fc:	fef42023          	sw	a5,-32(s0)
    80000a00:	00a00513          	li	a0,10
    80000a04:	231000ef          	jal	ra,80001434 <putchar>
    80000a08:	00c0006f          	j	80000a14 <main+0x444>
    80000a0c:	00100713          	li	a4,1
    80000a10:	86e1ac23          	sw	a4,-1928(gp) # 80015198 <Done>
    80000a14:	8781a783          	lw	a5,-1928(gp) # 80015198 <Done>
    80000a18:	d20780e3          	beqz	a5,80000738 <main+0x168>
    80000a1c:	000237b7          	lui	a5,0x23
    80000a20:	a1878513          	addi	a0,a5,-1512 # 22a18 <_start-0x7ffdd604>
    80000a24:	b71ff0ef          	jal	ra,80000594 <debug_printf>
    80000a28:	000237b7          	lui	a5,0x23
    80000a2c:	8b878513          	addi	a0,a5,-1864 # 228b8 <_start-0x7ffdd764>
    80000a30:	b65ff0ef          	jal	ra,80000594 <debug_printf>
    80000a34:	8681a783          	lw	a5,-1944(gp) # 80015188 <Int_Glob>
    80000a38:	00078593          	mv	a1,a5
    80000a3c:	000237b7          	lui	a5,0x23
    80000a40:	a5078513          	addi	a0,a5,-1456 # 22a50 <_start-0x7ffdd5cc>
    80000a44:	b51ff0ef          	jal	ra,80000594 <debug_printf>
    80000a48:	00500593          	li	a1,5
    80000a4c:	000237b7          	lui	a5,0x23
    80000a50:	a7078513          	addi	a0,a5,-1424 # 22a70 <_start-0x7ffdd5ac>
    80000a54:	b41ff0ef          	jal	ra,80000594 <debug_printf>
    80000a58:	86c1a783          	lw	a5,-1940(gp) # 8001518c <Bool_Glob>
    80000a5c:	00078593          	mv	a1,a5
    80000a60:	000237b7          	lui	a5,0x23
    80000a64:	a9078513          	addi	a0,a5,-1392 # 22a90 <_start-0x7ffdd58c>
    80000a68:	b2dff0ef          	jal	ra,80000594 <debug_printf>
    80000a6c:	00100593          	li	a1,1
    80000a70:	000237b7          	lui	a5,0x23
    80000a74:	a7078513          	addi	a0,a5,-1424 # 22a70 <_start-0x7ffdd5ac>
    80000a78:	b1dff0ef          	jal	ra,80000594 <debug_printf>
    80000a7c:	8701c783          	lbu	a5,-1936(gp) # 80015190 <Ch_1_Glob>
    80000a80:	0007879b          	sext.w	a5,a5
    80000a84:	00078593          	mv	a1,a5
    80000a88:	000237b7          	lui	a5,0x23
    80000a8c:	ab078513          	addi	a0,a5,-1360 # 22ab0 <_start-0x7ffdd56c>
    80000a90:	b05ff0ef          	jal	ra,80000594 <debug_printf>
    80000a94:	04100593          	li	a1,65
    80000a98:	000237b7          	lui	a5,0x23
    80000a9c:	ad078513          	addi	a0,a5,-1328 # 22ad0 <_start-0x7ffdd54c>
    80000aa0:	af5ff0ef          	jal	ra,80000594 <debug_printf>
    80000aa4:	8711c783          	lbu	a5,-1935(gp) # 80015191 <Ch_2_Glob>
    80000aa8:	0007879b          	sext.w	a5,a5
    80000aac:	00078593          	mv	a1,a5
    80000ab0:	000237b7          	lui	a5,0x23
    80000ab4:	af078513          	addi	a0,a5,-1296 # 22af0 <_start-0x7ffdd52c>
    80000ab8:	addff0ef          	jal	ra,80000594 <debug_printf>
    80000abc:	04200593          	li	a1,66
    80000ac0:	000237b7          	lui	a5,0x23
    80000ac4:	ad078513          	addi	a0,a5,-1328 # 22ad0 <_start-0x7ffdd54c>
    80000ac8:	acdff0ef          	jal	ra,80000594 <debug_printf>
    80000acc:	93018793          	addi	a5,gp,-1744 # 80015250 <Arr_1_Glob>
    80000ad0:	0207a783          	lw	a5,32(a5)
    80000ad4:	00078593          	mv	a1,a5
    80000ad8:	000237b7          	lui	a5,0x23
    80000adc:	b1078513          	addi	a0,a5,-1264 # 22b10 <_start-0x7ffdd50c>
    80000ae0:	ab5ff0ef          	jal	ra,80000594 <debug_printf>
    80000ae4:	00700593          	li	a1,7
    80000ae8:	000237b7          	lui	a5,0x23
    80000aec:	a7078513          	addi	a0,a5,-1424 # 22a70 <_start-0x7ffdd5ac>
    80000af0:	aa5ff0ef          	jal	ra,80000594 <debug_printf>
    80000af4:	000257b7          	lui	a5,0x25
    80000af8:	31878793          	addi	a5,a5,792 # 25318 <_start-0x7ffdad04>
    80000afc:	65c7a783          	lw	a5,1628(a5)
    80000b00:	00078593          	mv	a1,a5
    80000b04:	000237b7          	lui	a5,0x23
    80000b08:	b3078513          	addi	a0,a5,-1232 # 22b30 <_start-0x7ffdd4ec>
    80000b0c:	a89ff0ef          	jal	ra,80000594 <debug_printf>
    80000b10:	000237b7          	lui	a5,0x23
    80000b14:	b5078513          	addi	a0,a5,-1200 # 22b50 <_start-0x7ffdd4cc>
    80000b18:	a7dff0ef          	jal	ra,80000594 <debug_printf>
    80000b1c:	000237b7          	lui	a5,0x23
    80000b20:	b8078513          	addi	a0,a5,-1152 # 22b80 <_start-0x7ffdd49c>
    80000b24:	a71ff0ef          	jal	ra,80000594 <debug_printf>
    80000b28:	8581b783          	ld	a5,-1960(gp) # 80015178 <_edata>
    80000b2c:	0007b783          	ld	a5,0(a5)
    80000b30:	00078593          	mv	a1,a5
    80000b34:	000237b7          	lui	a5,0x23
    80000b38:	b9078513          	addi	a0,a5,-1136 # 22b90 <_start-0x7ffdd48c>
    80000b3c:	a59ff0ef          	jal	ra,80000594 <debug_printf>
    80000b40:	000237b7          	lui	a5,0x23
    80000b44:	bb078513          	addi	a0,a5,-1104 # 22bb0 <_start-0x7ffdd46c>
    80000b48:	a4dff0ef          	jal	ra,80000594 <debug_printf>
    80000b4c:	8581b783          	ld	a5,-1960(gp) # 80015178 <_edata>
    80000b50:	0087a783          	lw	a5,8(a5)
    80000b54:	00078593          	mv	a1,a5
    80000b58:	000237b7          	lui	a5,0x23
    80000b5c:	be878513          	addi	a0,a5,-1048 # 22be8 <_start-0x7ffdd434>
    80000b60:	a35ff0ef          	jal	ra,80000594 <debug_printf>
    80000b64:	00000593          	li	a1,0
    80000b68:	000237b7          	lui	a5,0x23
    80000b6c:	a7078513          	addi	a0,a5,-1424 # 22a70 <_start-0x7ffdd5ac>
    80000b70:	a25ff0ef          	jal	ra,80000594 <debug_printf>
    80000b74:	8581b783          	ld	a5,-1960(gp) # 80015178 <_edata>
    80000b78:	00c7a783          	lw	a5,12(a5)
    80000b7c:	00078593          	mv	a1,a5
    80000b80:	000237b7          	lui	a5,0x23
    80000b84:	c0878513          	addi	a0,a5,-1016 # 22c08 <_start-0x7ffdd414>
    80000b88:	a0dff0ef          	jal	ra,80000594 <debug_printf>
    80000b8c:	00200593          	li	a1,2
    80000b90:	000237b7          	lui	a5,0x23
    80000b94:	a7078513          	addi	a0,a5,-1424 # 22a70 <_start-0x7ffdd5ac>
    80000b98:	9fdff0ef          	jal	ra,80000594 <debug_printf>
    80000b9c:	8581b783          	ld	a5,-1960(gp) # 80015178 <_edata>
    80000ba0:	0107a783          	lw	a5,16(a5)
    80000ba4:	00078593          	mv	a1,a5
    80000ba8:	000237b7          	lui	a5,0x23
    80000bac:	c2878513          	addi	a0,a5,-984 # 22c28 <_start-0x7ffdd3f4>
    80000bb0:	9e5ff0ef          	jal	ra,80000594 <debug_printf>
    80000bb4:	01100593          	li	a1,17
    80000bb8:	000237b7          	lui	a5,0x23
    80000bbc:	a7078513          	addi	a0,a5,-1424 # 22a70 <_start-0x7ffdd5ac>
    80000bc0:	9d5ff0ef          	jal	ra,80000594 <debug_printf>
    80000bc4:	8581b783          	ld	a5,-1960(gp) # 80015178 <_edata>
    80000bc8:	01478793          	addi	a5,a5,20
    80000bcc:	00078593          	mv	a1,a5
    80000bd0:	000237b7          	lui	a5,0x23
    80000bd4:	c4878513          	addi	a0,a5,-952 # 22c48 <_start-0x7ffdd3d4>
    80000bd8:	9bdff0ef          	jal	ra,80000594 <debug_printf>
    80000bdc:	000237b7          	lui	a5,0x23
    80000be0:	c6878513          	addi	a0,a5,-920 # 22c68 <_start-0x7ffdd3b4>
    80000be4:	9b1ff0ef          	jal	ra,80000594 <debug_printf>
    80000be8:	000237b7          	lui	a5,0x23
    80000bec:	ca078513          	addi	a0,a5,-864 # 22ca0 <_start-0x7ffdd37c>
    80000bf0:	9a5ff0ef          	jal	ra,80000594 <debug_printf>
    80000bf4:	8601b783          	ld	a5,-1952(gp) # 80015180 <Next_Ptr_Glob>
    80000bf8:	0007b783          	ld	a5,0(a5)
    80000bfc:	00078593          	mv	a1,a5
    80000c00:	000237b7          	lui	a5,0x23
    80000c04:	b9078513          	addi	a0,a5,-1136 # 22b90 <_start-0x7ffdd48c>
    80000c08:	98dff0ef          	jal	ra,80000594 <debug_printf>
    80000c0c:	000237b7          	lui	a5,0x23
    80000c10:	cb878513          	addi	a0,a5,-840 # 22cb8 <_start-0x7ffdd364>
    80000c14:	981ff0ef          	jal	ra,80000594 <debug_printf>
    80000c18:	8601b783          	ld	a5,-1952(gp) # 80015180 <Next_Ptr_Glob>
    80000c1c:	0087a783          	lw	a5,8(a5)
    80000c20:	00078593          	mv	a1,a5
    80000c24:	000237b7          	lui	a5,0x23
    80000c28:	be878513          	addi	a0,a5,-1048 # 22be8 <_start-0x7ffdd434>
    80000c2c:	969ff0ef          	jal	ra,80000594 <debug_printf>
    80000c30:	00000593          	li	a1,0
    80000c34:	000237b7          	lui	a5,0x23
    80000c38:	a7078513          	addi	a0,a5,-1424 # 22a70 <_start-0x7ffdd5ac>
    80000c3c:	959ff0ef          	jal	ra,80000594 <debug_printf>
    80000c40:	8601b783          	ld	a5,-1952(gp) # 80015180 <Next_Ptr_Glob>
    80000c44:	00c7a783          	lw	a5,12(a5)
    80000c48:	00078593          	mv	a1,a5
    80000c4c:	000237b7          	lui	a5,0x23
    80000c50:	c0878513          	addi	a0,a5,-1016 # 22c08 <_start-0x7ffdd414>
    80000c54:	941ff0ef          	jal	ra,80000594 <debug_printf>
    80000c58:	00100593          	li	a1,1
    80000c5c:	000237b7          	lui	a5,0x23
    80000c60:	a7078513          	addi	a0,a5,-1424 # 22a70 <_start-0x7ffdd5ac>
    80000c64:	931ff0ef          	jal	ra,80000594 <debug_printf>
    80000c68:	8601b783          	ld	a5,-1952(gp) # 80015180 <Next_Ptr_Glob>
    80000c6c:	0107a783          	lw	a5,16(a5)
    80000c70:	00078593          	mv	a1,a5
    80000c74:	000237b7          	lui	a5,0x23
    80000c78:	c2878513          	addi	a0,a5,-984 # 22c28 <_start-0x7ffdd3f4>
    80000c7c:	919ff0ef          	jal	ra,80000594 <debug_printf>
    80000c80:	01200593          	li	a1,18
    80000c84:	000237b7          	lui	a5,0x23
    80000c88:	a7078513          	addi	a0,a5,-1424 # 22a70 <_start-0x7ffdd5ac>
    80000c8c:	909ff0ef          	jal	ra,80000594 <debug_printf>
    80000c90:	8601b783          	ld	a5,-1952(gp) # 80015180 <Next_Ptr_Glob>
    80000c94:	01478793          	addi	a5,a5,20
    80000c98:	00078593          	mv	a1,a5
    80000c9c:	000237b7          	lui	a5,0x23
    80000ca0:	c4878513          	addi	a0,a5,-952 # 22c48 <_start-0x7ffdd3d4>
    80000ca4:	8f1ff0ef          	jal	ra,80000594 <debug_printf>
    80000ca8:	000237b7          	lui	a5,0x23
    80000cac:	c6878513          	addi	a0,a5,-920 # 22c68 <_start-0x7ffdd3b4>
    80000cb0:	8e5ff0ef          	jal	ra,80000594 <debug_printf>
    80000cb4:	fdc42783          	lw	a5,-36(s0)
    80000cb8:	00078593          	mv	a1,a5
    80000cbc:	000237b7          	lui	a5,0x23
    80000cc0:	cf878513          	addi	a0,a5,-776 # 22cf8 <_start-0x7ffdd324>
    80000cc4:	8d1ff0ef          	jal	ra,80000594 <debug_printf>
    80000cc8:	00500593          	li	a1,5
    80000ccc:	000237b7          	lui	a5,0x23
    80000cd0:	a7078513          	addi	a0,a5,-1424 # 22a70 <_start-0x7ffdd5ac>
    80000cd4:	8c1ff0ef          	jal	ra,80000594 <debug_printf>
    80000cd8:	fec42783          	lw	a5,-20(s0)
    80000cdc:	00078593          	mv	a1,a5
    80000ce0:	000237b7          	lui	a5,0x23
    80000ce4:	d1878513          	addi	a0,a5,-744 # 22d18 <_start-0x7ffdd304>
    80000ce8:	8adff0ef          	jal	ra,80000594 <debug_printf>
    80000cec:	00d00593          	li	a1,13
    80000cf0:	000237b7          	lui	a5,0x23
    80000cf4:	a7078513          	addi	a0,a5,-1424 # 22a70 <_start-0x7ffdd5ac>
    80000cf8:	89dff0ef          	jal	ra,80000594 <debug_printf>
    80000cfc:	fd842783          	lw	a5,-40(s0)
    80000d00:	00078593          	mv	a1,a5
    80000d04:	000237b7          	lui	a5,0x23
    80000d08:	d3878513          	addi	a0,a5,-712 # 22d38 <_start-0x7ffdd2e4>
    80000d0c:	889ff0ef          	jal	ra,80000594 <debug_printf>
    80000d10:	00700593          	li	a1,7
    80000d14:	000237b7          	lui	a5,0x23
    80000d18:	a7078513          	addi	a0,a5,-1424 # 22a70 <_start-0x7ffdd5ac>
    80000d1c:	879ff0ef          	jal	ra,80000594 <debug_printf>
    80000d20:	fd442783          	lw	a5,-44(s0)
    80000d24:	00078593          	mv	a1,a5
    80000d28:	000237b7          	lui	a5,0x23
    80000d2c:	d5878513          	addi	a0,a5,-680 # 22d58 <_start-0x7ffdd2c4>
    80000d30:	865ff0ef          	jal	ra,80000594 <debug_printf>
    80000d34:	00100593          	li	a1,1
    80000d38:	000237b7          	lui	a5,0x23
    80000d3c:	a7078513          	addi	a0,a5,-1424 # 22a70 <_start-0x7ffdd5ac>
    80000d40:	855ff0ef          	jal	ra,80000594 <debug_printf>
    80000d44:	fb040793          	addi	a5,s0,-80
    80000d48:	00078593          	mv	a1,a5
    80000d4c:	000237b7          	lui	a5,0x23
    80000d50:	d7878513          	addi	a0,a5,-648 # 22d78 <_start-0x7ffdd2a4>
    80000d54:	841ff0ef          	jal	ra,80000594 <debug_printf>
    80000d58:	000237b7          	lui	a5,0x23
    80000d5c:	d9878513          	addi	a0,a5,-616 # 22d98 <_start-0x7ffdd284>
    80000d60:	835ff0ef          	jal	ra,80000594 <debug_printf>
    80000d64:	f9040793          	addi	a5,s0,-112
    80000d68:	00078593          	mv	a1,a5
    80000d6c:	000237b7          	lui	a5,0x23
    80000d70:	dd078513          	addi	a0,a5,-560 # 22dd0 <_start-0x7ffdd24c>
    80000d74:	821ff0ef          	jal	ra,80000594 <debug_printf>
    80000d78:	000237b7          	lui	a5,0x23
    80000d7c:	df078513          	addi	a0,a5,-528 # 22df0 <_start-0x7ffdd22c>
    80000d80:	815ff0ef          	jal	ra,80000594 <debug_printf>
    80000d84:	000237b7          	lui	a5,0x23
    80000d88:	8b878513          	addi	a0,a5,-1864 # 228b8 <_start-0x7ffdd764>
    80000d8c:	809ff0ef          	jal	ra,80000594 <debug_printf>
    80000d90:	8901b703          	ld	a4,-1904(gp) # 800151b0 <User_Time>
    80000d94:	fe042783          	lw	a5,-32(s0)
    80000d98:	02f74733          	div	a4,a4,a5
    80000d9c:	000f47b7          	lui	a5,0xf4
    80000da0:	24078793          	addi	a5,a5,576 # f4240 <_start-0x7ff0bddc>
    80000da4:	02f70733          	mul	a4,a4,a5
    80000da8:	03c00793          	li	a5,60
    80000dac:	02f74733          	div	a4,a4,a5
    80000db0:	88e1bc23          	sd	a4,-1896(gp) # 800151b8 <Microseconds>
    80000db4:	fe042703          	lw	a4,-32(s0)
    80000db8:	00070793          	mv	a5,a4
    80000dbc:	0047979b          	slliw	a5,a5,0x4
    80000dc0:	40e787bb          	subw	a5,a5,a4
    80000dc4:	0027979b          	slliw	a5,a5,0x2
    80000dc8:	0007879b          	sext.w	a5,a5
    80000dcc:	00078713          	mv	a4,a5
    80000dd0:	8901b783          	ld	a5,-1904(gp) # 800151b0 <User_Time>
    80000dd4:	02f74733          	div	a4,a4,a5
    80000dd8:	8ae1b023          	sd	a4,-1888(gp) # 800151c0 <Dhrystones_Per_Second>
    80000ddc:	8981b783          	ld	a5,-1896(gp) # 800151b8 <Microseconds>
    80000de0:	00078593          	mv	a1,a5
    80000de4:	000237b7          	lui	a5,0x23
    80000de8:	e2878513          	addi	a0,a5,-472 # 22e28 <_start-0x7ffdd1f4>
    80000dec:	5f4000ef          	jal	ra,800013e0 <printf>
    80000df0:	8a01b783          	ld	a5,-1888(gp) # 800151c0 <Dhrystones_Per_Second>
    80000df4:	00078593          	mv	a1,a5
    80000df8:	000237b7          	lui	a5,0x23
    80000dfc:	e6078513          	addi	a0,a5,-416 # 22e60 <_start-0x7ffdd1bc>
    80000e00:	5e0000ef          	jal	ra,800013e0 <printf>
    80000e04:	00000793          	li	a5,0
    80000e08:	00078513          	mv	a0,a5
    80000e0c:	f8040113          	addi	sp,s0,-128
    80000e10:	07813083          	ld	ra,120(sp)
    80000e14:	07013403          	ld	s0,112(sp)
    80000e18:	08010113          	addi	sp,sp,128
    80000e1c:	00008067          	ret

0000000080000e20 <Proc_1>:
    80000e20:	fd010113          	addi	sp,sp,-48
    80000e24:	02113423          	sd	ra,40(sp)
    80000e28:	02813023          	sd	s0,32(sp)
    80000e2c:	03010413          	addi	s0,sp,48
    80000e30:	fca43c23          	sd	a0,-40(s0)
    80000e34:	fd843783          	ld	a5,-40(s0)
    80000e38:	0007b783          	ld	a5,0(a5)
    80000e3c:	fef43423          	sd	a5,-24(s0)
    80000e40:	8581b703          	ld	a4,-1960(gp) # 80015178 <_edata>
    80000e44:	fd843783          	ld	a5,-40(s0)
    80000e48:	0007b783          	ld	a5,0(a5)
    80000e4c:	00073883          	ld	a7,0(a4)
    80000e50:	00873803          	ld	a6,8(a4)
    80000e54:	01073503          	ld	a0,16(a4)
    80000e58:	01873583          	ld	a1,24(a4)
    80000e5c:	02073603          	ld	a2,32(a4)
    80000e60:	02873683          	ld	a3,40(a4)
    80000e64:	03073703          	ld	a4,48(a4)
    80000e68:	0117b023          	sd	a7,0(a5)
    80000e6c:	0107b423          	sd	a6,8(a5)
    80000e70:	00a7b823          	sd	a0,16(a5)
    80000e74:	00b7bc23          	sd	a1,24(a5)
    80000e78:	02c7b023          	sd	a2,32(a5)
    80000e7c:	02d7b423          	sd	a3,40(a5)
    80000e80:	02e7b823          	sd	a4,48(a5)
    80000e84:	fd843783          	ld	a5,-40(s0)
    80000e88:	00500713          	li	a4,5
    80000e8c:	00e7a823          	sw	a4,16(a5)
    80000e90:	fd843783          	ld	a5,-40(s0)
    80000e94:	0107a703          	lw	a4,16(a5)
    80000e98:	fe843783          	ld	a5,-24(s0)
    80000e9c:	00e7a823          	sw	a4,16(a5)
    80000ea0:	fd843783          	ld	a5,-40(s0)
    80000ea4:	0007b703          	ld	a4,0(a5)
    80000ea8:	fe843783          	ld	a5,-24(s0)
    80000eac:	00e7b023          	sd	a4,0(a5)
    80000eb0:	fe843783          	ld	a5,-24(s0)
    80000eb4:	00078513          	mv	a0,a5
    80000eb8:	140000ef          	jal	ra,80000ff8 <Proc_3>
    80000ebc:	fe843783          	ld	a5,-24(s0)
    80000ec0:	0087a783          	lw	a5,8(a5)
    80000ec4:	06079063          	bnez	a5,80000f24 <Proc_1+0x104>
    80000ec8:	fe843783          	ld	a5,-24(s0)
    80000ecc:	00600713          	li	a4,6
    80000ed0:	00e7a823          	sw	a4,16(a5)
    80000ed4:	fd843783          	ld	a5,-40(s0)
    80000ed8:	00c7a703          	lw	a4,12(a5)
    80000edc:	fe843783          	ld	a5,-24(s0)
    80000ee0:	00c78793          	addi	a5,a5,12
    80000ee4:	00078593          	mv	a1,a5
    80000ee8:	00070513          	mv	a0,a4
    80000eec:	9f4ff0ef          	jal	ra,800000e0 <Proc_6>
    80000ef0:	8581b783          	ld	a5,-1960(gp) # 80015178 <_edata>
    80000ef4:	0007b703          	ld	a4,0(a5)
    80000ef8:	fe843783          	ld	a5,-24(s0)
    80000efc:	00e7b023          	sd	a4,0(a5)
    80000f00:	fe843783          	ld	a5,-24(s0)
    80000f04:	0107a703          	lw	a4,16(a5)
    80000f08:	fe843783          	ld	a5,-24(s0)
    80000f0c:	01078793          	addi	a5,a5,16
    80000f10:	00078613          	mv	a2,a5
    80000f14:	00a00593          	li	a1,10
    80000f18:	00070513          	mv	a0,a4
    80000f1c:	aacff0ef          	jal	ra,800001c8 <Proc_7>
    80000f20:	0480006f          	j	80000f68 <Proc_1+0x148>
    80000f24:	fd843783          	ld	a5,-40(s0)
    80000f28:	0007b703          	ld	a4,0(a5)
    80000f2c:	fd843783          	ld	a5,-40(s0)
    80000f30:	00073883          	ld	a7,0(a4)
    80000f34:	00873803          	ld	a6,8(a4)
    80000f38:	01073503          	ld	a0,16(a4)
    80000f3c:	01873583          	ld	a1,24(a4)
    80000f40:	02073603          	ld	a2,32(a4)
    80000f44:	02873683          	ld	a3,40(a4)
    80000f48:	03073703          	ld	a4,48(a4)
    80000f4c:	0117b023          	sd	a7,0(a5)
    80000f50:	0107b423          	sd	a6,8(a5)
    80000f54:	00a7b823          	sd	a0,16(a5)
    80000f58:	00b7bc23          	sd	a1,24(a5)
    80000f5c:	02c7b023          	sd	a2,32(a5)
    80000f60:	02d7b423          	sd	a3,40(a5)
    80000f64:	02e7b823          	sd	a4,48(a5)
    80000f68:	00000013          	nop
    80000f6c:	00078513          	mv	a0,a5
    80000f70:	02813083          	ld	ra,40(sp)
    80000f74:	02013403          	ld	s0,32(sp)
    80000f78:	03010113          	addi	sp,sp,48
    80000f7c:	00008067          	ret

0000000080000f80 <Proc_2>:
    80000f80:	fd010113          	addi	sp,sp,-48
    80000f84:	02813423          	sd	s0,40(sp)
    80000f88:	03010413          	addi	s0,sp,48
    80000f8c:	fca43c23          	sd	a0,-40(s0)
    80000f90:	fd843783          	ld	a5,-40(s0)
    80000f94:	0007a783          	lw	a5,0(a5)
    80000f98:	00a7879b          	addiw	a5,a5,10
    80000f9c:	fef42623          	sw	a5,-20(s0)
    80000fa0:	8701c783          	lbu	a5,-1936(gp) # 80015190 <Ch_1_Glob>
    80000fa4:	00078713          	mv	a4,a5
    80000fa8:	04100793          	li	a5,65
    80000fac:	02f71663          	bne	a4,a5,80000fd8 <Proc_2+0x58>
    80000fb0:	fec42783          	lw	a5,-20(s0)
    80000fb4:	fff7879b          	addiw	a5,a5,-1
    80000fb8:	fef42623          	sw	a5,-20(s0)
    80000fbc:	8681a783          	lw	a5,-1944(gp) # 80015188 <Int_Glob>
    80000fc0:	fec42703          	lw	a4,-20(s0)
    80000fc4:	40f707bb          	subw	a5,a4,a5
    80000fc8:	0007871b          	sext.w	a4,a5
    80000fcc:	fd843783          	ld	a5,-40(s0)
    80000fd0:	00e7a023          	sw	a4,0(a5)
    80000fd4:	fe042423          	sw	zero,-24(s0)
    80000fd8:	fe842783          	lw	a5,-24(s0)
    80000fdc:	0007879b          	sext.w	a5,a5
    80000fe0:	fc0790e3          	bnez	a5,80000fa0 <Proc_2+0x20>
    80000fe4:	00000013          	nop
    80000fe8:	00078513          	mv	a0,a5
    80000fec:	02813403          	ld	s0,40(sp)
    80000ff0:	03010113          	addi	sp,sp,48
    80000ff4:	00008067          	ret

0000000080000ff8 <Proc_3>:
    80000ff8:	fe010113          	addi	sp,sp,-32
    80000ffc:	00113c23          	sd	ra,24(sp)
    80001000:	00813823          	sd	s0,16(sp)
    80001004:	02010413          	addi	s0,sp,32
    80001008:	fea43423          	sd	a0,-24(s0)
    8000100c:	8581b783          	ld	a5,-1960(gp) # 80015178 <_edata>
    80001010:	00078a63          	beqz	a5,80001024 <Proc_3+0x2c>
    80001014:	8581b783          	ld	a5,-1960(gp) # 80015178 <_edata>
    80001018:	0007b703          	ld	a4,0(a5)
    8000101c:	fe843783          	ld	a5,-24(s0)
    80001020:	00e7b023          	sd	a4,0(a5)
    80001024:	8681a703          	lw	a4,-1944(gp) # 80015188 <Int_Glob>
    80001028:	8581b783          	ld	a5,-1960(gp) # 80015178 <_edata>
    8000102c:	01078793          	addi	a5,a5,16
    80001030:	00078613          	mv	a2,a5
    80001034:	00070593          	mv	a1,a4
    80001038:	00a00513          	li	a0,10
    8000103c:	98cff0ef          	jal	ra,800001c8 <Proc_7>
    80001040:	00000013          	nop
    80001044:	00078513          	mv	a0,a5
    80001048:	01813083          	ld	ra,24(sp)
    8000104c:	01013403          	ld	s0,16(sp)
    80001050:	02010113          	addi	sp,sp,32
    80001054:	00008067          	ret

0000000080001058 <Proc_4>:
    80001058:	fe010113          	addi	sp,sp,-32
    8000105c:	00813c23          	sd	s0,24(sp)
    80001060:	02010413          	addi	s0,sp,32
    80001064:	8701c783          	lbu	a5,-1936(gp) # 80015190 <Ch_1_Glob>
    80001068:	0007871b          	sext.w	a4,a5
    8000106c:	04100793          	li	a5,65
    80001070:	40f707b3          	sub	a5,a4,a5
    80001074:	0017b793          	seqz	a5,a5
    80001078:	0ff7f793          	andi	a5,a5,255
    8000107c:	fef42623          	sw	a5,-20(s0)
    80001080:	86c1a703          	lw	a4,-1940(gp) # 8001518c <Bool_Glob>
    80001084:	fec42783          	lw	a5,-20(s0)
    80001088:	00f767b3          	or	a5,a4,a5
    8000108c:	0007871b          	sext.w	a4,a5
    80001090:	86e1a623          	sw	a4,-1940(gp) # 8001518c <Bool_Glob>
    80001094:	04200713          	li	a4,66
    80001098:	86e188a3          	sb	a4,-1935(gp) # 80015191 <Ch_2_Glob>
    8000109c:	00000013          	nop
    800010a0:	00078513          	mv	a0,a5
    800010a4:	01813403          	ld	s0,24(sp)
    800010a8:	02010113          	addi	sp,sp,32
    800010ac:	00008067          	ret

00000000800010b0 <Proc_5>:
    800010b0:	ff010113          	addi	sp,sp,-16
    800010b4:	00813423          	sd	s0,8(sp)
    800010b8:	01010413          	addi	s0,sp,16
    800010bc:	04100713          	li	a4,65
    800010c0:	86e18823          	sb	a4,-1936(gp) # 80015190 <Ch_1_Glob>
    800010c4:	8601a623          	sw	zero,-1940(gp) # 8001518c <Bool_Glob>
    800010c8:	00000013          	nop
    800010cc:	00078513          	mv	a0,a5
    800010d0:	00813403          	ld	s0,8(sp)
    800010d4:	01010113          	addi	sp,sp,16
    800010d8:	00008067          	ret

00000000800010dc <exit>:
    800010dc:	ff010113          	addi	sp,sp,-16
    800010e0:	00000593          	li	a1,0
    800010e4:	00813023          	sd	s0,0(sp)
    800010e8:	00113423          	sd	ra,8(sp)
    800010ec:	00050413          	mv	s0,a0
    800010f0:	140030ef          	jal	ra,80004230 <__call_exitprocs>
    800010f4:	8301b503          	ld	a0,-2000(gp) # 80015150 <_global_impure_ptr>
    800010f8:	05853783          	ld	a5,88(a0) # 24058 <_start-0x7ffdbfc4>
    800010fc:	00078463          	beqz	a5,80001104 <exit+0x28>
    80001100:	000780e7          	jalr	a5
    80001104:	00040513          	mv	a0,s0
    80001108:	7ac0f0ef          	jal	ra,800108b4 <_exit>

000000008000110c <__libc_init_array>:
    8000110c:	fe010113          	addi	sp,sp,-32
    80001110:	00813823          	sd	s0,16(sp)
    80001114:	01213023          	sd	s2,0(sp)
    80001118:	00024437          	lui	s0,0x24
    8000111c:	00024937          	lui	s2,0x24
    80001120:	00440793          	addi	a5,s0,4 # 24004 <_start-0x7ffdc018>
    80001124:	00490913          	addi	s2,s2,4 # 24004 <_start-0x7ffdc018>
    80001128:	40f90933          	sub	s2,s2,a5
    8000112c:	00113c23          	sd	ra,24(sp)
    80001130:	00913423          	sd	s1,8(sp)
    80001134:	40395913          	srai	s2,s2,0x3
    80001138:	02090063          	beqz	s2,80001158 <__libc_init_array+0x4c>
    8000113c:	00440413          	addi	s0,s0,4
    80001140:	00000493          	li	s1,0
    80001144:	00043783          	ld	a5,0(s0)
    80001148:	00148493          	addi	s1,s1,1
    8000114c:	00840413          	addi	s0,s0,8
    80001150:	000780e7          	jalr	a5
    80001154:	fe9918e3          	bne	s2,s1,80001144 <__libc_init_array+0x38>
    80001158:	00024437          	lui	s0,0x24
    8000115c:	00024937          	lui	s2,0x24
    80001160:	00840793          	addi	a5,s0,8 # 24008 <_start-0x7ffdc014>
    80001164:	01890913          	addi	s2,s2,24 # 24018 <_start-0x7ffdc004>
    80001168:	40f90933          	sub	s2,s2,a5
    8000116c:	40395913          	srai	s2,s2,0x3
    80001170:	02090063          	beqz	s2,80001190 <__libc_init_array+0x84>
    80001174:	00840413          	addi	s0,s0,8
    80001178:	00000493          	li	s1,0
    8000117c:	00043783          	ld	a5,0(s0)
    80001180:	00148493          	addi	s1,s1,1
    80001184:	00840413          	addi	s0,s0,8
    80001188:	000780e7          	jalr	a5
    8000118c:	fe9918e3          	bne	s2,s1,8000117c <__libc_init_array+0x70>
    80001190:	01813083          	ld	ra,24(sp)
    80001194:	01013403          	ld	s0,16(sp)
    80001198:	00813483          	ld	s1,8(sp)
    8000119c:	00013903          	ld	s2,0(sp)
    800011a0:	02010113          	addi	sp,sp,32
    800011a4:	00008067          	ret

00000000800011a8 <memcpy>:
    800011a8:	00a5c7b3          	xor	a5,a1,a0
    800011ac:	0077f793          	andi	a5,a5,7
    800011b0:	00c508b3          	add	a7,a0,a2
    800011b4:	06079263          	bnez	a5,80001218 <memcpy+0x70>
    800011b8:	00700793          	li	a5,7
    800011bc:	04c7fe63          	bgeu	a5,a2,80001218 <memcpy+0x70>
    800011c0:	00757793          	andi	a5,a0,7
    800011c4:	00050713          	mv	a4,a0
    800011c8:	06079863          	bnez	a5,80001238 <memcpy+0x90>
    800011cc:	ff88f613          	andi	a2,a7,-8
    800011d0:	fc060793          	addi	a5,a2,-64
    800011d4:	08f76c63          	bltu	a4,a5,8000126c <memcpy+0xc4>
    800011d8:	02c77c63          	bgeu	a4,a2,80001210 <memcpy+0x68>
    800011dc:	00058693          	mv	a3,a1
    800011e0:	00070793          	mv	a5,a4
    800011e4:	0006b803          	ld	a6,0(a3)
    800011e8:	00878793          	addi	a5,a5,8
    800011ec:	00868693          	addi	a3,a3,8
    800011f0:	ff07bc23          	sd	a6,-8(a5)
    800011f4:	fec7e8e3          	bltu	a5,a2,800011e4 <memcpy+0x3c>
    800011f8:	fff60793          	addi	a5,a2,-1
    800011fc:	40e787b3          	sub	a5,a5,a4
    80001200:	ff87f793          	andi	a5,a5,-8
    80001204:	00878793          	addi	a5,a5,8
    80001208:	00f70733          	add	a4,a4,a5
    8000120c:	00f585b3          	add	a1,a1,a5
    80001210:	01176863          	bltu	a4,a7,80001220 <memcpy+0x78>
    80001214:	00008067          	ret
    80001218:	00050713          	mv	a4,a0
    8000121c:	ff157ce3          	bgeu	a0,a7,80001214 <memcpy+0x6c>
    80001220:	0005c783          	lbu	a5,0(a1)
    80001224:	00170713          	addi	a4,a4,1
    80001228:	00158593          	addi	a1,a1,1
    8000122c:	fef70fa3          	sb	a5,-1(a4)
    80001230:	ff1768e3          	bltu	a4,a7,80001220 <memcpy+0x78>
    80001234:	00008067          	ret
    80001238:	0005c683          	lbu	a3,0(a1)
    8000123c:	00170713          	addi	a4,a4,1
    80001240:	00777793          	andi	a5,a4,7
    80001244:	fed70fa3          	sb	a3,-1(a4)
    80001248:	00158593          	addi	a1,a1,1
    8000124c:	f80780e3          	beqz	a5,800011cc <memcpy+0x24>
    80001250:	0005c683          	lbu	a3,0(a1)
    80001254:	00170713          	addi	a4,a4,1
    80001258:	00777793          	andi	a5,a4,7
    8000125c:	fed70fa3          	sb	a3,-1(a4)
    80001260:	00158593          	addi	a1,a1,1
    80001264:	fc079ae3          	bnez	a5,80001238 <memcpy+0x90>
    80001268:	f65ff06f          	j	800011cc <memcpy+0x24>
    8000126c:	0085b683          	ld	a3,8(a1)
    80001270:	0005b283          	ld	t0,0(a1)
    80001274:	0105bf83          	ld	t6,16(a1)
    80001278:	0185bf03          	ld	t5,24(a1)
    8000127c:	0205be83          	ld	t4,32(a1)
    80001280:	0285be03          	ld	t3,40(a1)
    80001284:	0305b303          	ld	t1,48(a1)
    80001288:	0385b803          	ld	a6,56(a1)
    8000128c:	00d73423          	sd	a3,8(a4)
    80001290:	0405b683          	ld	a3,64(a1)
    80001294:	00573023          	sd	t0,0(a4)
    80001298:	01f73823          	sd	t6,16(a4)
    8000129c:	01e73c23          	sd	t5,24(a4)
    800012a0:	03d73023          	sd	t4,32(a4)
    800012a4:	03c73423          	sd	t3,40(a4)
    800012a8:	02673823          	sd	t1,48(a4)
    800012ac:	03073c23          	sd	a6,56(a4)
    800012b0:	04d73023          	sd	a3,64(a4)
    800012b4:	04870713          	addi	a4,a4,72
    800012b8:	04858593          	addi	a1,a1,72
    800012bc:	faf768e3          	bltu	a4,a5,8000126c <memcpy+0xc4>
    800012c0:	f19ff06f          	j	800011d8 <memcpy+0x30>

00000000800012c4 <memset>:
    800012c4:	00f00313          	li	t1,15
    800012c8:	00050713          	mv	a4,a0
    800012cc:	02c37a63          	bgeu	t1,a2,80001300 <memset+0x3c>
    800012d0:	00f77793          	andi	a5,a4,15
    800012d4:	0a079063          	bnez	a5,80001374 <memset+0xb0>
    800012d8:	06059e63          	bnez	a1,80001354 <memset+0x90>
    800012dc:	ff067693          	andi	a3,a2,-16
    800012e0:	00f67613          	andi	a2,a2,15
    800012e4:	00e686b3          	add	a3,a3,a4
    800012e8:	00b73023          	sd	a1,0(a4)
    800012ec:	00b73423          	sd	a1,8(a4)
    800012f0:	01070713          	addi	a4,a4,16
    800012f4:	fed76ae3          	bltu	a4,a3,800012e8 <memset+0x24>
    800012f8:	00061463          	bnez	a2,80001300 <memset+0x3c>
    800012fc:	00008067          	ret
    80001300:	40c306b3          	sub	a3,t1,a2
    80001304:	00269693          	slli	a3,a3,0x2
    80001308:	00000297          	auipc	t0,0x0
    8000130c:	005686b3          	add	a3,a3,t0
    80001310:	00c68067          	jr	12(a3)
    80001314:	00b70723          	sb	a1,14(a4)
    80001318:	00b706a3          	sb	a1,13(a4)
    8000131c:	00b70623          	sb	a1,12(a4)
    80001320:	00b705a3          	sb	a1,11(a4)
    80001324:	00b70523          	sb	a1,10(a4)
    80001328:	00b704a3          	sb	a1,9(a4)
    8000132c:	00b70423          	sb	a1,8(a4)
    80001330:	00b703a3          	sb	a1,7(a4)
    80001334:	00b70323          	sb	a1,6(a4)
    80001338:	00b702a3          	sb	a1,5(a4)
    8000133c:	00b70223          	sb	a1,4(a4)
    80001340:	00b701a3          	sb	a1,3(a4)
    80001344:	00b70123          	sb	a1,2(a4)
    80001348:	00b700a3          	sb	a1,1(a4)
    8000134c:	00b70023          	sb	a1,0(a4)
    80001350:	00008067          	ret
    80001354:	0ff5f593          	andi	a1,a1,255
    80001358:	00859693          	slli	a3,a1,0x8
    8000135c:	00d5e5b3          	or	a1,a1,a3
    80001360:	01059693          	slli	a3,a1,0x10
    80001364:	00d5e5b3          	or	a1,a1,a3
    80001368:	02059693          	slli	a3,a1,0x20
    8000136c:	00d5e5b3          	or	a1,a1,a3
    80001370:	f6dff06f          	j	800012dc <memset+0x18>
    80001374:	00279693          	slli	a3,a5,0x2
    80001378:	00000297          	auipc	t0,0x0
    8000137c:	005686b3          	add	a3,a3,t0
    80001380:	00008293          	mv	t0,ra
    80001384:	f98680e7          	jalr	-104(a3)
    80001388:	00028093          	mv	ra,t0
    8000138c:	ff078793          	addi	a5,a5,-16
    80001390:	40f70733          	sub	a4,a4,a5
    80001394:	00f60633          	add	a2,a2,a5
    80001398:	f6c374e3          	bgeu	t1,a2,80001300 <memset+0x3c>
    8000139c:	f3dff06f          	j	800012d8 <memset+0x14>

00000000800013a0 <_printf_r>:
    800013a0:	fb010113          	addi	sp,sp,-80
    800013a4:	02c13023          	sd	a2,32(sp)
    800013a8:	02d13423          	sd	a3,40(sp)
    800013ac:	02e13823          	sd	a4,48(sp)
    800013b0:	02f13c23          	sd	a5,56(sp)
    800013b4:	05013023          	sd	a6,64(sp)
    800013b8:	05113423          	sd	a7,72(sp)
    800013bc:	00058613          	mv	a2,a1
    800013c0:	01053583          	ld	a1,16(a0)
    800013c4:	02010693          	addi	a3,sp,32
    800013c8:	00113c23          	sd	ra,24(sp)
    800013cc:	00d13423          	sd	a3,8(sp)
    800013d0:	4b0000ef          	jal	ra,80001880 <_vfprintf_r>
    800013d4:	01813083          	ld	ra,24(sp)
    800013d8:	05010113          	addi	sp,sp,80
    800013dc:	00008067          	ret

00000000800013e0 <printf>:
    800013e0:	8401b303          	ld	t1,-1984(gp) # 80015160 <_impure_ptr>
    800013e4:	fa010113          	addi	sp,sp,-96
    800013e8:	02c13823          	sd	a2,48(sp)
    800013ec:	02d13c23          	sd	a3,56(sp)
    800013f0:	02b13423          	sd	a1,40(sp)
    800013f4:	04e13023          	sd	a4,64(sp)
    800013f8:	04f13423          	sd	a5,72(sp)
    800013fc:	05013823          	sd	a6,80(sp)
    80001400:	05113c23          	sd	a7,88(sp)
    80001404:	01033583          	ld	a1,16(t1) # 800000e4 <Proc_6+0x4>
    80001408:	02810693          	addi	a3,sp,40
    8000140c:	00050613          	mv	a2,a0
    80001410:	00030513          	mv	a0,t1
    80001414:	00113c23          	sd	ra,24(sp)
    80001418:	00d13423          	sd	a3,8(sp)
    8000141c:	464000ef          	jal	ra,80001880 <_vfprintf_r>
    80001420:	01813083          	ld	ra,24(sp)
    80001424:	06010113          	addi	sp,sp,96
    80001428:	00008067          	ret

000000008000142c <_putchar_r>:
    8000142c:	01053603          	ld	a2,16(a0)
    80001430:	0180006f          	j	80001448 <_putc_r>

0000000080001434 <putchar>:
    80001434:	8401b783          	ld	a5,-1984(gp) # 80015160 <_impure_ptr>
    80001438:	00050593          	mv	a1,a0
    8000143c:	0107b603          	ld	a2,16(a5)
    80001440:	00078513          	mv	a0,a5
    80001444:	0040006f          	j	80001448 <_putc_r>

0000000080001448 <_putc_r>:
    80001448:	fe010113          	addi	sp,sp,-32
    8000144c:	01213823          	sd	s2,16(sp)
    80001450:	00113c23          	sd	ra,24(sp)
    80001454:	00050913          	mv	s2,a0
    80001458:	00050663          	beqz	a0,80001464 <_putc_r+0x1c>
    8000145c:	05052783          	lw	a5,80(a0)
    80001460:	04078663          	beqz	a5,800014ac <_putc_r+0x64>
    80001464:	00c62783          	lw	a5,12(a2)
    80001468:	fff7871b          	addiw	a4,a5,-1
    8000146c:	00e62623          	sw	a4,12(a2)
    80001470:	00075c63          	bgez	a4,80001488 <_putc_r+0x40>
    80001474:	02862783          	lw	a5,40(a2)
    80001478:	04f74663          	blt	a4,a5,800014c4 <_putc_r+0x7c>
    8000147c:	0ff5f793          	andi	a5,a1,255
    80001480:	00a00713          	li	a4,10
    80001484:	04e78063          	beq	a5,a4,800014c4 <_putc_r+0x7c>
    80001488:	00063783          	ld	a5,0(a2)
    8000148c:	0ff5f513          	andi	a0,a1,255
    80001490:	00178713          	addi	a4,a5,1
    80001494:	00e63023          	sd	a4,0(a2)
    80001498:	00b78023          	sb	a1,0(a5)
    8000149c:	01813083          	ld	ra,24(sp)
    800014a0:	01013903          	ld	s2,16(sp)
    800014a4:	02010113          	addi	sp,sp,32
    800014a8:	00008067          	ret
    800014ac:	00c13423          	sd	a2,8(sp)
    800014b0:	00b13023          	sd	a1,0(sp)
    800014b4:	534030ef          	jal	ra,800049e8 <__sinit>
    800014b8:	00813603          	ld	a2,8(sp)
    800014bc:	00013583          	ld	a1,0(sp)
    800014c0:	fa5ff06f          	j	80001464 <_putc_r+0x1c>
    800014c4:	01813083          	ld	ra,24(sp)
    800014c8:	00090513          	mv	a0,s2
    800014cc:	01013903          	ld	s2,16(sp)
    800014d0:	02010113          	addi	sp,sp,32
    800014d4:	2590206f          	j	80003f2c <__swbuf_r>

00000000800014d8 <putc>:
    800014d8:	fe010113          	addi	sp,sp,-32
    800014dc:	01213023          	sd	s2,0(sp)
    800014e0:	8401b903          	ld	s2,-1984(gp) # 80015160 <_impure_ptr>
    800014e4:	00813823          	sd	s0,16(sp)
    800014e8:	00913423          	sd	s1,8(sp)
    800014ec:	00113c23          	sd	ra,24(sp)
    800014f0:	00050493          	mv	s1,a0
    800014f4:	00058413          	mv	s0,a1
    800014f8:	00090663          	beqz	s2,80001504 <putc+0x2c>
    800014fc:	05092783          	lw	a5,80(s2)
    80001500:	04078a63          	beqz	a5,80001554 <putc+0x7c>
    80001504:	00c42783          	lw	a5,12(s0)
    80001508:	fff7871b          	addiw	a4,a5,-1
    8000150c:	00e42623          	sw	a4,12(s0)
    80001510:	00075c63          	bgez	a4,80001528 <putc+0x50>
    80001514:	02842783          	lw	a5,40(s0)
    80001518:	04f74463          	blt	a4,a5,80001560 <putc+0x88>
    8000151c:	0ff4f793          	andi	a5,s1,255
    80001520:	00a00713          	li	a4,10
    80001524:	02e78e63          	beq	a5,a4,80001560 <putc+0x88>
    80001528:	00043783          	ld	a5,0(s0)
    8000152c:	0ff4f513          	andi	a0,s1,255
    80001530:	00178713          	addi	a4,a5,1
    80001534:	00e43023          	sd	a4,0(s0)
    80001538:	00978023          	sb	s1,0(a5)
    8000153c:	01813083          	ld	ra,24(sp)
    80001540:	01013403          	ld	s0,16(sp)
    80001544:	00813483          	ld	s1,8(sp)
    80001548:	00013903          	ld	s2,0(sp)
    8000154c:	02010113          	addi	sp,sp,32
    80001550:	00008067          	ret
    80001554:	00090513          	mv	a0,s2
    80001558:	490030ef          	jal	ra,800049e8 <__sinit>
    8000155c:	fa9ff06f          	j	80001504 <putc+0x2c>
    80001560:	00040613          	mv	a2,s0
    80001564:	01013403          	ld	s0,16(sp)
    80001568:	01813083          	ld	ra,24(sp)
    8000156c:	00048593          	mv	a1,s1
    80001570:	00090513          	mv	a0,s2
    80001574:	00813483          	ld	s1,8(sp)
    80001578:	00013903          	ld	s2,0(sp)
    8000157c:	02010113          	addi	sp,sp,32
    80001580:	1ad0206f          	j	80003f2c <__swbuf_r>

0000000080001584 <_puts_r>:
    80001584:	f9010113          	addi	sp,sp,-112
    80001588:	06813023          	sd	s0,96(sp)
    8000158c:	00050413          	mv	s0,a0
    80001590:	00058513          	mv	a0,a1
    80001594:	04913c23          	sd	s1,88(sp)
    80001598:	06113423          	sd	ra,104(sp)
    8000159c:	00058493          	mv	s1,a1
    800015a0:	1ec000ef          	jal	ra,8000178c <strlen>
    800015a4:	000237b7          	lui	a5,0x23
    800015a8:	e9878793          	addi	a5,a5,-360 # 22e98 <_start-0x7ffdd184>
    800015ac:	04f13023          	sd	a5,64(sp)
    800015b0:	00100793          	li	a5,1
    800015b4:	04f13423          	sd	a5,72(sp)
    800015b8:	05042703          	lw	a4,80(s0)
    800015bc:	03010793          	addi	a5,sp,48
    800015c0:	00150693          	addi	a3,a0,1
    800015c4:	00f13c23          	sd	a5,24(sp)
    800015c8:	00200793          	li	a5,2
    800015cc:	02913823          	sd	s1,48(sp)
    800015d0:	02a13c23          	sd	a0,56(sp)
    800015d4:	02d13423          	sd	a3,40(sp)
    800015d8:	02f12023          	sw	a5,32(sp)
    800015dc:	01043583          	ld	a1,16(s0)
    800015e0:	04070c63          	beqz	a4,80001638 <_puts_r+0xb4>
    800015e4:	01059783          	lh	a5,16(a1)
    800015e8:	03279713          	slli	a4,a5,0x32
    800015ec:	02074263          	bltz	a4,80001610 <_puts_r+0x8c>
    800015f0:	0ac5a703          	lw	a4,172(a1)
    800015f4:	000026b7          	lui	a3,0x2
    800015f8:	00d7e7b3          	or	a5,a5,a3
    800015fc:	ffffe6b7          	lui	a3,0xffffe
    80001600:	fff68693          	addi	a3,a3,-1 # ffffffffffffdfff <t0.2038+0xffffffff7ffc13b7>
    80001604:	00d77733          	and	a4,a4,a3
    80001608:	00f59823          	sh	a5,16(a1)
    8000160c:	0ae5a623          	sw	a4,172(a1)
    80001610:	01810613          	addi	a2,sp,24
    80001614:	00040513          	mv	a0,s0
    80001618:	0d1030ef          	jal	ra,80004ee8 <__sfvwrite_r>
    8000161c:	02051863          	bnez	a0,8000164c <_puts_r+0xc8>
    80001620:	00a00513          	li	a0,10
    80001624:	06813083          	ld	ra,104(sp)
    80001628:	06013403          	ld	s0,96(sp)
    8000162c:	05813483          	ld	s1,88(sp)
    80001630:	07010113          	addi	sp,sp,112
    80001634:	00008067          	ret
    80001638:	00040513          	mv	a0,s0
    8000163c:	00b13423          	sd	a1,8(sp)
    80001640:	3a8030ef          	jal	ra,800049e8 <__sinit>
    80001644:	00813583          	ld	a1,8(sp)
    80001648:	f9dff06f          	j	800015e4 <_puts_r+0x60>
    8000164c:	fff00513          	li	a0,-1
    80001650:	fd5ff06f          	j	80001624 <_puts_r+0xa0>

0000000080001654 <puts>:
    80001654:	00050593          	mv	a1,a0
    80001658:	8401b503          	ld	a0,-1984(gp) # 80015160 <_impure_ptr>
    8000165c:	f29ff06f          	j	80001584 <_puts_r>

0000000080001660 <strcmp>:
    80001660:	00b56733          	or	a4,a0,a1
    80001664:	fff00393          	li	t2,-1
    80001668:	00777713          	andi	a4,a4,7
    8000166c:	0c071c63          	bnez	a4,80001744 <strcmp+0xe4>
    80001670:	00014797          	auipc	a5,0x14
    80001674:	a007b783          	ld	a5,-1536(a5) # 80015070 <__malloc_av_+0x760>
    80001678:	00053603          	ld	a2,0(a0)
    8000167c:	0005b683          	ld	a3,0(a1)
    80001680:	00f672b3          	and	t0,a2,a5
    80001684:	00f66333          	or	t1,a2,a5
    80001688:	00f282b3          	add	t0,t0,a5
    8000168c:	0062e2b3          	or	t0,t0,t1
    80001690:	0c729e63          	bne	t0,t2,8000176c <strcmp+0x10c>
    80001694:	04d61663          	bne	a2,a3,800016e0 <strcmp+0x80>
    80001698:	00853603          	ld	a2,8(a0)
    8000169c:	0085b683          	ld	a3,8(a1)
    800016a0:	00f672b3          	and	t0,a2,a5
    800016a4:	00f66333          	or	t1,a2,a5
    800016a8:	00f282b3          	add	t0,t0,a5
    800016ac:	0062e2b3          	or	t0,t0,t1
    800016b0:	0a729a63          	bne	t0,t2,80001764 <strcmp+0x104>
    800016b4:	02d61663          	bne	a2,a3,800016e0 <strcmp+0x80>
    800016b8:	01053603          	ld	a2,16(a0)
    800016bc:	0105b683          	ld	a3,16(a1)
    800016c0:	00f672b3          	and	t0,a2,a5
    800016c4:	00f66333          	or	t1,a2,a5
    800016c8:	00f282b3          	add	t0,t0,a5
    800016cc:	0062e2b3          	or	t0,t0,t1
    800016d0:	0a729463          	bne	t0,t2,80001778 <strcmp+0x118>
    800016d4:	01850513          	addi	a0,a0,24
    800016d8:	01858593          	addi	a1,a1,24
    800016dc:	f8d60ee3          	beq	a2,a3,80001678 <strcmp+0x18>
    800016e0:	03061713          	slli	a4,a2,0x30
    800016e4:	03069793          	slli	a5,a3,0x30
    800016e8:	02f71a63          	bne	a4,a5,8000171c <strcmp+0xbc>
    800016ec:	02061713          	slli	a4,a2,0x20
    800016f0:	02069793          	slli	a5,a3,0x20
    800016f4:	02f71463          	bne	a4,a5,8000171c <strcmp+0xbc>
    800016f8:	01061713          	slli	a4,a2,0x10
    800016fc:	01069793          	slli	a5,a3,0x10
    80001700:	00f71e63          	bne	a4,a5,8000171c <strcmp+0xbc>
    80001704:	03065713          	srli	a4,a2,0x30
    80001708:	0306d793          	srli	a5,a3,0x30
    8000170c:	40f70533          	sub	a0,a4,a5
    80001710:	0ff57593          	andi	a1,a0,255
    80001714:	02059063          	bnez	a1,80001734 <strcmp+0xd4>
    80001718:	00008067          	ret
    8000171c:	03075713          	srli	a4,a4,0x30
    80001720:	0307d793          	srli	a5,a5,0x30
    80001724:	40f70533          	sub	a0,a4,a5
    80001728:	0ff57593          	andi	a1,a0,255
    8000172c:	00059463          	bnez	a1,80001734 <strcmp+0xd4>
    80001730:	00008067          	ret
    80001734:	0ff77713          	andi	a4,a4,255
    80001738:	0ff7f793          	andi	a5,a5,255
    8000173c:	40f70533          	sub	a0,a4,a5
    80001740:	00008067          	ret
    80001744:	00054603          	lbu	a2,0(a0)
    80001748:	0005c683          	lbu	a3,0(a1)
    8000174c:	00150513          	addi	a0,a0,1
    80001750:	00158593          	addi	a1,a1,1
    80001754:	00d61463          	bne	a2,a3,8000175c <strcmp+0xfc>
    80001758:	fe0616e3          	bnez	a2,80001744 <strcmp+0xe4>
    8000175c:	40d60533          	sub	a0,a2,a3
    80001760:	00008067          	ret
    80001764:	00850513          	addi	a0,a0,8
    80001768:	00858593          	addi	a1,a1,8
    8000176c:	fcd61ce3          	bne	a2,a3,80001744 <strcmp+0xe4>
    80001770:	00000513          	li	a0,0
    80001774:	00008067          	ret
    80001778:	01050513          	addi	a0,a0,16
    8000177c:	01058593          	addi	a1,a1,16
    80001780:	fcd612e3          	bne	a2,a3,80001744 <strcmp+0xe4>
    80001784:	00000513          	li	a0,0
    80001788:	00008067          	ret

000000008000178c <strlen>:
    8000178c:	00757793          	andi	a5,a0,7
    80001790:	00050713          	mv	a4,a0
    80001794:	06079c63          	bnez	a5,8000180c <strlen+0x80>
    80001798:	000257b7          	lui	a5,0x25
    8000179c:	1207b683          	ld	a3,288(a5) # 25120 <_start-0x7ffdaefc>
    800017a0:	fff00593          	li	a1,-1
    800017a4:	00073603          	ld	a2,0(a4)
    800017a8:	00870713          	addi	a4,a4,8
    800017ac:	00d677b3          	and	a5,a2,a3
    800017b0:	00d787b3          	add	a5,a5,a3
    800017b4:	00c7e7b3          	or	a5,a5,a2
    800017b8:	00d7e7b3          	or	a5,a5,a3
    800017bc:	feb784e3          	beq	a5,a1,800017a4 <strlen+0x18>
    800017c0:	ff874683          	lbu	a3,-8(a4)
    800017c4:	40a707b3          	sub	a5,a4,a0
    800017c8:	06068463          	beqz	a3,80001830 <strlen+0xa4>
    800017cc:	ff974683          	lbu	a3,-7(a4)
    800017d0:	04068c63          	beqz	a3,80001828 <strlen+0x9c>
    800017d4:	ffa74683          	lbu	a3,-6(a4)
    800017d8:	06068463          	beqz	a3,80001840 <strlen+0xb4>
    800017dc:	ffb74683          	lbu	a3,-5(a4)
    800017e0:	04068c63          	beqz	a3,80001838 <strlen+0xac>
    800017e4:	ffc74683          	lbu	a3,-4(a4)
    800017e8:	ffd74603          	lbu	a2,-3(a4)
    800017ec:	ffe74503          	lbu	a0,-2(a4)
    800017f0:	04068c63          	beqz	a3,80001848 <strlen+0xbc>
    800017f4:	04060e63          	beqz	a2,80001850 <strlen+0xc4>
    800017f8:	00a03533          	snez	a0,a0
    800017fc:	00f50533          	add	a0,a0,a5
    80001800:	ffe50513          	addi	a0,a0,-2
    80001804:	00008067          	ret
    80001808:	f80688e3          	beqz	a3,80001798 <strlen+0xc>
    8000180c:	00074783          	lbu	a5,0(a4)
    80001810:	00170713          	addi	a4,a4,1
    80001814:	00777693          	andi	a3,a4,7
    80001818:	fe0798e3          	bnez	a5,80001808 <strlen+0x7c>
    8000181c:	40a70733          	sub	a4,a4,a0
    80001820:	fff70513          	addi	a0,a4,-1
    80001824:	00008067          	ret
    80001828:	ff978513          	addi	a0,a5,-7
    8000182c:	00008067          	ret
    80001830:	ff878513          	addi	a0,a5,-8
    80001834:	00008067          	ret
    80001838:	ffb78513          	addi	a0,a5,-5
    8000183c:	00008067          	ret
    80001840:	ffa78513          	addi	a0,a5,-6
    80001844:	00008067          	ret
    80001848:	ffc78513          	addi	a0,a5,-4
    8000184c:	00008067          	ret
    80001850:	ffd78513          	addi	a0,a5,-3
    80001854:	00008067          	ret

0000000080001858 <times>:
    80001858:	00050593          	mv	a1,a0
    8000185c:	8401b503          	ld	a0,-1984(gp) # 80015160 <_impure_ptr>
    80001860:	0040006f          	j	80001864 <_times_r>

0000000080001864 <_times_r>:
    80001864:	ff010113          	addi	sp,sp,-16
    80001868:	00058513          	mv	a0,a1
    8000186c:	00113423          	sd	ra,8(sp)
    80001870:	2a40f0ef          	jal	ra,80010b14 <_times>
    80001874:	00813083          	ld	ra,8(sp)
    80001878:	01010113          	addi	sp,sp,16
    8000187c:	00008067          	ret

0000000080001880 <_vfprintf_r>:
    80001880:	d8010113          	addi	sp,sp,-640
    80001884:	26113c23          	sd	ra,632(sp)
    80001888:	25613023          	sd	s6,576(sp)
    8000188c:	23713c23          	sd	s7,568(sp)
    80001890:	23813823          	sd	s8,560(sp)
    80001894:	00058b93          	mv	s7,a1
    80001898:	00060b13          	mv	s6,a2
    8000189c:	00d13423          	sd	a3,8(sp)
    800018a0:	26813823          	sd	s0,624(sp)
    800018a4:	26913423          	sd	s1,616(sp)
    800018a8:	27213023          	sd	s2,608(sp)
    800018ac:	25313c23          	sd	s3,600(sp)
    800018b0:	25413823          	sd	s4,592(sp)
    800018b4:	25513423          	sd	s5,584(sp)
    800018b8:	23913423          	sd	s9,552(sp)
    800018bc:	23a13023          	sd	s10,544(sp)
    800018c0:	21b13c23          	sd	s11,536(sp)
    800018c4:	00050c13          	mv	s8,a0
    800018c8:	039060ef          	jal	ra,80008100 <_localeconv_r>
    800018cc:	00053783          	ld	a5,0(a0)
    800018d0:	00078513          	mv	a0,a5
    800018d4:	04f13023          	sd	a5,64(sp)
    800018d8:	eb5ff0ef          	jal	ra,8000178c <strlen>
    800018dc:	02a13c23          	sd	a0,56(sp)
    800018e0:	10013023          	sd	zero,256(sp)
    800018e4:	10013423          	sd	zero,264(sp)
    800018e8:	000c0663          	beqz	s8,800018f4 <_vfprintf_r+0x74>
    800018ec:	050c2783          	lw	a5,80(s8)
    800018f0:	7c078663          	beqz	a5,800020bc <_vfprintf_r+0x83c>
    800018f4:	010b9703          	lh	a4,16(s7)
    800018f8:	000026b7          	lui	a3,0x2
    800018fc:	03071793          	slli	a5,a4,0x30
    80001900:	0307d793          	srli	a5,a5,0x30
    80001904:	00d7f633          	and	a2,a5,a3
    80001908:	02061863          	bnez	a2,80001938 <_vfprintf_r+0xb8>
    8000190c:	0acba603          	lw	a2,172(s7)
    80001910:	00d767b3          	or	a5,a4,a3
    80001914:	0107979b          	slliw	a5,a5,0x10
    80001918:	ffffe737          	lui	a4,0xffffe
    8000191c:	4107d79b          	sraiw	a5,a5,0x10
    80001920:	fff70713          	addi	a4,a4,-1 # ffffffffffffdfff <t0.2038+0xffffffff7ffc13b7>
    80001924:	00e67733          	and	a4,a2,a4
    80001928:	00fb9823          	sh	a5,16(s7)
    8000192c:	03079793          	slli	a5,a5,0x30
    80001930:	0aeba623          	sw	a4,172(s7)
    80001934:	0307d793          	srli	a5,a5,0x30
    80001938:	0087f713          	andi	a4,a5,8
    8000193c:	32070a63          	beqz	a4,80001c70 <_vfprintf_r+0x3f0>
    80001940:	018bb703          	ld	a4,24(s7)
    80001944:	32070663          	beqz	a4,80001c70 <_vfprintf_r+0x3f0>
    80001948:	01a7f793          	andi	a5,a5,26
    8000194c:	00a00713          	li	a4,10
    80001950:	34e78263          	beq	a5,a4,80001c94 <_vfprintf_r+0x414>
    80001954:	000237b7          	lui	a5,0x23
    80001958:	0b87b783          	ld	a5,184(a5) # 230b8 <_start-0x7ffdcf64>
    8000195c:	000b0d13          	mv	s10,s6
    80001960:	12013023          	sd	zero,288(sp)
    80001964:	08f13423          	sd	a5,136(sp)
    80001968:	000237b7          	lui	a5,0x23
    8000196c:	0987b783          	ld	a5,152(a5) # 23098 <_start-0x7ffdcf84>
    80001970:	10012c23          	sw	zero,280(sp)
    80001974:	02013023          	sd	zero,32(sp)
    80001978:	08f13023          	sd	a5,128(sp)
    8000197c:	000237b7          	lui	a5,0x23
    80001980:	0a87b783          	ld	a5,168(a5) # 230a8 <_start-0x7ffdcf74>
    80001984:	04013423          	sd	zero,72(sp)
    80001988:	04013823          	sd	zero,80(sp)
    8000198c:	08f13823          	sd	a5,144(sp)
    80001990:	19010793          	addi	a5,sp,400
    80001994:	10f13823          	sd	a5,272(sp)
    80001998:	00078313          	mv	t1,a5
    8000199c:	000d4783          	lbu	a5,0(s10)
    800019a0:	06013023          	sd	zero,96(sp)
    800019a4:	06013c23          	sd	zero,120(sp)
    800019a8:	04013c23          	sd	zero,88(sp)
    800019ac:	00013023          	sd	zero,0(sp)
    800019b0:	24078a63          	beqz	a5,80001c04 <_vfprintf_r+0x384>
    800019b4:	000d0413          	mv	s0,s10
    800019b8:	02500713          	li	a4,37
    800019bc:	2ee78e63          	beq	a5,a4,80001cb8 <_vfprintf_r+0x438>
    800019c0:	00144783          	lbu	a5,1(s0)
    800019c4:	00140413          	addi	s0,s0,1
    800019c8:	fe079ae3          	bnez	a5,800019bc <_vfprintf_r+0x13c>
    800019cc:	41a404bb          	subw	s1,s0,s10
    800019d0:	22048a63          	beqz	s1,80001c04 <_vfprintf_r+0x384>
    800019d4:	12013703          	ld	a4,288(sp)
    800019d8:	11812783          	lw	a5,280(sp)
    800019dc:	01a33023          	sd	s10,0(t1)
    800019e0:	00970733          	add	a4,a4,s1
    800019e4:	0017879b          	addiw	a5,a5,1
    800019e8:	00933423          	sd	s1,8(t1)
    800019ec:	12e13023          	sd	a4,288(sp)
    800019f0:	10f12c23          	sw	a5,280(sp)
    800019f4:	0007871b          	sext.w	a4,a5
    800019f8:	00700793          	li	a5,7
    800019fc:	01030313          	addi	t1,t1,16
    80001a00:	2ce7c463          	blt	a5,a4,80001cc8 <_vfprintf_r+0x448>
    80001a04:	00013703          	ld	a4,0(sp)
    80001a08:	00044783          	lbu	a5,0(s0)
    80001a0c:	0097073b          	addw	a4,a4,s1
    80001a10:	00e13023          	sd	a4,0(sp)
    80001a14:	1e078863          	beqz	a5,80001c04 <_vfprintf_r+0x384>
    80001a18:	000237b7          	lui	a5,0x23
    80001a1c:	00144e83          	lbu	t4,1(s0)
    80001a20:	0c010fa3          	sb	zero,223(sp)
    80001a24:	00140413          	addi	s0,s0,1
    80001a28:	fff00a93          	li	s5,-1
    80001a2c:	00000913          	li	s2,0
    80001a30:	00000493          	li	s1,0
    80001a34:	05a00993          	li	s3,90
    80001a38:	f0078a13          	addi	s4,a5,-256 # 22f00 <_start-0x7ffdd11c>
    80001a3c:	00900b13          	li	s6,9
    80001a40:	00030c93          	mv	s9,t1
    80001a44:	00140413          	addi	s0,s0,1
    80001a48:	000e8d9b          	sext.w	s11,t4
    80001a4c:	02a00693          	li	a3,42
    80001a50:	fe0d879b          	addiw	a5,s11,-32
    80001a54:	0007871b          	sext.w	a4,a5
    80001a58:	04e9e863          	bltu	s3,a4,80001aa8 <_vfprintf_r+0x228>
    80001a5c:	02079793          	slli	a5,a5,0x20
    80001a60:	01e7d793          	srli	a5,a5,0x1e
    80001a64:	014787b3          	add	a5,a5,s4
    80001a68:	0007a783          	lw	a5,0(a5)
    80001a6c:	00078067          	jr	a5
    80001a70:	00000913          	li	s2,0
    80001a74:	00044703          	lbu	a4,0(s0)
    80001a78:	0029179b          	slliw	a5,s2,0x2
    80001a7c:	0127893b          	addw	s2,a5,s2
    80001a80:	fd0d8d9b          	addiw	s11,s11,-48
    80001a84:	0019191b          	slliw	s2,s2,0x1
    80001a88:	fd07079b          	addiw	a5,a4,-48
    80001a8c:	012d893b          	addw	s2,s11,s2
    80001a90:	00140413          	addi	s0,s0,1
    80001a94:	00070d9b          	sext.w	s11,a4
    80001a98:	fcfb7ee3          	bgeu	s6,a5,80001a74 <_vfprintf_r+0x1f4>
    80001a9c:	fe0d879b          	addiw	a5,s11,-32
    80001aa0:	0007871b          	sext.w	a4,a5
    80001aa4:	fae9fce3          	bgeu	s3,a4,80001a5c <_vfprintf_r+0x1dc>
    80001aa8:	000c8313          	mv	t1,s9
    80001aac:	140d8c63          	beqz	s11,80001c04 <_vfprintf_r+0x384>
    80001ab0:	13b10423          	sb	s11,296(sp)
    80001ab4:	0c010fa3          	sb	zero,223(sp)
    80001ab8:	00100993          	li	s3,1
    80001abc:	00100a13          	li	s4,1
    80001ac0:	12810d13          	addi	s10,sp,296
    80001ac4:	00013823          	sd	zero,16(sp)
    80001ac8:	00000a93          	li	s5,0
    80001acc:	02013823          	sd	zero,48(sp)
    80001ad0:	02013423          	sd	zero,40(sp)
    80001ad4:	00013c23          	sd	zero,24(sp)
    80001ad8:	0024fc93          	andi	s9,s1,2
    80001adc:	000c8463          	beqz	s9,80001ae4 <_vfprintf_r+0x264>
    80001ae0:	0029899b          	addiw	s3,s3,2
    80001ae4:	0844fb13          	andi	s6,s1,132
    80001ae8:	12013783          	ld	a5,288(sp)
    80001aec:	000b1663          	bnez	s6,80001af8 <_vfprintf_r+0x278>
    80001af0:	413906bb          	subw	a3,s2,s3
    80001af4:	4ed046e3          	bgtz	a3,800027e0 <_vfprintf_r+0xf60>
    80001af8:	0df14703          	lbu	a4,223(sp)
    80001afc:	02070c63          	beqz	a4,80001b34 <_vfprintf_r+0x2b4>
    80001b00:	11812703          	lw	a4,280(sp)
    80001b04:	0df10693          	addi	a3,sp,223
    80001b08:	00d33023          	sd	a3,0(t1)
    80001b0c:	0017071b          	addiw	a4,a4,1
    80001b10:	00100693          	li	a3,1
    80001b14:	00178793          	addi	a5,a5,1
    80001b18:	00d33423          	sd	a3,8(t1)
    80001b1c:	10e12c23          	sw	a4,280(sp)
    80001b20:	0007069b          	sext.w	a3,a4
    80001b24:	12f13023          	sd	a5,288(sp)
    80001b28:	00700713          	li	a4,7
    80001b2c:	01030313          	addi	t1,t1,16
    80001b30:	44d74e63          	blt	a4,a3,80001f8c <_vfprintf_r+0x70c>
    80001b34:	020c8c63          	beqz	s9,80001b6c <_vfprintf_r+0x2ec>
    80001b38:	11812703          	lw	a4,280(sp)
    80001b3c:	0e010693          	addi	a3,sp,224
    80001b40:	00d33023          	sd	a3,0(t1)
    80001b44:	0017071b          	addiw	a4,a4,1
    80001b48:	00200693          	li	a3,2
    80001b4c:	00278793          	addi	a5,a5,2
    80001b50:	00d33423          	sd	a3,8(t1)
    80001b54:	10e12c23          	sw	a4,280(sp)
    80001b58:	0007069b          	sext.w	a3,a4
    80001b5c:	12f13023          	sd	a5,288(sp)
    80001b60:	00700713          	li	a4,7
    80001b64:	01030313          	addi	t1,t1,16
    80001b68:	58d748e3          	blt	a4,a3,800028f8 <_vfprintf_r+0x1078>
    80001b6c:	08000713          	li	a4,128
    80001b70:	2ceb06e3          	beq	s6,a4,8000263c <_vfprintf_r+0xdbc>
    80001b74:	414a8abb          	subw	s5,s5,s4
    80001b78:	395044e3          	bgtz	s5,80002700 <_vfprintf_r+0xe80>
    80001b7c:	1004f713          	andi	a4,s1,256
    80001b80:	18071ee3          	bnez	a4,8000251c <_vfprintf_r+0xc9c>
    80001b84:	11812703          	lw	a4,280(sp)
    80001b88:	014787b3          	add	a5,a5,s4
    80001b8c:	01a33023          	sd	s10,0(t1)
    80001b90:	0017069b          	addiw	a3,a4,1
    80001b94:	00068713          	mv	a4,a3
    80001b98:	01433423          	sd	s4,8(t1)
    80001b9c:	10e12c23          	sw	a4,280(sp)
    80001ba0:	12f13023          	sd	a5,288(sp)
    80001ba4:	00700713          	li	a4,7
    80001ba8:	4ed74a63          	blt	a4,a3,8000209c <_vfprintf_r+0x81c>
    80001bac:	01030313          	addi	t1,t1,16
    80001bb0:	0044f493          	andi	s1,s1,4
    80001bb4:	00048663          	beqz	s1,80001bc0 <_vfprintf_r+0x340>
    80001bb8:	413904bb          	subw	s1,s2,s3
    80001bbc:	54904ee3          	bgtz	s1,80002918 <_vfprintf_r+0x1098>
    80001bc0:	00090713          	mv	a4,s2
    80001bc4:	01395463          	bge	s2,s3,80001bcc <_vfprintf_r+0x34c>
    80001bc8:	00098713          	mv	a4,s3
    80001bcc:	00013683          	ld	a3,0(sp)
    80001bd0:	00d7073b          	addw	a4,a4,a3
    80001bd4:	00e13023          	sd	a4,0(sp)
    80001bd8:	3e0790e3          	bnez	a5,800027b8 <_vfprintf_r+0xf38>
    80001bdc:	01013783          	ld	a5,16(sp)
    80001be0:	10012c23          	sw	zero,280(sp)
    80001be4:	00078863          	beqz	a5,80001bf4 <_vfprintf_r+0x374>
    80001be8:	01013583          	ld	a1,16(sp)
    80001bec:	000c0513          	mv	a0,s8
    80001bf0:	7d1020ef          	jal	ra,80004bc0 <_free_r>
    80001bf4:	19010313          	addi	t1,sp,400
    80001bf8:	00040d13          	mv	s10,s0
    80001bfc:	000d4783          	lbu	a5,0(s10)
    80001c00:	da079ae3          	bnez	a5,800019b4 <_vfprintf_r+0x134>
    80001c04:	12013783          	ld	a5,288(sp)
    80001c08:	00078463          	beqz	a5,80001c10 <_vfprintf_r+0x390>
    80001c0c:	1050106f          	j	80003510 <_vfprintf_r+0x1c90>
    80001c10:	010bd783          	lhu	a5,16(s7)
    80001c14:	0407f793          	andi	a5,a5,64
    80001c18:	00078463          	beqz	a5,80001c20 <_vfprintf_r+0x3a0>
    80001c1c:	64d0106f          	j	80003a68 <_vfprintf_r+0x21e8>
    80001c20:	27813083          	ld	ra,632(sp)
    80001c24:	27013403          	ld	s0,624(sp)
    80001c28:	00013503          	ld	a0,0(sp)
    80001c2c:	26813483          	ld	s1,616(sp)
    80001c30:	26013903          	ld	s2,608(sp)
    80001c34:	25813983          	ld	s3,600(sp)
    80001c38:	25013a03          	ld	s4,592(sp)
    80001c3c:	24813a83          	ld	s5,584(sp)
    80001c40:	24013b03          	ld	s6,576(sp)
    80001c44:	23813b83          	ld	s7,568(sp)
    80001c48:	23013c03          	ld	s8,560(sp)
    80001c4c:	22813c83          	ld	s9,552(sp)
    80001c50:	22013d03          	ld	s10,544(sp)
    80001c54:	21813d83          	ld	s11,536(sp)
    80001c58:	28010113          	addi	sp,sp,640
    80001c5c:	00008067          	ret
    80001c60:	0104e493          	ori	s1,s1,16
    80001c64:	00044e83          	lbu	t4,0(s0)
    80001c68:	0004849b          	sext.w	s1,s1
    80001c6c:	dd9ff06f          	j	80001a44 <_vfprintf_r+0x1c4>
    80001c70:	000b8593          	mv	a1,s7
    80001c74:	000c0513          	mv	a0,s8
    80001c78:	450020ef          	jal	ra,800040c8 <__swsetup_r>
    80001c7c:	00050463          	beqz	a0,80001c84 <_vfprintf_r+0x404>
    80001c80:	5e90106f          	j	80003a68 <_vfprintf_r+0x21e8>
    80001c84:	010bd783          	lhu	a5,16(s7)
    80001c88:	00a00713          	li	a4,10
    80001c8c:	01a7f793          	andi	a5,a5,26
    80001c90:	cce792e3          	bne	a5,a4,80001954 <_vfprintf_r+0xd4>
    80001c94:	012b9783          	lh	a5,18(s7)
    80001c98:	ca07cee3          	bltz	a5,80001954 <_vfprintf_r+0xd4>
    80001c9c:	00813683          	ld	a3,8(sp)
    80001ca0:	000b0613          	mv	a2,s6
    80001ca4:	000b8593          	mv	a1,s7
    80001ca8:	000c0513          	mv	a0,s8
    80001cac:	1c0020ef          	jal	ra,80003e6c <vfprintf+0x18>
    80001cb0:	00a13023          	sd	a0,0(sp)
    80001cb4:	f6dff06f          	j	80001c20 <_vfprintf_r+0x3a0>
    80001cb8:	41a404bb          	subw	s1,s0,s10
    80001cbc:	d0049ce3          	bnez	s1,800019d4 <_vfprintf_r+0x154>
    80001cc0:	00044783          	lbu	a5,0(s0)
    80001cc4:	d51ff06f          	j	80001a14 <_vfprintf_r+0x194>
    80001cc8:	11010613          	addi	a2,sp,272
    80001ccc:	000b8593          	mv	a1,s7
    80001cd0:	000c0513          	mv	a0,s8
    80001cd4:	5c80b0ef          	jal	ra,8000d29c <__sprint_r>
    80001cd8:	f2051ce3          	bnez	a0,80001c10 <_vfprintf_r+0x390>
    80001cdc:	19010313          	addi	t1,sp,400
    80001ce0:	d25ff06f          	j	80001a04 <_vfprintf_r+0x184>
    80001ce4:	0084f793          	andi	a5,s1,8
    80001ce8:	000c8313          	mv	t1,s9
    80001cec:	00078463          	beqz	a5,80001cf4 <_vfprintf_r+0x474>
    80001cf0:	7e10006f          	j	80002cd0 <_vfprintf_r+0x1450>
    80001cf4:	00813783          	ld	a5,8(sp)
    80001cf8:	01913823          	sd	s9,16(sp)
    80001cfc:	0007b503          	ld	a0,0(a5)
    80001d00:	00878c93          	addi	s9,a5,8
    80001d04:	01913423          	sd	s9,8(sp)
    80001d08:	7b4100ef          	jal	ra,800124bc <__extenddftf2>
    80001d0c:	01013303          	ld	t1,16(sp)
    80001d10:	10a13023          	sd	a0,256(sp)
    80001d14:	10b13423          	sd	a1,264(sp)
    80001d18:	10010513          	addi	a0,sp,256
    80001d1c:	00613823          	sd	t1,16(sp)
    80001d20:	370060ef          	jal	ra,80008090 <_ldcheck>
    80001d24:	0ea12423          	sw	a0,232(sp)
    80001d28:	00200793          	li	a5,2
    80001d2c:	01013303          	ld	t1,16(sp)
    80001d30:	00f51463          	bne	a0,a5,80001d38 <_vfprintf_r+0x4b8>
    80001d34:	3340106f          	j	80003068 <_vfprintf_r+0x17e8>
    80001d38:	00100793          	li	a5,1
    80001d3c:	00f51463          	bne	a0,a5,80001d44 <_vfprintf_r+0x4c4>
    80001d40:	4800106f          	j	800031c0 <_vfprintf_r+0x1940>
    80001d44:	06100793          	li	a5,97
    80001d48:	00fd9463          	bne	s11,a5,80001d50 <_vfprintf_r+0x4d0>
    80001d4c:	5e10106f          	j	80003b2c <_vfprintf_r+0x22ac>
    80001d50:	04100793          	li	a5,65
    80001d54:	00fd9463          	bne	s11,a5,80001d5c <_vfprintf_r+0x4dc>
    80001d58:	7f40106f          	j	8000354c <_vfprintf_r+0x1ccc>
    80001d5c:	fdfdf713          	andi	a4,s11,-33
    80001d60:	fff00793          	li	a5,-1
    80001d64:	02e13423          	sd	a4,40(sp)
    80001d68:	00fa9463          	bne	s5,a5,80001d70 <_vfprintf_r+0x4f0>
    80001d6c:	6b90106f          	j	80003c24 <_vfprintf_r+0x23a4>
    80001d70:	04700793          	li	a5,71
    80001d74:	00f71463          	bne	a4,a5,80001d7c <_vfprintf_r+0x4fc>
    80001d78:	69d0106f          	j	80003c14 <_vfprintf_r+0x2394>
    80001d7c:	10813a03          	ld	s4,264(sp)
    80001d80:	1004e793          	ori	a5,s1,256
    80001d84:	02913823          	sd	s1,48(sp)
    80001d88:	10013b03          	ld	s6,256(sp)
    80001d8c:	0007879b          	sext.w	a5,a5
    80001d90:	000a5463          	bgez	s4,80001d98 <_vfprintf_r+0x518>
    80001d94:	2b10106f          	j	80003844 <_vfprintf_r+0x1fc4>
    80001d98:	06013423          	sd	zero,104(sp)
    80001d9c:	00078493          	mv	s1,a5
    80001da0:	00013823          	sd	zero,16(sp)
    80001da4:	02813703          	ld	a4,40(sp)
    80001da8:	04600793          	li	a5,70
    80001dac:	00f71463          	bne	a4,a5,80001db4 <_vfprintf_r+0x534>
    80001db0:	2dd0106f          	j	8000388c <_vfprintf_r+0x200c>
    80001db4:	04500793          	li	a5,69
    80001db8:	00613c23          	sd	t1,24(sp)
    80001dbc:	00f71463          	bne	a4,a5,80001dc4 <_vfprintf_r+0x544>
    80001dc0:	58d0106f          	j	80003b4c <_vfprintf_r+0x22cc>
    80001dc4:	0e810793          	addi	a5,sp,232
    80001dc8:	000a8713          	mv	a4,s5
    80001dcc:	0f810893          	addi	a7,sp,248
    80001dd0:	0ec10813          	addi	a6,sp,236
    80001dd4:	00200693          	li	a3,2
    80001dd8:	000b0593          	mv	a1,s6
    80001ddc:	000a0613          	mv	a2,s4
    80001de0:	000c0513          	mv	a0,s8
    80001de4:	060050ef          	jal	ra,80006e44 <_ldtoa_r>
    80001de8:	02813703          	ld	a4,40(sp)
    80001dec:	04700793          	li	a5,71
    80001df0:	01813303          	ld	t1,24(sp)
    80001df4:	00050d13          	mv	s10,a0
    80001df8:	00f70463          	beq	a4,a5,80001e00 <_vfprintf_r+0x580>
    80001dfc:	03c0206f          	j	80003e38 <_vfprintf_r+0x25b8>
    80001e00:	03013783          	ld	a5,48(sp)
    80001e04:	0017f793          	andi	a5,a5,1
    80001e08:	00078463          	beqz	a5,80001e10 <_vfprintf_r+0x590>
    80001e0c:	5390106f          	j	80003b44 <_vfprintf_r+0x22c4>
    80001e10:	0f813683          	ld	a3,248(sp)
    80001e14:	41a687bb          	subw	a5,a3,s10
    80001e18:	02f13023          	sd	a5,32(sp)
    80001e1c:	0e812703          	lw	a4,232(sp)
    80001e20:	04700793          	li	a5,71
    80001e24:	00e13c23          	sd	a4,24(sp)
    80001e28:	02813703          	ld	a4,40(sp)
    80001e2c:	00f71463          	bne	a4,a5,80001e34 <_vfprintf_r+0x5b4>
    80001e30:	1810106f          	j	800037b0 <_vfprintf_r+0x1f30>
    80001e34:	02813703          	ld	a4,40(sp)
    80001e38:	04600793          	li	a5,70
    80001e3c:	00f71463          	bne	a4,a5,80001e44 <_vfprintf_r+0x5c4>
    80001e40:	3810106f          	j	800039c0 <_vfprintf_r+0x2140>
    80001e44:	01813783          	ld	a5,24(sp)
    80001e48:	02813583          	ld	a1,40(sp)
    80001e4c:	04100613          	li	a2,65
    80001e50:	fff7879b          	addiw	a5,a5,-1
    80001e54:	0ef12423          	sw	a5,232(sp)
    80001e58:	0ffdf713          	andi	a4,s11,255
    80001e5c:	00000693          	li	a3,0
    80001e60:	00c59863          	bne	a1,a2,80001e70 <_vfprintf_r+0x5f0>
    80001e64:	00f7071b          	addiw	a4,a4,15
    80001e68:	0ff77713          	andi	a4,a4,255
    80001e6c:	00100693          	li	a3,1
    80001e70:	0ee10823          	sb	a4,240(sp)
    80001e74:	02b00713          	li	a4,43
    80001e78:	0007da63          	bgez	a5,80001e8c <_vfprintf_r+0x60c>
    80001e7c:	01813703          	ld	a4,24(sp)
    80001e80:	00100793          	li	a5,1
    80001e84:	40e787bb          	subw	a5,a5,a4
    80001e88:	02d00713          	li	a4,45
    80001e8c:	0ee108a3          	sb	a4,241(sp)
    80001e90:	00900713          	li	a4,9
    80001e94:	00f74463          	blt	a4,a5,80001e9c <_vfprintf_r+0x61c>
    80001e98:	5cd0106f          	j	80003c64 <_vfprintf_r+0x23e4>
    80001e9c:	0ff10513          	addi	a0,sp,255
    80001ea0:	00050593          	mv	a1,a0
    80001ea4:	00a00693          	li	a3,10
    80001ea8:	06300e13          	li	t3,99
    80001eac:	02d7e73b          	remw	a4,a5,a3
    80001eb0:	00058613          	mv	a2,a1
    80001eb4:	00078813          	mv	a6,a5
    80001eb8:	fff58593          	addi	a1,a1,-1
    80001ebc:	0307071b          	addiw	a4,a4,48
    80001ec0:	fee60fa3          	sb	a4,-1(a2)
    80001ec4:	02d7c7bb          	divw	a5,a5,a3
    80001ec8:	ff0e42e3          	blt	t3,a6,80001eac <_vfprintf_r+0x62c>
    80001ecc:	0307879b          	addiw	a5,a5,48
    80001ed0:	0ff7f693          	andi	a3,a5,255
    80001ed4:	fed58fa3          	sb	a3,-1(a1)
    80001ed8:	ffe60793          	addi	a5,a2,-2
    80001edc:	00a7e463          	bltu	a5,a0,80001ee4 <_vfprintf_r+0x664>
    80001ee0:	7410106f          	j	80003e20 <_vfprintf_r+0x25a0>
    80001ee4:	0f210713          	addi	a4,sp,242
    80001ee8:	0080006f          	j	80001ef0 <_vfprintf_r+0x670>
    80001eec:	0007c683          	lbu	a3,0(a5)
    80001ef0:	00d70023          	sb	a3,0(a4)
    80001ef4:	00178793          	addi	a5,a5,1
    80001ef8:	00170713          	addi	a4,a4,1
    80001efc:	fea798e3          	bne	a5,a0,80001eec <_vfprintf_r+0x66c>
    80001f00:	10110793          	addi	a5,sp,257
    80001f04:	0f210713          	addi	a4,sp,242
    80001f08:	40c787b3          	sub	a5,a5,a2
    80001f0c:	00f707b3          	add	a5,a4,a5
    80001f10:	0f010713          	addi	a4,sp,240
    80001f14:	40e787bb          	subw	a5,a5,a4
    80001f18:	04f13823          	sd	a5,80(sp)
    80001f1c:	05013783          	ld	a5,80(sp)
    80001f20:	02013683          	ld	a3,32(sp)
    80001f24:	00100713          	li	a4,1
    80001f28:	00f68a3b          	addw	s4,a3,a5
    80001f2c:	000a0793          	mv	a5,s4
    80001f30:	00d74463          	blt	a4,a3,80001f38 <_vfprintf_r+0x6b8>
    80001f34:	6650106f          	j	80003d98 <_vfprintf_r+0x2518>
    80001f38:	03813703          	ld	a4,56(sp)
    80001f3c:	00e78a3b          	addw	s4,a5,a4
    80001f40:	03013783          	ld	a5,48(sp)
    80001f44:	fffa4993          	not	s3,s4
    80001f48:	43f9d993          	srai	s3,s3,0x3f
    80001f4c:	bff7f493          	andi	s1,a5,-1025
    80001f50:	0004849b          	sext.w	s1,s1
    80001f54:	013a79b3          	and	s3,s4,s3
    80001f58:	1004e493          	ori	s1,s1,256
    80001f5c:	0009899b          	sext.w	s3,s3
    80001f60:	02013823          	sd	zero,48(sp)
    80001f64:	02013423          	sd	zero,40(sp)
    80001f68:	00013c23          	sd	zero,24(sp)
    80001f6c:	06813783          	ld	a5,104(sp)
    80001f70:	00079463          	bnez	a5,80001f78 <_vfprintf_r+0x6f8>
    80001f74:	05d0106f          	j	800037d0 <_vfprintf_r+0x1f50>
    80001f78:	02d00793          	li	a5,45
    80001f7c:	0cf10fa3          	sb	a5,223(sp)
    80001f80:	00000a93          	li	s5,0
    80001f84:	0019899b          	addiw	s3,s3,1
    80001f88:	b51ff06f          	j	80001ad8 <_vfprintf_r+0x258>
    80001f8c:	11010613          	addi	a2,sp,272
    80001f90:	000b8593          	mv	a1,s7
    80001f94:	000c0513          	mv	a0,s8
    80001f98:	3040b0ef          	jal	ra,8000d29c <__sprint_r>
    80001f9c:	020518e3          	bnez	a0,800027cc <_vfprintf_r+0xf4c>
    80001fa0:	12013783          	ld	a5,288(sp)
    80001fa4:	19010313          	addi	t1,sp,400
    80001fa8:	b8dff06f          	j	80001b34 <_vfprintf_r+0x2b4>
    80001fac:	11812583          	lw	a1,280(sp)
    80001fb0:	00178a93          	addi	s5,a5,1
    80001fb4:	02013783          	ld	a5,32(sp)
    80001fb8:	0015871b          	addiw	a4,a1,1
    80001fbc:	00100613          	li	a2,1
    80001fc0:	01a33023          	sd	s10,0(t1)
    80001fc4:	00070693          	mv	a3,a4
    80001fc8:	01030a13          	addi	s4,t1,16
    80001fcc:	38f650e3          	bge	a2,a5,80002b4c <_vfprintf_r+0x12cc>
    80001fd0:	00100613          	li	a2,1
    80001fd4:	10d12c23          	sw	a3,280(sp)
    80001fd8:	00c33423          	sd	a2,8(t1)
    80001fdc:	13513023          	sd	s5,288(sp)
    80001fe0:	00700693          	li	a3,7
    80001fe4:	6ee6c4e3          	blt	a3,a4,80002ecc <_vfprintf_r+0x164c>
    80001fe8:	03813783          	ld	a5,56(sp)
    80001fec:	04013683          	ld	a3,64(sp)
    80001ff0:	00170b1b          	addiw	s6,a4,1
    80001ff4:	00fa8ab3          	add	s5,s5,a5
    80001ff8:	00da3023          	sd	a3,0(s4)
    80001ffc:	00fa3423          	sd	a5,8(s4)
    80002000:	13513023          	sd	s5,288(sp)
    80002004:	11612c23          	sw	s6,280(sp)
    80002008:	00700713          	li	a4,7
    8000200c:	010a0a13          	addi	s4,s4,16
    80002010:	6f6740e3          	blt	a4,s6,80002ef0 <_vfprintf_r+0x1670>
    80002014:	10013503          	ld	a0,256(sp)
    80002018:	10813583          	ld	a1,264(sp)
    8000201c:	001b0e1b          	addiw	t3,s6,1
    80002020:	00000693          	li	a3,0
    80002024:	00000613          	li	a2,0
    80002028:	01c12c23          	sw	t3,24(sp)
    8000202c:	3000f0ef          	jal	ra,8001132c <__eqtf2>
    80002030:	01812e03          	lw	t3,24(sp)
    80002034:	02013783          	ld	a5,32(sp)
    80002038:	010a0313          	addi	t1,s4,16
    8000203c:	000e069b          	sext.w	a3,t3
    80002040:	fff78d9b          	addiw	s11,a5,-1
    80002044:	320508e3          	beqz	a0,80002b74 <_vfprintf_r+0x12f4>
    80002048:	001d0813          	addi	a6,s10,1
    8000204c:	01ba8ab3          	add	s5,s5,s11
    80002050:	010a3023          	sd	a6,0(s4)
    80002054:	01ba3423          	sd	s11,8(s4)
    80002058:	13513023          	sd	s5,288(sp)
    8000205c:	11c12c23          	sw	t3,280(sp)
    80002060:	00700713          	li	a4,7
    80002064:	4cd74ae3          	blt	a4,a3,80002d38 <_vfprintf_r+0x14b8>
    80002068:	020a0713          	addi	a4,s4,32
    8000206c:	002b069b          	addiw	a3,s6,2
    80002070:	00030a13          	mv	s4,t1
    80002074:	00070313          	mv	t1,a4
    80002078:	05013603          	ld	a2,80(sp)
    8000207c:	0f010713          	addi	a4,sp,240
    80002080:	00ea3023          	sd	a4,0(s4)
    80002084:	015607b3          	add	a5,a2,s5
    80002088:	00ca3423          	sd	a2,8(s4)
    8000208c:	12f13023          	sd	a5,288(sp)
    80002090:	10d12c23          	sw	a3,280(sp)
    80002094:	00700713          	li	a4,7
    80002098:	b0d75ce3          	bge	a4,a3,80001bb0 <_vfprintf_r+0x330>
    8000209c:	11010613          	addi	a2,sp,272
    800020a0:	000b8593          	mv	a1,s7
    800020a4:	000c0513          	mv	a0,s8
    800020a8:	1f40b0ef          	jal	ra,8000d29c <__sprint_r>
    800020ac:	72051063          	bnez	a0,800027cc <_vfprintf_r+0xf4c>
    800020b0:	12013783          	ld	a5,288(sp)
    800020b4:	19010313          	addi	t1,sp,400
    800020b8:	af9ff06f          	j	80001bb0 <_vfprintf_r+0x330>
    800020bc:	000c0513          	mv	a0,s8
    800020c0:	129020ef          	jal	ra,800049e8 <__sinit>
    800020c4:	831ff06f          	j	800018f4 <_vfprintf_r+0x74>
    800020c8:	00813703          	ld	a4,8(sp)
    800020cc:	000c8313          	mv	t1,s9
    800020d0:	0c010fa3          	sb	zero,223(sp)
    800020d4:	00072783          	lw	a5,0(a4)
    800020d8:	00870713          	addi	a4,a4,8
    800020dc:	00e13423          	sd	a4,8(sp)
    800020e0:	12f10423          	sb	a5,296(sp)
    800020e4:	00100993          	li	s3,1
    800020e8:	00100a13          	li	s4,1
    800020ec:	12810d13          	addi	s10,sp,296
    800020f0:	9d5ff06f          	j	80001ac4 <_vfprintf_r+0x244>
    800020f4:	00813783          	ld	a5,8(sp)
    800020f8:	0c010fa3          	sb	zero,223(sp)
    800020fc:	000c8313          	mv	t1,s9
    80002100:	0007bd03          	ld	s10,0(a5)
    80002104:	00878c93          	addi	s9,a5,8
    80002108:	520d02e3          	beqz	s10,80002e2c <_vfprintf_r+0x15ac>
    8000210c:	fff00793          	li	a5,-1
    80002110:	00fa9463          	bne	s5,a5,80002118 <_vfprintf_r+0x898>
    80002114:	0140106f          	j	80003128 <_vfprintf_r+0x18a8>
    80002118:	000a8613          	mv	a2,s5
    8000211c:	00000593          	li	a1,0
    80002120:	000d0513          	mv	a0,s10
    80002124:	00613423          	sd	t1,8(sp)
    80002128:	3d9060ef          	jal	ra,80008d00 <memchr>
    8000212c:	00a13823          	sd	a0,16(sp)
    80002130:	00813303          	ld	t1,8(sp)
    80002134:	00051463          	bnez	a0,8000213c <_vfprintf_r+0x8bc>
    80002138:	0510106f          	j	80003988 <_vfprintf_r+0x2108>
    8000213c:	01013783          	ld	a5,16(sp)
    80002140:	01913423          	sd	s9,8(sp)
    80002144:	00013823          	sd	zero,16(sp)
    80002148:	41a78a3b          	subw	s4,a5,s10
    8000214c:	0df14783          	lbu	a5,223(sp)
    80002150:	fffa4993          	not	s3,s4
    80002154:	43f9d993          	srai	s3,s3,0x3f
    80002158:	02013823          	sd	zero,48(sp)
    8000215c:	02013423          	sd	zero,40(sp)
    80002160:	00013c23          	sd	zero,24(sp)
    80002164:	0149f9b3          	and	s3,s3,s4
    80002168:	00000a93          	li	s5,0
    8000216c:	960786e3          	beqz	a5,80001ad8 <_vfprintf_r+0x258>
    80002170:	0019899b          	addiw	s3,s3,1
    80002174:	965ff06f          	j	80001ad8 <_vfprintf_r+0x258>
    80002178:	0104e493          	ori	s1,s1,16
    8000217c:	000c8313          	mv	t1,s9
    80002180:	0004849b          	sext.w	s1,s1
    80002184:	00813683          	ld	a3,8(sp)
    80002188:	0204f793          	andi	a5,s1,32
    8000218c:	00868713          	addi	a4,a3,8 # 2008 <_start-0x7fffe014>
    80002190:	280784e3          	beqz	a5,80002c18 <_vfprintf_r+0x1398>
    80002194:	0006b983          	ld	s3,0(a3)
    80002198:	bff4f493          	andi	s1,s1,-1025
    8000219c:	00048b1b          	sext.w	s6,s1
    800021a0:	00e13423          	sd	a4,8(sp)
    800021a4:	00000793          	li	a5,0
    800021a8:	0c010fa3          	sb	zero,223(sp)
    800021ac:	fff00713          	li	a4,-1
    800021b0:	2cea8263          	beq	s5,a4,80002474 <_vfprintf_r+0xbf4>
    800021b4:	f7fb7493          	andi	s1,s6,-129
    800021b8:	0004849b          	sext.w	s1,s1
    800021bc:	2a099a63          	bnez	s3,80002470 <_vfprintf_r+0xbf0>
    800021c0:	300a9863          	bnez	s5,800024d0 <_vfprintf_r+0xc50>
    800021c4:	28079e63          	bnez	a5,80002460 <_vfprintf_r+0xbe0>
    800021c8:	001b7a13          	andi	s4,s6,1
    800021cc:	18c10d13          	addi	s10,sp,396
    800021d0:	2c0a10e3          	bnez	s4,80002c90 <_vfprintf_r+0x1410>
    800021d4:	0df14783          	lbu	a5,223(sp)
    800021d8:	000a099b          	sext.w	s3,s4
    800021dc:	015a5463          	bge	s4,s5,800021e4 <_vfprintf_r+0x964>
    800021e0:	000a899b          	sext.w	s3,s5
    800021e4:	00013823          	sd	zero,16(sp)
    800021e8:	02013823          	sd	zero,48(sp)
    800021ec:	02013423          	sd	zero,40(sp)
    800021f0:	00013c23          	sd	zero,24(sp)
    800021f4:	f6079ee3          	bnez	a5,80002170 <_vfprintf_r+0x8f0>
    800021f8:	8e1ff06f          	j	80001ad8 <_vfprintf_r+0x258>
    800021fc:	00044e83          	lbu	t4,0(s0)
    80002200:	06800793          	li	a5,104
    80002204:	3cfe82e3          	beq	t4,a5,80002dc8 <_vfprintf_r+0x1548>
    80002208:	0404e493          	ori	s1,s1,64
    8000220c:	0004849b          	sext.w	s1,s1
    80002210:	835ff06f          	j	80001a44 <_vfprintf_r+0x1c4>
    80002214:	00813683          	ld	a3,8(sp)
    80002218:	0204f793          	andi	a5,s1,32
    8000221c:	000c8313          	mv	t1,s9
    80002220:	0006b703          	ld	a4,0(a3)
    80002224:	00868693          	addi	a3,a3,8
    80002228:	00d13423          	sd	a3,8(sp)
    8000222c:	26079ae3          	bnez	a5,80002ca0 <_vfprintf_r+0x1420>
    80002230:	0104f793          	andi	a5,s1,16
    80002234:	260796e3          	bnez	a5,80002ca0 <_vfprintf_r+0x1420>
    80002238:	0404f793          	andi	a5,s1,64
    8000223c:	00078463          	beqz	a5,80002244 <_vfprintf_r+0x9c4>
    80002240:	2780106f          	j	800034b8 <_vfprintf_r+0x1c38>
    80002244:	2004f493          	andi	s1,s1,512
    80002248:	00013783          	ld	a5,0(sp)
    8000224c:	00049463          	bnez	s1,80002254 <_vfprintf_r+0x9d4>
    80002250:	1b90106f          	j	80003c08 <_vfprintf_r+0x2388>
    80002254:	00f70023          	sb	a5,0(a4)
    80002258:	00040d13          	mv	s10,s0
    8000225c:	9a1ff06f          	j	80001bfc <_vfprintf_r+0x37c>
    80002260:	00044e83          	lbu	t4,0(s0)
    80002264:	06c00793          	li	a5,108
    80002268:	36fe8ae3          	beq	t4,a5,80002ddc <_vfprintf_r+0x155c>
    8000226c:	0104e493          	ori	s1,s1,16
    80002270:	0004849b          	sext.w	s1,s1
    80002274:	fd0ff06f          	j	80001a44 <_vfprintf_r+0x1c4>
    80002278:	0204e493          	ori	s1,s1,32
    8000227c:	00044e83          	lbu	t4,0(s0)
    80002280:	0004849b          	sext.w	s1,s1
    80002284:	fc0ff06f          	j	80001a44 <_vfprintf_r+0x1c4>
    80002288:	00813703          	ld	a4,8(sp)
    8000228c:	03000793          	li	a5,48
    80002290:	0ef10023          	sb	a5,224(sp)
    80002294:	07800793          	li	a5,120
    80002298:	0ef100a3          	sb	a5,225(sp)
    8000229c:	00870793          	addi	a5,a4,8
    800022a0:	00f13423          	sd	a5,8(sp)
    800022a4:	000237b7          	lui	a5,0x23
    800022a8:	ed878793          	addi	a5,a5,-296 # 22ed8 <_start-0x7ffdd144>
    800022ac:	0024e493          	ori	s1,s1,2
    800022b0:	04f13423          	sd	a5,72(sp)
    800022b4:	00073983          	ld	s3,0(a4)
    800022b8:	000c8313          	mv	t1,s9
    800022bc:	00048b1b          	sext.w	s6,s1
    800022c0:	00200793          	li	a5,2
    800022c4:	07800d93          	li	s11,120
    800022c8:	ee1ff06f          	j	800021a8 <_vfprintf_r+0x928>
    800022cc:	0104e493          	ori	s1,s1,16
    800022d0:	000c8313          	mv	t1,s9
    800022d4:	00048b1b          	sext.w	s6,s1
    800022d8:	00813683          	ld	a3,8(sp)
    800022dc:	020b7793          	andi	a5,s6,32
    800022e0:	00868713          	addi	a4,a3,8
    800022e4:	100784e3          	beqz	a5,80002bec <_vfprintf_r+0x136c>
    800022e8:	0006b983          	ld	s3,0(a3)
    800022ec:	00100793          	li	a5,1
    800022f0:	00e13423          	sd	a4,8(sp)
    800022f4:	eb5ff06f          	j	800021a8 <_vfprintf_r+0x928>
    800022f8:	0084e493          	ori	s1,s1,8
    800022fc:	00044e83          	lbu	t4,0(s0)
    80002300:	0004849b          	sext.w	s1,s1
    80002304:	f40ff06f          	j	80001a44 <_vfprintf_r+0x1c4>
    80002308:	0804e493          	ori	s1,s1,128
    8000230c:	00044e83          	lbu	t4,0(s0)
    80002310:	0004849b          	sext.w	s1,s1
    80002314:	f30ff06f          	j	80001a44 <_vfprintf_r+0x1c4>
    80002318:	00044d83          	lbu	s11,0(s0)
    8000231c:	00140793          	addi	a5,s0,1
    80002320:	00dd9463          	bne	s11,a3,80002328 <_vfprintf_r+0xaa8>
    80002324:	2d50106f          	j	80003df8 <_vfprintf_r+0x2578>
    80002328:	fd0d871b          	addiw	a4,s11,-48
    8000232c:	00078413          	mv	s0,a5
    80002330:	00000a93          	li	s5,0
    80002334:	f0eb6e63          	bltu	s6,a4,80001a50 <_vfprintf_r+0x1d0>
    80002338:	00044d83          	lbu	s11,0(s0)
    8000233c:	002a979b          	slliw	a5,s5,0x2
    80002340:	01578abb          	addw	s5,a5,s5
    80002344:	001a9a9b          	slliw	s5,s5,0x1
    80002348:	00ea8abb          	addw	s5,s5,a4
    8000234c:	fd0d871b          	addiw	a4,s11,-48
    80002350:	00140413          	addi	s0,s0,1
    80002354:	feeb72e3          	bgeu	s6,a4,80002338 <_vfprintf_r+0xab8>
    80002358:	ef8ff06f          	j	80001a50 <_vfprintf_r+0x1d0>
    8000235c:	00044e83          	lbu	t4,0(s0)
    80002360:	0044e493          	ori	s1,s1,4
    80002364:	0004849b          	sext.w	s1,s1
    80002368:	edcff06f          	j	80001a44 <_vfprintf_r+0x1c4>
    8000236c:	02b00793          	li	a5,43
    80002370:	00044e83          	lbu	t4,0(s0)
    80002374:	0cf10fa3          	sb	a5,223(sp)
    80002378:	eccff06f          	j	80001a44 <_vfprintf_r+0x1c4>
    8000237c:	00813783          	ld	a5,8(sp)
    80002380:	00044e83          	lbu	t4,0(s0)
    80002384:	0007a903          	lw	s2,0(a5)
    80002388:	00878793          	addi	a5,a5,8
    8000238c:	00f13423          	sd	a5,8(sp)
    80002390:	ea095a63          	bgez	s2,80001a44 <_vfprintf_r+0x1c4>
    80002394:	4120093b          	negw	s2,s2
    80002398:	fc9ff06f          	j	80002360 <_vfprintf_r+0xae0>
    8000239c:	000c0513          	mv	a0,s8
    800023a0:	561050ef          	jal	ra,80008100 <_localeconv_r>
    800023a4:	00853783          	ld	a5,8(a0)
    800023a8:	00078513          	mv	a0,a5
    800023ac:	04f13c23          	sd	a5,88(sp)
    800023b0:	bdcff0ef          	jal	ra,8000178c <strlen>
    800023b4:	00050793          	mv	a5,a0
    800023b8:	000c0513          	mv	a0,s8
    800023bc:	00078d93          	mv	s11,a5
    800023c0:	06f13c23          	sd	a5,120(sp)
    800023c4:	53d050ef          	jal	ra,80008100 <_localeconv_r>
    800023c8:	01053783          	ld	a5,16(a0)
    800023cc:	00044e83          	lbu	t4,0(s0)
    800023d0:	06f13023          	sd	a5,96(sp)
    800023d4:	e60d8863          	beqz	s11,80001a44 <_vfprintf_r+0x1c4>
    800023d8:	e6078663          	beqz	a5,80001a44 <_vfprintf_r+0x1c4>
    800023dc:	0007c783          	lbu	a5,0(a5)
    800023e0:	e6078263          	beqz	a5,80001a44 <_vfprintf_r+0x1c4>
    800023e4:	4004e493          	ori	s1,s1,1024
    800023e8:	0004849b          	sext.w	s1,s1
    800023ec:	e58ff06f          	j	80001a44 <_vfprintf_r+0x1c4>
    800023f0:	0014e493          	ori	s1,s1,1
    800023f4:	00044e83          	lbu	t4,0(s0)
    800023f8:	0004849b          	sext.w	s1,s1
    800023fc:	e48ff06f          	j	80001a44 <_vfprintf_r+0x1c4>
    80002400:	0df14783          	lbu	a5,223(sp)
    80002404:	00044e83          	lbu	t4,0(s0)
    80002408:	e2079e63          	bnez	a5,80001a44 <_vfprintf_r+0x1c4>
    8000240c:	02000793          	li	a5,32
    80002410:	0cf10fa3          	sb	a5,223(sp)
    80002414:	e30ff06f          	j	80001a44 <_vfprintf_r+0x1c4>
    80002418:	0104e493          	ori	s1,s1,16
    8000241c:	000c8313          	mv	t1,s9
    80002420:	0004849b          	sext.w	s1,s1
    80002424:	00813683          	ld	a3,8(sp)
    80002428:	0204f793          	andi	a5,s1,32
    8000242c:	00868713          	addi	a4,a3,8
    80002430:	000786e3          	beqz	a5,80002c3c <_vfprintf_r+0x13bc>
    80002434:	0006b783          	ld	a5,0(a3)
    80002438:	00078993          	mv	s3,a5
    8000243c:	0207c0e3          	bltz	a5,80002c5c <_vfprintf_r+0x13dc>
    80002440:	fff00793          	li	a5,-1
    80002444:	48fa8663          	beq	s5,a5,800028d0 <_vfprintf_r+0x1050>
    80002448:	f7f4f493          	andi	s1,s1,-129
    8000244c:	00e13423          	sd	a4,8(sp)
    80002450:	00048b1b          	sext.w	s6,s1
    80002454:	48099263          	bnez	s3,800028d8 <_vfprintf_r+0x1058>
    80002458:	480a9463          	bnez	s5,800028e0 <_vfprintf_r+0x1060>
    8000245c:	000b0493          	mv	s1,s6
    80002460:	00000a93          	li	s5,0
    80002464:	00000a13          	li	s4,0
    80002468:	18c10d13          	addi	s10,sp,396
    8000246c:	d69ff06f          	j	800021d4 <_vfprintf_r+0x954>
    80002470:	00048b13          	mv	s6,s1
    80002474:	00100713          	li	a4,1
    80002478:	46e78063          	beq	a5,a4,800028d8 <_vfprintf_r+0x1058>
    8000247c:	00200713          	li	a4,2
    80002480:	06e78463          	beq	a5,a4,800024e8 <_vfprintf_r+0xc68>
    80002484:	18c10a13          	addi	s4,sp,396
    80002488:	000a0d13          	mv	s10,s4
    8000248c:	0079f793          	andi	a5,s3,7
    80002490:	03078793          	addi	a5,a5,48
    80002494:	fefd0fa3          	sb	a5,-1(s10)
    80002498:	0039d993          	srli	s3,s3,0x3
    8000249c:	000d0713          	mv	a4,s10
    800024a0:	fffd0d13          	addi	s10,s10,-1
    800024a4:	fe0994e3          	bnez	s3,8000248c <_vfprintf_r+0xc0c>
    800024a8:	001b7693          	andi	a3,s6,1
    800024ac:	06068263          	beqz	a3,80002510 <_vfprintf_r+0xc90>
    800024b0:	03000693          	li	a3,48
    800024b4:	04d78e63          	beq	a5,a3,80002510 <_vfprintf_r+0xc90>
    800024b8:	ffe70713          	addi	a4,a4,-2
    800024bc:	fedd0fa3          	sb	a3,-1(s10)
    800024c0:	40ea0a3b          	subw	s4,s4,a4
    800024c4:	000b0493          	mv	s1,s6
    800024c8:	00070d13          	mv	s10,a4
    800024cc:	d09ff06f          	j	800021d4 <_vfprintf_r+0x954>
    800024d0:	00100713          	li	a4,1
    800024d4:	00e79463          	bne	a5,a4,800024dc <_vfprintf_r+0xc5c>
    800024d8:	6640106f          	j	80003b3c <_vfprintf_r+0x22bc>
    800024dc:	00200713          	li	a4,2
    800024e0:	00048b13          	mv	s6,s1
    800024e4:	fae790e3          	bne	a5,a4,80002484 <_vfprintf_r+0xc04>
    800024e8:	04813703          	ld	a4,72(sp)
    800024ec:	18c10a13          	addi	s4,sp,396
    800024f0:	000a0d13          	mv	s10,s4
    800024f4:	00f9f793          	andi	a5,s3,15
    800024f8:	00f707b3          	add	a5,a4,a5
    800024fc:	0007c783          	lbu	a5,0(a5)
    80002500:	0049d993          	srli	s3,s3,0x4
    80002504:	fffd0d13          	addi	s10,s10,-1
    80002508:	00fd0023          	sb	a5,0(s10)
    8000250c:	fe0994e3          	bnez	s3,800024f4 <_vfprintf_r+0xc74>
    80002510:	41aa0a3b          	subw	s4,s4,s10
    80002514:	000b0493          	mv	s1,s6
    80002518:	cbdff06f          	j	800021d4 <_vfprintf_r+0x954>
    8000251c:	06500713          	li	a4,101
    80002520:	a9b756e3          	bge	a4,s11,80001fac <_vfprintf_r+0x72c>
    80002524:	10013503          	ld	a0,256(sp)
    80002528:	10813583          	ld	a1,264(sp)
    8000252c:	00000613          	li	a2,0
    80002530:	00000693          	li	a3,0
    80002534:	06613823          	sd	t1,112(sp)
    80002538:	06f13423          	sd	a5,104(sp)
    8000253c:	5f10e0ef          	jal	ra,8001132c <__eqtf2>
    80002540:	06813783          	ld	a5,104(sp)
    80002544:	07013303          	ld	t1,112(sp)
    80002548:	48051263          	bnez	a0,800029cc <_vfprintf_r+0x114c>
    8000254c:	11812703          	lw	a4,280(sp)
    80002550:	000236b7          	lui	a3,0x23
    80002554:	ef868693          	addi	a3,a3,-264 # 22ef8 <_start-0x7ffdd124>
    80002558:	0017071b          	addiw	a4,a4,1
    8000255c:	00d33023          	sd	a3,0(t1)
    80002560:	00178793          	addi	a5,a5,1
    80002564:	00100693          	li	a3,1
    80002568:	00d33423          	sd	a3,8(t1)
    8000256c:	10e12c23          	sw	a4,280(sp)
    80002570:	0007069b          	sext.w	a3,a4
    80002574:	12f13023          	sd	a5,288(sp)
    80002578:	00700713          	li	a4,7
    8000257c:	01030313          	addi	t1,t1,16
    80002580:	2ad74ae3          	blt	a4,a3,80003034 <_vfprintf_r+0x17b4>
    80002584:	0e812703          	lw	a4,232(sp)
    80002588:	02013683          	ld	a3,32(sp)
    8000258c:	6ed75663          	bge	a4,a3,80002c78 <_vfprintf_r+0x13f8>
    80002590:	04013703          	ld	a4,64(sp)
    80002594:	03813683          	ld	a3,56(sp)
    80002598:	01030313          	addi	t1,t1,16
    8000259c:	fee33823          	sd	a4,-16(t1)
    800025a0:	11812703          	lw	a4,280(sp)
    800025a4:	00d787b3          	add	a5,a5,a3
    800025a8:	fed33c23          	sd	a3,-8(t1)
    800025ac:	0017071b          	addiw	a4,a4,1
    800025b0:	0007069b          	sext.w	a3,a4
    800025b4:	10e12c23          	sw	a4,280(sp)
    800025b8:	12f13023          	sd	a5,288(sp)
    800025bc:	00700713          	li	a4,7
    800025c0:	04d746e3          	blt	a4,a3,80002e0c <_vfprintf_r+0x158c>
    800025c4:	02013703          	ld	a4,32(sp)
    800025c8:	fff70a1b          	addiw	s4,a4,-1
    800025cc:	df405263          	blez	s4,80001bb0 <_vfprintf_r+0x330>
    800025d0:	000238b7          	lui	a7,0x23
    800025d4:	01000693          	li	a3,16
    800025d8:	11812703          	lw	a4,280(sp)
    800025dc:	08088c93          	addi	s9,a7,128 # 23080 <_start-0x7ffdcf9c>
    800025e0:	01000b13          	li	s6,16
    800025e4:	00700a93          	li	s5,7
    800025e8:	0146c863          	blt	a3,s4,800025f8 <_vfprintf_r+0xd78>
    800025ec:	2690006f          	j	80003054 <_vfprintf_r+0x17d4>
    800025f0:	ff0a0a1b          	addiw	s4,s4,-16
    800025f4:	274b50e3          	bge	s6,s4,80003054 <_vfprintf_r+0x17d4>
    800025f8:	0017071b          	addiw	a4,a4,1
    800025fc:	01078793          	addi	a5,a5,16
    80002600:	01933023          	sd	s9,0(t1)
    80002604:	01633423          	sd	s6,8(t1)
    80002608:	12f13023          	sd	a5,288(sp)
    8000260c:	10e12c23          	sw	a4,280(sp)
    80002610:	01030313          	addi	t1,t1,16
    80002614:	fceadee3          	bge	s5,a4,800025f0 <_vfprintf_r+0xd70>
    80002618:	11010613          	addi	a2,sp,272
    8000261c:	000b8593          	mv	a1,s7
    80002620:	000c0513          	mv	a0,s8
    80002624:	4790a0ef          	jal	ra,8000d29c <__sprint_r>
    80002628:	1a051263          	bnez	a0,800027cc <_vfprintf_r+0xf4c>
    8000262c:	12013783          	ld	a5,288(sp)
    80002630:	11812703          	lw	a4,280(sp)
    80002634:	19010313          	addi	t1,sp,400
    80002638:	fb9ff06f          	j	800025f0 <_vfprintf_r+0xd70>
    8000263c:	41390b3b          	subw	s6,s2,s3
    80002640:	d3605a63          	blez	s6,80001b74 <_vfprintf_r+0x2f4>
    80002644:	000238b7          	lui	a7,0x23
    80002648:	01000613          	li	a2,16
    8000264c:	11812703          	lw	a4,280(sp)
    80002650:	08088c93          	addi	s9,a7,128 # 23080 <_start-0x7ffdcf9c>
    80002654:	01000f13          	li	t5,16
    80002658:	00700f93          	li	t6,7
    8000265c:	01664863          	blt	a2,s6,8000266c <_vfprintf_r+0xdec>
    80002660:	05c0006f          	j	800026bc <_vfprintf_r+0xe3c>
    80002664:	ff0b0b1b          	addiw	s6,s6,-16
    80002668:	056f5a63          	bge	t5,s6,800026bc <_vfprintf_r+0xe3c>
    8000266c:	0017071b          	addiw	a4,a4,1
    80002670:	01078793          	addi	a5,a5,16
    80002674:	01933023          	sd	s9,0(t1)
    80002678:	01e33423          	sd	t5,8(t1)
    8000267c:	12f13023          	sd	a5,288(sp)
    80002680:	10e12c23          	sw	a4,280(sp)
    80002684:	01030313          	addi	t1,t1,16
    80002688:	fcefdee3          	bge	t6,a4,80002664 <_vfprintf_r+0xde4>
    8000268c:	11010613          	addi	a2,sp,272
    80002690:	000b8593          	mv	a1,s7
    80002694:	000c0513          	mv	a0,s8
    80002698:	4050a0ef          	jal	ra,8000d29c <__sprint_r>
    8000269c:	12051863          	bnez	a0,800027cc <_vfprintf_r+0xf4c>
    800026a0:	01000f13          	li	t5,16
    800026a4:	ff0b0b1b          	addiw	s6,s6,-16
    800026a8:	12013783          	ld	a5,288(sp)
    800026ac:	11812703          	lw	a4,280(sp)
    800026b0:	19010313          	addi	t1,sp,400
    800026b4:	00700f93          	li	t6,7
    800026b8:	fb6f4ae3          	blt	t5,s6,8000266c <_vfprintf_r+0xdec>
    800026bc:	0017069b          	addiw	a3,a4,1
    800026c0:	016787b3          	add	a5,a5,s6
    800026c4:	01933023          	sd	s9,0(t1)
    800026c8:	01633423          	sd	s6,8(t1)
    800026cc:	12f13023          	sd	a5,288(sp)
    800026d0:	10d12c23          	sw	a3,280(sp)
    800026d4:	00700713          	li	a4,7
    800026d8:	01030313          	addi	t1,t1,16
    800026dc:	c8d75c63          	bge	a4,a3,80001b74 <_vfprintf_r+0x2f4>
    800026e0:	11010613          	addi	a2,sp,272
    800026e4:	000b8593          	mv	a1,s7
    800026e8:	000c0513          	mv	a0,s8
    800026ec:	3b10a0ef          	jal	ra,8000d29c <__sprint_r>
    800026f0:	0c051e63          	bnez	a0,800027cc <_vfprintf_r+0xf4c>
    800026f4:	12013783          	ld	a5,288(sp)
    800026f8:	19010313          	addi	t1,sp,400
    800026fc:	c78ff06f          	j	80001b74 <_vfprintf_r+0x2f4>
    80002700:	000238b7          	lui	a7,0x23
    80002704:	01000693          	li	a3,16
    80002708:	11812703          	lw	a4,280(sp)
    8000270c:	08088c93          	addi	s9,a7,128 # 23080 <_start-0x7ffdcf9c>
    80002710:	01000f13          	li	t5,16
    80002714:	00700b13          	li	s6,7
    80002718:	0156c863          	blt	a3,s5,80002728 <_vfprintf_r+0xea8>
    8000271c:	0580006f          	j	80002774 <_vfprintf_r+0xef4>
    80002720:	ff0a8a9b          	addiw	s5,s5,-16
    80002724:	055f5863          	bge	t5,s5,80002774 <_vfprintf_r+0xef4>
    80002728:	0017071b          	addiw	a4,a4,1
    8000272c:	01078793          	addi	a5,a5,16
    80002730:	01933023          	sd	s9,0(t1)
    80002734:	01e33423          	sd	t5,8(t1)
    80002738:	12f13023          	sd	a5,288(sp)
    8000273c:	10e12c23          	sw	a4,280(sp)
    80002740:	01030313          	addi	t1,t1,16
    80002744:	fceb5ee3          	bge	s6,a4,80002720 <_vfprintf_r+0xea0>
    80002748:	11010613          	addi	a2,sp,272
    8000274c:	000b8593          	mv	a1,s7
    80002750:	000c0513          	mv	a0,s8
    80002754:	3490a0ef          	jal	ra,8000d29c <__sprint_r>
    80002758:	06051a63          	bnez	a0,800027cc <_vfprintf_r+0xf4c>
    8000275c:	01000f13          	li	t5,16
    80002760:	ff0a8a9b          	addiw	s5,s5,-16
    80002764:	12013783          	ld	a5,288(sp)
    80002768:	11812703          	lw	a4,280(sp)
    8000276c:	19010313          	addi	t1,sp,400
    80002770:	fb5f4ce3          	blt	t5,s5,80002728 <_vfprintf_r+0xea8>
    80002774:	0017069b          	addiw	a3,a4,1
    80002778:	015787b3          	add	a5,a5,s5
    8000277c:	01933023          	sd	s9,0(t1)
    80002780:	01533423          	sd	s5,8(t1)
    80002784:	12f13023          	sd	a5,288(sp)
    80002788:	10d12c23          	sw	a3,280(sp)
    8000278c:	00700713          	li	a4,7
    80002790:	01030313          	addi	t1,t1,16
    80002794:	bed75463          	bge	a4,a3,80001b7c <_vfprintf_r+0x2fc>
    80002798:	11010613          	addi	a2,sp,272
    8000279c:	000b8593          	mv	a1,s7
    800027a0:	000c0513          	mv	a0,s8
    800027a4:	2f90a0ef          	jal	ra,8000d29c <__sprint_r>
    800027a8:	02051263          	bnez	a0,800027cc <_vfprintf_r+0xf4c>
    800027ac:	12013783          	ld	a5,288(sp)
    800027b0:	19010313          	addi	t1,sp,400
    800027b4:	bc8ff06f          	j	80001b7c <_vfprintf_r+0x2fc>
    800027b8:	11010613          	addi	a2,sp,272
    800027bc:	000b8593          	mv	a1,s7
    800027c0:	000c0513          	mv	a0,s8
    800027c4:	2d90a0ef          	jal	ra,8000d29c <__sprint_r>
    800027c8:	c0050a63          	beqz	a0,80001bdc <_vfprintf_r+0x35c>
    800027cc:	01013583          	ld	a1,16(sp)
    800027d0:	c4058063          	beqz	a1,80001c10 <_vfprintf_r+0x390>
    800027d4:	000c0513          	mv	a0,s8
    800027d8:	3e8020ef          	jal	ra,80004bc0 <_free_r>
    800027dc:	c34ff06f          	j	80001c10 <_vfprintf_r+0x390>
    800027e0:	000238b7          	lui	a7,0x23
    800027e4:	01000613          	li	a2,16
    800027e8:	11812703          	lw	a4,280(sp)
    800027ec:	07088893          	addi	a7,a7,112 # 23070 <_start-0x7ffdcfac>
    800027f0:	08d65c63          	bge	a2,a3,80002888 <_vfprintf_r+0x1008>
    800027f4:	06813423          	sd	s0,104(sp)
    800027f8:	06913823          	sd	s1,112(sp)
    800027fc:	000c0413          	mv	s0,s8
    80002800:	000b8493          	mv	s1,s7
    80002804:	01000f13          	li	t5,16
    80002808:	00700393          	li	t2,7
    8000280c:	00068b93          	mv	s7,a3
    80002810:	00088c13          	mv	s8,a7
    80002814:	00c0006f          	j	80002820 <_vfprintf_r+0xfa0>
    80002818:	ff0b8b9b          	addiw	s7,s7,-16
    8000281c:	057f5a63          	bge	t5,s7,80002870 <_vfprintf_r+0xff0>
    80002820:	0017071b          	addiw	a4,a4,1
    80002824:	01078793          	addi	a5,a5,16
    80002828:	01833023          	sd	s8,0(t1)
    8000282c:	01e33423          	sd	t5,8(t1)
    80002830:	12f13023          	sd	a5,288(sp)
    80002834:	10e12c23          	sw	a4,280(sp)
    80002838:	01030313          	addi	t1,t1,16
    8000283c:	fce3dee3          	bge	t2,a4,80002818 <_vfprintf_r+0xf98>
    80002840:	11010613          	addi	a2,sp,272
    80002844:	00048593          	mv	a1,s1
    80002848:	00040513          	mv	a0,s0
    8000284c:	2510a0ef          	jal	ra,8000d29c <__sprint_r>
    80002850:	7a051e63          	bnez	a0,8000300c <_vfprintf_r+0x178c>
    80002854:	01000f13          	li	t5,16
    80002858:	ff0b8b9b          	addiw	s7,s7,-16
    8000285c:	12013783          	ld	a5,288(sp)
    80002860:	11812703          	lw	a4,280(sp)
    80002864:	19010313          	addi	t1,sp,400
    80002868:	00700393          	li	t2,7
    8000286c:	fb7f4ae3          	blt	t5,s7,80002820 <_vfprintf_r+0xfa0>
    80002870:	000b8693          	mv	a3,s7
    80002874:	000c0893          	mv	a7,s8
    80002878:	00048b93          	mv	s7,s1
    8000287c:	00040c13          	mv	s8,s0
    80002880:	07013483          	ld	s1,112(sp)
    80002884:	06813403          	ld	s0,104(sp)
    80002888:	0017071b          	addiw	a4,a4,1
    8000288c:	00d787b3          	add	a5,a5,a3
    80002890:	00d33423          	sd	a3,8(t1)
    80002894:	01133023          	sd	a7,0(t1)
    80002898:	0007069b          	sext.w	a3,a4
    8000289c:	10e12c23          	sw	a4,280(sp)
    800028a0:	12f13023          	sd	a5,288(sp)
    800028a4:	00700713          	li	a4,7
    800028a8:	01030313          	addi	t1,t1,16
    800028ac:	a4d75663          	bge	a4,a3,80001af8 <_vfprintf_r+0x278>
    800028b0:	11010613          	addi	a2,sp,272
    800028b4:	000b8593          	mv	a1,s7
    800028b8:	000c0513          	mv	a0,s8
    800028bc:	1e10a0ef          	jal	ra,8000d29c <__sprint_r>
    800028c0:	f00516e3          	bnez	a0,800027cc <_vfprintf_r+0xf4c>
    800028c4:	12013783          	ld	a5,288(sp)
    800028c8:	19010313          	addi	t1,sp,400
    800028cc:	a2cff06f          	j	80001af8 <_vfprintf_r+0x278>
    800028d0:	00048b13          	mv	s6,s1
    800028d4:	00e13423          	sd	a4,8(sp)
    800028d8:	00900793          	li	a5,9
    800028dc:	6337ec63          	bltu	a5,s3,80002f14 <_vfprintf_r+0x1694>
    800028e0:	0309899b          	addiw	s3,s3,48
    800028e4:	193105a3          	sb	s3,395(sp)
    800028e8:	000b0493          	mv	s1,s6
    800028ec:	00100a13          	li	s4,1
    800028f0:	18b10d13          	addi	s10,sp,395
    800028f4:	8e1ff06f          	j	800021d4 <_vfprintf_r+0x954>
    800028f8:	11010613          	addi	a2,sp,272
    800028fc:	000b8593          	mv	a1,s7
    80002900:	000c0513          	mv	a0,s8
    80002904:	1990a0ef          	jal	ra,8000d29c <__sprint_r>
    80002908:	ec0512e3          	bnez	a0,800027cc <_vfprintf_r+0xf4c>
    8000290c:	12013783          	ld	a5,288(sp)
    80002910:	19010313          	addi	t1,sp,400
    80002914:	a58ff06f          	j	80001b6c <_vfprintf_r+0x2ec>
    80002918:	000238b7          	lui	a7,0x23
    8000291c:	07088893          	addi	a7,a7,112 # 23070 <_start-0x7ffdcfac>
    80002920:	01000693          	li	a3,16
    80002924:	11812703          	lw	a4,280(sp)
    80002928:	01000a13          	li	s4,16
    8000292c:	00700b13          	li	s6,7
    80002930:	00088a93          	mv	s5,a7
    80002934:	0096c863          	blt	a3,s1,80002944 <_vfprintf_r+0x10c4>
    80002938:	0580006f          	j	80002990 <_vfprintf_r+0x1110>
    8000293c:	ff04849b          	addiw	s1,s1,-16
    80002940:	049a5663          	bge	s4,s1,8000298c <_vfprintf_r+0x110c>
    80002944:	0017071b          	addiw	a4,a4,1
    80002948:	01078793          	addi	a5,a5,16
    8000294c:	01533023          	sd	s5,0(t1)
    80002950:	01433423          	sd	s4,8(t1)
    80002954:	12f13023          	sd	a5,288(sp)
    80002958:	10e12c23          	sw	a4,280(sp)
    8000295c:	01030313          	addi	t1,t1,16
    80002960:	fceb5ee3          	bge	s6,a4,8000293c <_vfprintf_r+0x10bc>
    80002964:	11010613          	addi	a2,sp,272
    80002968:	000b8593          	mv	a1,s7
    8000296c:	000c0513          	mv	a0,s8
    80002970:	12d0a0ef          	jal	ra,8000d29c <__sprint_r>
    80002974:	e4051ce3          	bnez	a0,800027cc <_vfprintf_r+0xf4c>
    80002978:	ff04849b          	addiw	s1,s1,-16
    8000297c:	12013783          	ld	a5,288(sp)
    80002980:	11812703          	lw	a4,280(sp)
    80002984:	19010313          	addi	t1,sp,400
    80002988:	fa9a4ee3          	blt	s4,s1,80002944 <_vfprintf_r+0x10c4>
    8000298c:	000a8893          	mv	a7,s5
    80002990:	0017069b          	addiw	a3,a4,1
    80002994:	009787b3          	add	a5,a5,s1
    80002998:	01133023          	sd	a7,0(t1)
    8000299c:	00933423          	sd	s1,8(t1)
    800029a0:	12f13023          	sd	a5,288(sp)
    800029a4:	10d12c23          	sw	a3,280(sp)
    800029a8:	00700713          	li	a4,7
    800029ac:	a0d75a63          	bge	a4,a3,80001bc0 <_vfprintf_r+0x340>
    800029b0:	11010613          	addi	a2,sp,272
    800029b4:	000b8593          	mv	a1,s7
    800029b8:	000c0513          	mv	a0,s8
    800029bc:	0e10a0ef          	jal	ra,8000d29c <__sprint_r>
    800029c0:	e00516e3          	bnez	a0,800027cc <_vfprintf_r+0xf4c>
    800029c4:	12013783          	ld	a5,288(sp)
    800029c8:	9f8ff06f          	j	80001bc0 <_vfprintf_r+0x340>
    800029cc:	0e812603          	lw	a2,232(sp)
    800029d0:	5ac05a63          	blez	a2,80002f84 <_vfprintf_r+0x1704>
    800029d4:	01813703          	ld	a4,24(sp)
    800029d8:	02013683          	ld	a3,32(sp)
    800029dc:	00070a1b          	sext.w	s4,a4
    800029e0:	32e6c463          	blt	a3,a4,80002d08 <_vfprintf_r+0x1488>
    800029e4:	03405663          	blez	s4,80002a10 <_vfprintf_r+0x1190>
    800029e8:	11812703          	lw	a4,280(sp)
    800029ec:	014787b3          	add	a5,a5,s4
    800029f0:	01a33023          	sd	s10,0(t1)
    800029f4:	0017069b          	addiw	a3,a4,1
    800029f8:	01433423          	sd	s4,8(t1)
    800029fc:	12f13023          	sd	a5,288(sp)
    80002a00:	10d12c23          	sw	a3,280(sp)
    80002a04:	00700713          	li	a4,7
    80002a08:	01030313          	addi	t1,t1,16
    80002a0c:	26d742e3          	blt	a4,a3,80003470 <_vfprintf_r+0x1bf0>
    80002a10:	fffa4713          	not	a4,s4
    80002a14:	43f75713          	srai	a4,a4,0x3f
    80002a18:	00ea7a33          	and	s4,s4,a4
    80002a1c:	01813703          	ld	a4,24(sp)
    80002a20:	41470a3b          	subw	s4,a4,s4
    80002a24:	43404463          	bgtz	s4,80002e4c <_vfprintf_r+0x15cc>
    80002a28:	01813683          	ld	a3,24(sp)
    80002a2c:	4004f713          	andi	a4,s1,1024
    80002a30:	00dd0ab3          	add	s5,s10,a3
    80002a34:	7e071863          	bnez	a4,80003224 <_vfprintf_r+0x19a4>
    80002a38:	0e812703          	lw	a4,232(sp)
    80002a3c:	02013683          	ld	a3,32(sp)
    80002a40:	00d74663          	blt	a4,a3,80002a4c <_vfprintf_r+0x11cc>
    80002a44:	0014f693          	andi	a3,s1,1
    80002a48:	240688e3          	beqz	a3,80003498 <_vfprintf_r+0x1c18>
    80002a4c:	04013683          	ld	a3,64(sp)
    80002a50:	03813603          	ld	a2,56(sp)
    80002a54:	01030313          	addi	t1,t1,16
    80002a58:	fed33823          	sd	a3,-16(t1)
    80002a5c:	11812683          	lw	a3,280(sp)
    80002a60:	00c787b3          	add	a5,a5,a2
    80002a64:	fec33c23          	sd	a2,-8(t1)
    80002a68:	0016869b          	addiw	a3,a3,1
    80002a6c:	0006861b          	sext.w	a2,a3
    80002a70:	10d12c23          	sw	a3,280(sp)
    80002a74:	12f13023          	sd	a5,288(sp)
    80002a78:	00700693          	li	a3,7
    80002a7c:	6cc6cce3          	blt	a3,a2,80003954 <_vfprintf_r+0x20d4>
    80002a80:	02013683          	ld	a3,32(sp)
    80002a84:	40e6863b          	subw	a2,a3,a4
    80002a88:	00dd06b3          	add	a3,s10,a3
    80002a8c:	415686bb          	subw	a3,a3,s5
    80002a90:	00060713          	mv	a4,a2
    80002a94:	00c6d463          	bge	a3,a2,80002a9c <_vfprintf_r+0x121c>
    80002a98:	00068713          	mv	a4,a3
    80002a9c:	00070a1b          	sext.w	s4,a4
    80002aa0:	03405663          	blez	s4,80002acc <_vfprintf_r+0x124c>
    80002aa4:	11812703          	lw	a4,280(sp)
    80002aa8:	014787b3          	add	a5,a5,s4
    80002aac:	01533023          	sd	s5,0(t1)
    80002ab0:	0017069b          	addiw	a3,a4,1
    80002ab4:	01433423          	sd	s4,8(t1)
    80002ab8:	12f13023          	sd	a5,288(sp)
    80002abc:	10d12c23          	sw	a3,280(sp)
    80002ac0:	00700713          	li	a4,7
    80002ac4:	01030313          	addi	t1,t1,16
    80002ac8:	72d74ce3          	blt	a4,a3,80003a00 <_vfprintf_r+0x2180>
    80002acc:	fffa4713          	not	a4,s4
    80002ad0:	43f75713          	srai	a4,a4,0x3f
    80002ad4:	00ea7a33          	and	s4,s4,a4
    80002ad8:	41460a3b          	subw	s4,a2,s4
    80002adc:	8d405a63          	blez	s4,80001bb0 <_vfprintf_r+0x330>
    80002ae0:	000238b7          	lui	a7,0x23
    80002ae4:	01000693          	li	a3,16
    80002ae8:	11812703          	lw	a4,280(sp)
    80002aec:	08088c93          	addi	s9,a7,128 # 23080 <_start-0x7ffdcf9c>
    80002af0:	01000b13          	li	s6,16
    80002af4:	00700a93          	li	s5,7
    80002af8:	0146c863          	blt	a3,s4,80002b08 <_vfprintf_r+0x1288>
    80002afc:	5580006f          	j	80003054 <_vfprintf_r+0x17d4>
    80002b00:	ff0a0a1b          	addiw	s4,s4,-16
    80002b04:	554b5863          	bge	s6,s4,80003054 <_vfprintf_r+0x17d4>
    80002b08:	0017071b          	addiw	a4,a4,1
    80002b0c:	01078793          	addi	a5,a5,16
    80002b10:	01933023          	sd	s9,0(t1)
    80002b14:	01633423          	sd	s6,8(t1)
    80002b18:	12f13023          	sd	a5,288(sp)
    80002b1c:	10e12c23          	sw	a4,280(sp)
    80002b20:	01030313          	addi	t1,t1,16
    80002b24:	fceadee3          	bge	s5,a4,80002b00 <_vfprintf_r+0x1280>
    80002b28:	11010613          	addi	a2,sp,272
    80002b2c:	000b8593          	mv	a1,s7
    80002b30:	000c0513          	mv	a0,s8
    80002b34:	7680a0ef          	jal	ra,8000d29c <__sprint_r>
    80002b38:	c8051ae3          	bnez	a0,800027cc <_vfprintf_r+0xf4c>
    80002b3c:	12013783          	ld	a5,288(sp)
    80002b40:	11812703          	lw	a4,280(sp)
    80002b44:	19010313          	addi	t1,sp,400
    80002b48:	fb9ff06f          	j	80002b00 <_vfprintf_r+0x1280>
    80002b4c:	0014f513          	andi	a0,s1,1
    80002b50:	c8051063          	bnez	a0,80001fd0 <_vfprintf_r+0x750>
    80002b54:	00c33423          	sd	a2,8(t1)
    80002b58:	13513023          	sd	s5,288(sp)
    80002b5c:	10e12c23          	sw	a4,280(sp)
    80002b60:	00700693          	li	a3,7
    80002b64:	1ce6ca63          	blt	a3,a4,80002d38 <_vfprintf_r+0x14b8>
    80002b68:	0025869b          	addiw	a3,a1,2
    80002b6c:	02030313          	addi	t1,t1,32
    80002b70:	d08ff06f          	j	80002078 <_vfprintf_r+0x7f8>
    80002b74:	d1b05263          	blez	s11,80002078 <_vfprintf_r+0x7f8>
    80002b78:	01000613          	li	a2,16
    80002b7c:	01b64463          	blt	a2,s11,80002b84 <_vfprintf_r+0x1304>
    80002b80:	2680106f          	j	80003de8 <_vfprintf_r+0x2568>
    80002b84:	000238b7          	lui	a7,0x23
    80002b88:	08088c93          	addi	s9,a7,128 # 23080 <_start-0x7ffdcf9c>
    80002b8c:	01000693          	li	a3,16
    80002b90:	00700d13          	li	s10,7
    80002b94:	0100006f          	j	80002ba4 <_vfprintf_r+0x1324>
    80002b98:	ff0d8d9b          	addiw	s11,s11,-16
    80002b9c:	17b6dc63          	bge	a3,s11,80002d14 <_vfprintf_r+0x1494>
    80002ba0:	001b0e1b          	addiw	t3,s6,1
    80002ba4:	010a8a93          	addi	s5,s5,16
    80002ba8:	019a3023          	sd	s9,0(s4)
    80002bac:	00da3423          	sd	a3,8(s4)
    80002bb0:	13513023          	sd	s5,288(sp)
    80002bb4:	000e0b1b          	sext.w	s6,t3
    80002bb8:	11c12c23          	sw	t3,280(sp)
    80002bbc:	010a0a13          	addi	s4,s4,16
    80002bc0:	fd6d5ce3          	bge	s10,s6,80002b98 <_vfprintf_r+0x1318>
    80002bc4:	11010613          	addi	a2,sp,272
    80002bc8:	000b8593          	mv	a1,s7
    80002bcc:	000c0513          	mv	a0,s8
    80002bd0:	6cc0a0ef          	jal	ra,8000d29c <__sprint_r>
    80002bd4:	be051ce3          	bnez	a0,800027cc <_vfprintf_r+0xf4c>
    80002bd8:	12013a83          	ld	s5,288(sp)
    80002bdc:	11812b03          	lw	s6,280(sp)
    80002be0:	19010a13          	addi	s4,sp,400
    80002be4:	01000693          	li	a3,16
    80002be8:	fb1ff06f          	j	80002b98 <_vfprintf_r+0x1318>
    80002bec:	010b7793          	andi	a5,s6,16
    80002bf0:	0c079663          	bnez	a5,80002cbc <_vfprintf_r+0x143c>
    80002bf4:	00813683          	ld	a3,8(sp)
    80002bf8:	040b7793          	andi	a5,s6,64
    80002bfc:	0006a983          	lw	s3,0(a3)
    80002c00:	58078063          	beqz	a5,80003180 <_vfprintf_r+0x1900>
    80002c04:	03099993          	slli	s3,s3,0x30
    80002c08:	0309d993          	srli	s3,s3,0x30
    80002c0c:	00e13423          	sd	a4,8(sp)
    80002c10:	00100793          	li	a5,1
    80002c14:	d94ff06f          	j	800021a8 <_vfprintf_r+0x928>
    80002c18:	0104f793          	andi	a5,s1,16
    80002c1c:	08079a63          	bnez	a5,80002cb0 <_vfprintf_r+0x1430>
    80002c20:	00813683          	ld	a3,8(sp)
    80002c24:	0404f793          	andi	a5,s1,64
    80002c28:	0006a983          	lw	s3,0(a3)
    80002c2c:	56078663          	beqz	a5,80003198 <_vfprintf_r+0x1918>
    80002c30:	03099993          	slli	s3,s3,0x30
    80002c34:	0309d993          	srli	s3,s3,0x30
    80002c38:	d60ff06f          	j	80002198 <_vfprintf_r+0x918>
    80002c3c:	0104f793          	andi	a5,s1,16
    80002c40:	0a079c63          	bnez	a5,80002cf8 <_vfprintf_r+0x1478>
    80002c44:	0404f793          	andi	a5,s1,64
    80002c48:	56078063          	beqz	a5,800031a8 <_vfprintf_r+0x1928>
    80002c4c:	00813783          	ld	a5,8(sp)
    80002c50:	00079983          	lh	s3,0(a5)
    80002c54:	00098793          	mv	a5,s3
    80002c58:	fe07d463          	bgez	a5,80002440 <_vfprintf_r+0xbc0>
    80002c5c:	02d00793          	li	a5,45
    80002c60:	0cf10fa3          	sb	a5,223(sp)
    80002c64:	413009b3          	neg	s3,s3
    80002c68:	00e13423          	sd	a4,8(sp)
    80002c6c:	00048b13          	mv	s6,s1
    80002c70:	00100793          	li	a5,1
    80002c74:	d38ff06f          	j	800021ac <_vfprintf_r+0x92c>
    80002c78:	0014f713          	andi	a4,s1,1
    80002c7c:	00071463          	bnez	a4,80002c84 <_vfprintf_r+0x1404>
    80002c80:	f31fe06f          	j	80001bb0 <_vfprintf_r+0x330>
    80002c84:	90dff06f          	j	80002590 <_vfprintf_r+0xd10>
    80002c88:	000c8313          	mv	t1,s9
    80002c8c:	f98ff06f          	j	80002424 <_vfprintf_r+0xba4>
    80002c90:	03000793          	li	a5,48
    80002c94:	18f105a3          	sb	a5,395(sp)
    80002c98:	18b10d13          	addi	s10,sp,395
    80002c9c:	d38ff06f          	j	800021d4 <_vfprintf_r+0x954>
    80002ca0:	00013783          	ld	a5,0(sp)
    80002ca4:	00040d13          	mv	s10,s0
    80002ca8:	00f73023          	sd	a5,0(a4)
    80002cac:	f51fe06f          	j	80001bfc <_vfprintf_r+0x37c>
    80002cb0:	00813783          	ld	a5,8(sp)
    80002cb4:	0007b983          	ld	s3,0(a5)
    80002cb8:	ce0ff06f          	j	80002198 <_vfprintf_r+0x918>
    80002cbc:	00813783          	ld	a5,8(sp)
    80002cc0:	00e13423          	sd	a4,8(sp)
    80002cc4:	0007b983          	ld	s3,0(a5)
    80002cc8:	00100793          	li	a5,1
    80002ccc:	cdcff06f          	j	800021a8 <_vfprintf_r+0x928>
    80002cd0:	00813783          	ld	a5,8(sp)
    80002cd4:	00f78c93          	addi	s9,a5,15
    80002cd8:	ff0cfc93          	andi	s9,s9,-16
    80002cdc:	000cb703          	ld	a4,0(s9)
    80002ce0:	008cb783          	ld	a5,8(s9)
    80002ce4:	010c8693          	addi	a3,s9,16
    80002ce8:	00d13423          	sd	a3,8(sp)
    80002cec:	10e13023          	sd	a4,256(sp)
    80002cf0:	10f13423          	sd	a5,264(sp)
    80002cf4:	824ff06f          	j	80001d18 <_vfprintf_r+0x498>
    80002cf8:	00813783          	ld	a5,8(sp)
    80002cfc:	0007b783          	ld	a5,0(a5)
    80002d00:	00078993          	mv	s3,a5
    80002d04:	f38ff06f          	j	8000243c <_vfprintf_r+0xbbc>
    80002d08:	00068a1b          	sext.w	s4,a3
    80002d0c:	cd404ee3          	bgtz	s4,800029e8 <_vfprintf_r+0x1168>
    80002d10:	d01ff06f          	j	80002a10 <_vfprintf_r+0x1190>
    80002d14:	001b069b          	addiw	a3,s6,1
    80002d18:	010a0613          	addi	a2,s4,16
    80002d1c:	01ba8ab3          	add	s5,s5,s11
    80002d20:	019a3023          	sd	s9,0(s4)
    80002d24:	01ba3423          	sd	s11,8(s4)
    80002d28:	13513023          	sd	s5,288(sp)
    80002d2c:	10d12c23          	sw	a3,280(sp)
    80002d30:	00700713          	li	a4,7
    80002d34:	6ed75e63          	bge	a4,a3,80003430 <_vfprintf_r+0x1bb0>
    80002d38:	11010613          	addi	a2,sp,272
    80002d3c:	000b8593          	mv	a1,s7
    80002d40:	000c0513          	mv	a0,s8
    80002d44:	5580a0ef          	jal	ra,8000d29c <__sprint_r>
    80002d48:	a80512e3          	bnez	a0,800027cc <_vfprintf_r+0xf4c>
    80002d4c:	11812683          	lw	a3,280(sp)
    80002d50:	12013a83          	ld	s5,288(sp)
    80002d54:	1a010313          	addi	t1,sp,416
    80002d58:	0016869b          	addiw	a3,a3,1
    80002d5c:	19010a13          	addi	s4,sp,400
    80002d60:	b18ff06f          	j	80002078 <_vfprintf_r+0x7f8>
    80002d64:	000237b7          	lui	a5,0x23
    80002d68:	ed878793          	addi	a5,a5,-296 # 22ed8 <_start-0x7ffdd144>
    80002d6c:	000c8313          	mv	t1,s9
    80002d70:	04f13423          	sd	a5,72(sp)
    80002d74:	00813683          	ld	a3,8(sp)
    80002d78:	0204f793          	andi	a5,s1,32
    80002d7c:	00868713          	addi	a4,a3,8
    80002d80:	12078c63          	beqz	a5,80002eb8 <_vfprintf_r+0x1638>
    80002d84:	0006b983          	ld	s3,0(a3)
    80002d88:	0014f793          	andi	a5,s1,1
    80002d8c:	00078e63          	beqz	a5,80002da8 <_vfprintf_r+0x1528>
    80002d90:	00098c63          	beqz	s3,80002da8 <_vfprintf_r+0x1528>
    80002d94:	0024e493          	ori	s1,s1,2
    80002d98:	03000793          	li	a5,48
    80002d9c:	0ef10023          	sb	a5,224(sp)
    80002da0:	0fb100a3          	sb	s11,225(sp)
    80002da4:	0004849b          	sext.w	s1,s1
    80002da8:	bff4f493          	andi	s1,s1,-1025
    80002dac:	00048b1b          	sext.w	s6,s1
    80002db0:	00e13423          	sd	a4,8(sp)
    80002db4:	00200793          	li	a5,2
    80002db8:	bf0ff06f          	j	800021a8 <_vfprintf_r+0x928>
    80002dbc:	000c8313          	mv	t1,s9
    80002dc0:	00048b13          	mv	s6,s1
    80002dc4:	d14ff06f          	j	800022d8 <_vfprintf_r+0xa58>
    80002dc8:	2004e493          	ori	s1,s1,512
    80002dcc:	00144e83          	lbu	t4,1(s0)
    80002dd0:	0004849b          	sext.w	s1,s1
    80002dd4:	00140413          	addi	s0,s0,1
    80002dd8:	c6dfe06f          	j	80001a44 <_vfprintf_r+0x1c4>
    80002ddc:	0204e493          	ori	s1,s1,32
    80002de0:	00144e83          	lbu	t4,1(s0)
    80002de4:	0004849b          	sext.w	s1,s1
    80002de8:	00140413          	addi	s0,s0,1
    80002dec:	c59fe06f          	j	80001a44 <_vfprintf_r+0x1c4>
    80002df0:	000237b7          	lui	a5,0x23
    80002df4:	ec078793          	addi	a5,a5,-320 # 22ec0 <_start-0x7ffdd15c>
    80002df8:	000c8313          	mv	t1,s9
    80002dfc:	04f13423          	sd	a5,72(sp)
    80002e00:	f75ff06f          	j	80002d74 <_vfprintf_r+0x14f4>
    80002e04:	000c8313          	mv	t1,s9
    80002e08:	b7cff06f          	j	80002184 <_vfprintf_r+0x904>
    80002e0c:	11010613          	addi	a2,sp,272
    80002e10:	000b8593          	mv	a1,s7
    80002e14:	000c0513          	mv	a0,s8
    80002e18:	4840a0ef          	jal	ra,8000d29c <__sprint_r>
    80002e1c:	9a0518e3          	bnez	a0,800027cc <_vfprintf_r+0xf4c>
    80002e20:	12013783          	ld	a5,288(sp)
    80002e24:	19010313          	addi	t1,sp,400
    80002e28:	f9cff06f          	j	800025c4 <_vfprintf_r+0xd44>
    80002e2c:	00600793          	li	a5,6
    80002e30:	000a8a1b          	sext.w	s4,s5
    80002e34:	6557ee63          	bltu	a5,s5,80003490 <_vfprintf_r+0x1c10>
    80002e38:	00023837          	lui	a6,0x23
    80002e3c:	000a0993          	mv	s3,s4
    80002e40:	01913423          	sd	s9,8(sp)
    80002e44:	ef080d13          	addi	s10,a6,-272 # 22ef0 <_start-0x7ffdd12c>
    80002e48:	c7dfe06f          	j	80001ac4 <_vfprintf_r+0x244>
    80002e4c:	000238b7          	lui	a7,0x23
    80002e50:	01000693          	li	a3,16
    80002e54:	11812703          	lw	a4,280(sp)
    80002e58:	08088c93          	addi	s9,a7,128 # 23080 <_start-0x7ffdcf9c>
    80002e5c:	01000d93          	li	s11,16
    80002e60:	00700a93          	li	s5,7
    80002e64:	0146c863          	blt	a3,s4,80002e74 <_vfprintf_r+0x15f4>
    80002e68:	3780006f          	j	800031e0 <_vfprintf_r+0x1960>
    80002e6c:	ff0a0a1b          	addiw	s4,s4,-16
    80002e70:	374dd863          	bge	s11,s4,800031e0 <_vfprintf_r+0x1960>
    80002e74:	0017071b          	addiw	a4,a4,1
    80002e78:	01078793          	addi	a5,a5,16
    80002e7c:	01933023          	sd	s9,0(t1)
    80002e80:	01b33423          	sd	s11,8(t1)
    80002e84:	12f13023          	sd	a5,288(sp)
    80002e88:	10e12c23          	sw	a4,280(sp)
    80002e8c:	01030313          	addi	t1,t1,16
    80002e90:	fceadee3          	bge	s5,a4,80002e6c <_vfprintf_r+0x15ec>
    80002e94:	11010613          	addi	a2,sp,272
    80002e98:	000b8593          	mv	a1,s7
    80002e9c:	000c0513          	mv	a0,s8
    80002ea0:	3fc0a0ef          	jal	ra,8000d29c <__sprint_r>
    80002ea4:	920514e3          	bnez	a0,800027cc <_vfprintf_r+0xf4c>
    80002ea8:	12013783          	ld	a5,288(sp)
    80002eac:	11812703          	lw	a4,280(sp)
    80002eb0:	19010313          	addi	t1,sp,400
    80002eb4:	fb9ff06f          	j	80002e6c <_vfprintf_r+0x15ec>
    80002eb8:	0104f793          	andi	a5,s1,16
    80002ebc:	14078e63          	beqz	a5,80003018 <_vfprintf_r+0x1798>
    80002ec0:	00813783          	ld	a5,8(sp)
    80002ec4:	0007b983          	ld	s3,0(a5)
    80002ec8:	ec1ff06f          	j	80002d88 <_vfprintf_r+0x1508>
    80002ecc:	11010613          	addi	a2,sp,272
    80002ed0:	000b8593          	mv	a1,s7
    80002ed4:	000c0513          	mv	a0,s8
    80002ed8:	3c40a0ef          	jal	ra,8000d29c <__sprint_r>
    80002edc:	8e0518e3          	bnez	a0,800027cc <_vfprintf_r+0xf4c>
    80002ee0:	12013a83          	ld	s5,288(sp)
    80002ee4:	11812703          	lw	a4,280(sp)
    80002ee8:	19010a13          	addi	s4,sp,400
    80002eec:	8fcff06f          	j	80001fe8 <_vfprintf_r+0x768>
    80002ef0:	11010613          	addi	a2,sp,272
    80002ef4:	000b8593          	mv	a1,s7
    80002ef8:	000c0513          	mv	a0,s8
    80002efc:	3a00a0ef          	jal	ra,8000d29c <__sprint_r>
    80002f00:	8c0516e3          	bnez	a0,800027cc <_vfprintf_r+0xf4c>
    80002f04:	12013a83          	ld	s5,288(sp)
    80002f08:	11812b03          	lw	s6,280(sp)
    80002f0c:	19010a13          	addi	s4,sp,400
    80002f10:	904ff06f          	j	80002014 <_vfprintf_r+0x794>
    80002f14:	18c10a13          	addi	s4,sp,396
    80002f18:	06013803          	ld	a6,96(sp)
    80002f1c:	400b7693          	andi	a3,s6,1024
    80002f20:	00000593          	li	a1,0
    80002f24:	000a0613          	mv	a2,s4
    80002f28:	00a00493          	li	s1,10
    80002f2c:	00900713          	li	a4,9
    80002f30:	0ff00c93          	li	s9,255
    80002f34:	0140006f          	j	80002f48 <_vfprintf_r+0x16c8>
    80002f38:	0299d7b3          	divu	a5,s3,s1
    80002f3c:	03377a63          	bgeu	a4,s3,80002f70 <_vfprintf_r+0x16f0>
    80002f40:	00078993          	mv	s3,a5
    80002f44:	000d0613          	mv	a2,s10
    80002f48:	fff60d13          	addi	s10,a2,-1
    80002f4c:	0015859b          	addiw	a1,a1,1
    80002f50:	0299f7b3          	remu	a5,s3,s1
    80002f54:	0307879b          	addiw	a5,a5,48
    80002f58:	fef60fa3          	sb	a5,-1(a2)
    80002f5c:	fc068ee3          	beqz	a3,80002f38 <_vfprintf_r+0x16b8>
    80002f60:	00084783          	lbu	a5,0(a6)
    80002f64:	fcf59ae3          	bne	a1,a5,80002f38 <_vfprintf_r+0x16b8>
    80002f68:	fd9788e3          	beq	a5,s9,80002f38 <_vfprintf_r+0x16b8>
    80002f6c:	47376c63          	bltu	a4,s3,800033e4 <_vfprintf_r+0x1b64>
    80002f70:	07013023          	sd	a6,96(sp)
    80002f74:	02b13023          	sd	a1,32(sp)
    80002f78:	41aa0a3b          	subw	s4,s4,s10
    80002f7c:	000b0493          	mv	s1,s6
    80002f80:	a54ff06f          	j	800021d4 <_vfprintf_r+0x954>
    80002f84:	11812703          	lw	a4,280(sp)
    80002f88:	000236b7          	lui	a3,0x23
    80002f8c:	ef868693          	addi	a3,a3,-264 # 22ef8 <_start-0x7ffdd124>
    80002f90:	0017071b          	addiw	a4,a4,1
    80002f94:	00d33023          	sd	a3,0(t1)
    80002f98:	00178793          	addi	a5,a5,1
    80002f9c:	00100693          	li	a3,1
    80002fa0:	00d33423          	sd	a3,8(t1)
    80002fa4:	10e12c23          	sw	a4,280(sp)
    80002fa8:	0007069b          	sext.w	a3,a4
    80002fac:	12f13023          	sd	a5,288(sp)
    80002fb0:	00700713          	li	a4,7
    80002fb4:	01030313          	addi	t1,t1,16
    80002fb8:	48d74463          	blt	a4,a3,80003440 <_vfprintf_r+0x1bc0>
    80002fbc:	10061463          	bnez	a2,800030c4 <_vfprintf_r+0x1844>
    80002fc0:	02013683          	ld	a3,32(sp)
    80002fc4:	0014f713          	andi	a4,s1,1
    80002fc8:	00e6e733          	or	a4,a3,a4
    80002fcc:	00071463          	bnez	a4,80002fd4 <_vfprintf_r+0x1754>
    80002fd0:	be1fe06f          	j	80001bb0 <_vfprintf_r+0x330>
    80002fd4:	04013703          	ld	a4,64(sp)
    80002fd8:	03813683          	ld	a3,56(sp)
    80002fdc:	00e33023          	sd	a4,0(t1)
    80002fe0:	11812703          	lw	a4,280(sp)
    80002fe4:	00f687b3          	add	a5,a3,a5
    80002fe8:	00d33423          	sd	a3,8(t1)
    80002fec:	0017071b          	addiw	a4,a4,1
    80002ff0:	0007069b          	sext.w	a3,a4
    80002ff4:	10e12c23          	sw	a4,280(sp)
    80002ff8:	12f13023          	sd	a5,288(sp)
    80002ffc:	00700713          	li	a4,7
    80003000:	52d74263          	blt	a4,a3,80003524 <_vfprintf_r+0x1ca4>
    80003004:	01030313          	addi	t1,t1,16
    80003008:	0f40006f          	j	800030fc <_vfprintf_r+0x187c>
    8000300c:	00040c13          	mv	s8,s0
    80003010:	00048b93          	mv	s7,s1
    80003014:	fb8ff06f          	j	800027cc <_vfprintf_r+0xf4c>
    80003018:	00813683          	ld	a3,8(sp)
    8000301c:	0404f793          	andi	a5,s1,64
    80003020:	0006a983          	lw	s3,0(a3)
    80003024:	14078663          	beqz	a5,80003170 <_vfprintf_r+0x18f0>
    80003028:	03099993          	slli	s3,s3,0x30
    8000302c:	0309d993          	srli	s3,s3,0x30
    80003030:	d59ff06f          	j	80002d88 <_vfprintf_r+0x1508>
    80003034:	11010613          	addi	a2,sp,272
    80003038:	000b8593          	mv	a1,s7
    8000303c:	000c0513          	mv	a0,s8
    80003040:	25c0a0ef          	jal	ra,8000d29c <__sprint_r>
    80003044:	f8051463          	bnez	a0,800027cc <_vfprintf_r+0xf4c>
    80003048:	12013783          	ld	a5,288(sp)
    8000304c:	19010313          	addi	t1,sp,400
    80003050:	d34ff06f          	j	80002584 <_vfprintf_r+0xd04>
    80003054:	0017069b          	addiw	a3,a4,1
    80003058:	00068713          	mv	a4,a3
    8000305c:	014787b3          	add	a5,a5,s4
    80003060:	01933023          	sd	s9,0(t1)
    80003064:	b35fe06f          	j	80001b98 <_vfprintf_r+0x318>
    80003068:	10013503          	ld	a0,256(sp)
    8000306c:	10813583          	ld	a1,264(sp)
    80003070:	00000613          	li	a2,0
    80003074:	00000693          	li	a3,0
    80003078:	4200e0ef          	jal	ra,80011498 <__letf2>
    8000307c:	01013303          	ld	t1,16(sp)
    80003080:	0e054ee3          	bltz	a0,8000397c <_vfprintf_r+0x20fc>
    80003084:	0df14783          	lbu	a5,223(sp)
    80003088:	04700713          	li	a4,71
    8000308c:	3db74c63          	blt	a4,s11,80003464 <_vfprintf_r+0x1be4>
    80003090:	00023837          	lui	a6,0x23
    80003094:	ea080d13          	addi	s10,a6,-352 # 22ea0 <_start-0x7ffdd17c>
    80003098:	f7f4f493          	andi	s1,s1,-129
    8000309c:	00013823          	sd	zero,16(sp)
    800030a0:	02013823          	sd	zero,48(sp)
    800030a4:	02013423          	sd	zero,40(sp)
    800030a8:	00013c23          	sd	zero,24(sp)
    800030ac:	0004849b          	sext.w	s1,s1
    800030b0:	00300993          	li	s3,3
    800030b4:	00300a13          	li	s4,3
    800030b8:	00000a93          	li	s5,0
    800030bc:	8a079a63          	bnez	a5,80002170 <_vfprintf_r+0x8f0>
    800030c0:	a19fe06f          	j	80001ad8 <_vfprintf_r+0x258>
    800030c4:	04013703          	ld	a4,64(sp)
    800030c8:	03813683          	ld	a3,56(sp)
    800030cc:	01030313          	addi	t1,t1,16
    800030d0:	fee33823          	sd	a4,-16(t1)
    800030d4:	11812703          	lw	a4,280(sp)
    800030d8:	00f687b3          	add	a5,a3,a5
    800030dc:	fed33c23          	sd	a3,-8(t1)
    800030e0:	0017071b          	addiw	a4,a4,1
    800030e4:	0007069b          	sext.w	a3,a4
    800030e8:	10e12c23          	sw	a4,280(sp)
    800030ec:	12f13023          	sd	a5,288(sp)
    800030f0:	00700713          	li	a4,7
    800030f4:	42d74863          	blt	a4,a3,80003524 <_vfprintf_r+0x1ca4>
    800030f8:	16064ee3          	bltz	a2,80003a74 <_vfprintf_r+0x21f4>
    800030fc:	02013703          	ld	a4,32(sp)
    80003100:	0016861b          	addiw	a2,a3,1
    80003104:	01a33023          	sd	s10,0(t1)
    80003108:	00f707b3          	add	a5,a4,a5
    8000310c:	00e33423          	sd	a4,8(t1)
    80003110:	12f13023          	sd	a5,288(sp)
    80003114:	10c12c23          	sw	a2,280(sp)
    80003118:	00700713          	li	a4,7
    8000311c:	00c74463          	blt	a4,a2,80003124 <_vfprintf_r+0x18a4>
    80003120:	a8dfe06f          	j	80001bac <_vfprintf_r+0x32c>
    80003124:	f79fe06f          	j	8000209c <_vfprintf_r+0x81c>
    80003128:	000d0513          	mv	a0,s10
    8000312c:	06613423          	sd	t1,104(sp)
    80003130:	e5cfe0ef          	jal	ra,8000178c <strlen>
    80003134:	00050a1b          	sext.w	s4,a0
    80003138:	0df14783          	lbu	a5,223(sp)
    8000313c:	fffa4993          	not	s3,s4
    80003140:	43f9d993          	srai	s3,s3,0x3f
    80003144:	01913423          	sd	s9,8(sp)
    80003148:	00013823          	sd	zero,16(sp)
    8000314c:	02013823          	sd	zero,48(sp)
    80003150:	02013423          	sd	zero,40(sp)
    80003154:	00013c23          	sd	zero,24(sp)
    80003158:	06813303          	ld	t1,104(sp)
    8000315c:	0149f9b3          	and	s3,s3,s4
    80003160:	00000a93          	li	s5,0
    80003164:	00078463          	beqz	a5,8000316c <_vfprintf_r+0x18ec>
    80003168:	808ff06f          	j	80002170 <_vfprintf_r+0x8f0>
    8000316c:	96dfe06f          	j	80001ad8 <_vfprintf_r+0x258>
    80003170:	2004f793          	andi	a5,s1,512
    80003174:	38078263          	beqz	a5,800034f8 <_vfprintf_r+0x1c78>
    80003178:	0ff9f993          	andi	s3,s3,255
    8000317c:	c0dff06f          	j	80002d88 <_vfprintf_r+0x1508>
    80003180:	200b7793          	andi	a5,s6,512
    80003184:	36078063          	beqz	a5,800034e4 <_vfprintf_r+0x1c64>
    80003188:	0ff9f993          	andi	s3,s3,255
    8000318c:	00e13423          	sd	a4,8(sp)
    80003190:	00100793          	li	a5,1
    80003194:	814ff06f          	j	800021a8 <_vfprintf_r+0x928>
    80003198:	2004f793          	andi	a5,s1,512
    8000319c:	32078e63          	beqz	a5,800034d8 <_vfprintf_r+0x1c58>
    800031a0:	0ff9f993          	andi	s3,s3,255
    800031a4:	ff5fe06f          	j	80002198 <_vfprintf_r+0x918>
    800031a8:	2004f793          	andi	a5,s1,512
    800031ac:	30078e63          	beqz	a5,800034c8 <_vfprintf_r+0x1c48>
    800031b0:	00813783          	ld	a5,8(sp)
    800031b4:	00078983          	lb	s3,0(a5)
    800031b8:	00098793          	mv	a5,s3
    800031bc:	a80ff06f          	j	8000243c <_vfprintf_r+0xbbc>
    800031c0:	10813783          	ld	a5,264(sp)
    800031c4:	3407c063          	bltz	a5,80003504 <_vfprintf_r+0x1c84>
    800031c8:	0df14783          	lbu	a5,223(sp)
    800031cc:	04700713          	li	a4,71
    800031d0:	7fb75263          	bge	a4,s11,800039b4 <_vfprintf_r+0x2134>
    800031d4:	00023837          	lui	a6,0x23
    800031d8:	eb880d13          	addi	s10,a6,-328 # 22eb8 <_start-0x7ffdd164>
    800031dc:	ebdff06f          	j	80003098 <_vfprintf_r+0x1818>
    800031e0:	0017069b          	addiw	a3,a4,1
    800031e4:	014787b3          	add	a5,a5,s4
    800031e8:	01933023          	sd	s9,0(t1)
    800031ec:	01433423          	sd	s4,8(t1)
    800031f0:	12f13023          	sd	a5,288(sp)
    800031f4:	10d12c23          	sw	a3,280(sp)
    800031f8:	00700713          	li	a4,7
    800031fc:	01030313          	addi	t1,t1,16
    80003200:	82d754e3          	bge	a4,a3,80002a28 <_vfprintf_r+0x11a8>
    80003204:	11010613          	addi	a2,sp,272
    80003208:	000b8593          	mv	a1,s7
    8000320c:	000c0513          	mv	a0,s8
    80003210:	08c0a0ef          	jal	ra,8000d29c <__sprint_r>
    80003214:	da051c63          	bnez	a0,800027cc <_vfprintf_r+0xf4c>
    80003218:	12013783          	ld	a5,288(sp)
    8000321c:	19010313          	addi	t1,sp,400
    80003220:	809ff06f          	j	80002a28 <_vfprintf_r+0x11a8>
    80003224:	02013703          	ld	a4,32(sp)
    80003228:	06913423          	sd	s1,104(sp)
    8000322c:	03013483          	ld	s1,48(sp)
    80003230:	03313823          	sd	s3,48(sp)
    80003234:	02813983          	ld	s3,40(sp)
    80003238:	00ed0733          	add	a4,s10,a4
    8000323c:	00023eb7          	lui	t4,0x23
    80003240:	00813c23          	sd	s0,24(sp)
    80003244:	07213823          	sd	s2,112(sp)
    80003248:	03a13423          	sd	s10,40(sp)
    8000324c:	06013403          	ld	s0,96(sp)
    80003250:	000b8d13          	mv	s10,s7
    80003254:	07813903          	ld	s2,120(sp)
    80003258:	00700a13          	li	s4,7
    8000325c:	01000d93          	li	s11,16
    80003260:	080e8c93          	addi	s9,t4,128 # 23080 <_start-0x7ffdcf9c>
    80003264:	00070b93          	mv	s7,a4
    80003268:	0a098063          	beqz	s3,80003308 <_vfprintf_r+0x1a88>
    8000326c:	0a049063          	bnez	s1,8000330c <_vfprintf_r+0x1a8c>
    80003270:	fff40413          	addi	s0,s0,-1
    80003274:	fff9899b          	addiw	s3,s3,-1
    80003278:	05813703          	ld	a4,88(sp)
    8000327c:	012787b3          	add	a5,a5,s2
    80003280:	01233423          	sd	s2,8(t1)
    80003284:	00e33023          	sd	a4,0(t1)
    80003288:	11812703          	lw	a4,280(sp)
    8000328c:	12f13023          	sd	a5,288(sp)
    80003290:	01030313          	addi	t1,t1,16
    80003294:	0017069b          	addiw	a3,a4,1
    80003298:	10d12c23          	sw	a3,280(sp)
    8000329c:	10da4063          	blt	s4,a3,8000339c <_vfprintf_r+0x1b1c>
    800032a0:	00044603          	lbu	a2,0(s0)
    800032a4:	415b853b          	subw	a0,s7,s5
    800032a8:	0006071b          	sext.w	a4,a2
    800032ac:	00070693          	mv	a3,a4
    800032b0:	00e55463          	bge	a0,a4,800032b8 <_vfprintf_r+0x1a38>
    800032b4:	00050693          	mv	a3,a0
    800032b8:	00068b1b          	sext.w	s6,a3
    800032bc:	03605863          	blez	s6,800032ec <_vfprintf_r+0x1a6c>
    800032c0:	11812703          	lw	a4,280(sp)
    800032c4:	016787b3          	add	a5,a5,s6
    800032c8:	01533023          	sd	s5,0(t1)
    800032cc:	0017061b          	addiw	a2,a4,1
    800032d0:	01633423          	sd	s6,8(t1)
    800032d4:	12f13023          	sd	a5,288(sp)
    800032d8:	10c12c23          	sw	a2,280(sp)
    800032dc:	0eca4063          	blt	s4,a2,800033bc <_vfprintf_r+0x1b3c>
    800032e0:	00044603          	lbu	a2,0(s0)
    800032e4:	01030313          	addi	t1,t1,16
    800032e8:	0006071b          	sext.w	a4,a2
    800032ec:	fffb4513          	not	a0,s6
    800032f0:	43f55513          	srai	a0,a0,0x3f
    800032f4:	00ab76b3          	and	a3,s6,a0
    800032f8:	40d70b3b          	subw	s6,a4,a3
    800032fc:	01604c63          	bgtz	s6,80003314 <_vfprintf_r+0x1a94>
    80003300:	00ca8ab3          	add	s5,s5,a2
    80003304:	f60994e3          	bnez	s3,8000326c <_vfprintf_r+0x19ec>
    80003308:	46048c63          	beqz	s1,80003780 <_vfprintf_r+0x1f00>
    8000330c:	fff4849b          	addiw	s1,s1,-1
    80003310:	f69ff06f          	j	80003278 <_vfprintf_r+0x19f8>
    80003314:	11812683          	lw	a3,280(sp)
    80003318:	016dc863          	blt	s11,s6,80003328 <_vfprintf_r+0x1aa8>
    8000331c:	0540006f          	j	80003370 <_vfprintf_r+0x1af0>
    80003320:	ff0b0b1b          	addiw	s6,s6,-16
    80003324:	056dd663          	bge	s11,s6,80003370 <_vfprintf_r+0x1af0>
    80003328:	0016869b          	addiw	a3,a3,1
    8000332c:	01078793          	addi	a5,a5,16
    80003330:	01933023          	sd	s9,0(t1)
    80003334:	01b33423          	sd	s11,8(t1)
    80003338:	12f13023          	sd	a5,288(sp)
    8000333c:	10d12c23          	sw	a3,280(sp)
    80003340:	01030313          	addi	t1,t1,16
    80003344:	fcda5ee3          	bge	s4,a3,80003320 <_vfprintf_r+0x1aa0>
    80003348:	11010613          	addi	a2,sp,272
    8000334c:	000d0593          	mv	a1,s10
    80003350:	000c0513          	mv	a0,s8
    80003354:	749090ef          	jal	ra,8000d29c <__sprint_r>
    80003358:	4e051263          	bnez	a0,8000383c <_vfprintf_r+0x1fbc>
    8000335c:	ff0b0b1b          	addiw	s6,s6,-16
    80003360:	12013783          	ld	a5,288(sp)
    80003364:	11812683          	lw	a3,280(sp)
    80003368:	19010313          	addi	t1,sp,400
    8000336c:	fb6dcee3          	blt	s11,s6,80003328 <_vfprintf_r+0x1aa8>
    80003370:	0016871b          	addiw	a4,a3,1
    80003374:	016787b3          	add	a5,a5,s6
    80003378:	01933023          	sd	s9,0(t1)
    8000337c:	01633423          	sd	s6,8(t1)
    80003380:	12f13023          	sd	a5,288(sp)
    80003384:	10e12c23          	sw	a4,280(sp)
    80003388:	4cea4e63          	blt	s4,a4,80003864 <_vfprintf_r+0x1fe4>
    8000338c:	00044603          	lbu	a2,0(s0)
    80003390:	01030313          	addi	t1,t1,16
    80003394:	00ca8ab3          	add	s5,s5,a2
    80003398:	f6dff06f          	j	80003304 <_vfprintf_r+0x1a84>
    8000339c:	11010613          	addi	a2,sp,272
    800033a0:	000d0593          	mv	a1,s10
    800033a4:	000c0513          	mv	a0,s8
    800033a8:	6f5090ef          	jal	ra,8000d29c <__sprint_r>
    800033ac:	48051863          	bnez	a0,8000383c <_vfprintf_r+0x1fbc>
    800033b0:	12013783          	ld	a5,288(sp)
    800033b4:	19010313          	addi	t1,sp,400
    800033b8:	ee9ff06f          	j	800032a0 <_vfprintf_r+0x1a20>
    800033bc:	11010613          	addi	a2,sp,272
    800033c0:	000d0593          	mv	a1,s10
    800033c4:	000c0513          	mv	a0,s8
    800033c8:	6d5090ef          	jal	ra,8000d29c <__sprint_r>
    800033cc:	46051863          	bnez	a0,8000383c <_vfprintf_r+0x1fbc>
    800033d0:	00044603          	lbu	a2,0(s0)
    800033d4:	12013783          	ld	a5,288(sp)
    800033d8:	19010313          	addi	t1,sp,400
    800033dc:	0006071b          	sext.w	a4,a2
    800033e0:	f0dff06f          	j	800032ec <_vfprintf_r+0x1a6c>
    800033e4:	07813783          	ld	a5,120(sp)
    800033e8:	05813583          	ld	a1,88(sp)
    800033ec:	02613023          	sd	t1,32(sp)
    800033f0:	40fd0d33          	sub	s10,s10,a5
    800033f4:	00078613          	mv	a2,a5
    800033f8:	000d0513          	mv	a0,s10
    800033fc:	00d13c23          	sd	a3,24(sp)
    80003400:	01013823          	sd	a6,16(sp)
    80003404:	774070ef          	jal	ra,8000ab78 <strncpy>
    80003408:	01013803          	ld	a6,16(sp)
    8000340c:	0299d7b3          	divu	a5,s3,s1
    80003410:	01813683          	ld	a3,24(sp)
    80003414:	00184603          	lbu	a2,1(a6)
    80003418:	02013303          	ld	t1,32(sp)
    8000341c:	00000593          	li	a1,0
    80003420:	00c03633          	snez	a2,a2
    80003424:	00c80833          	add	a6,a6,a2
    80003428:	00900713          	li	a4,9
    8000342c:	b15ff06f          	j	80002f40 <_vfprintf_r+0x16c0>
    80003430:	0016869b          	addiw	a3,a3,1
    80003434:	01060313          	addi	t1,a2,16
    80003438:	00060a13          	mv	s4,a2
    8000343c:	c3dfe06f          	j	80002078 <_vfprintf_r+0x7f8>
    80003440:	11010613          	addi	a2,sp,272
    80003444:	000b8593          	mv	a1,s7
    80003448:	000c0513          	mv	a0,s8
    8000344c:	651090ef          	jal	ra,8000d29c <__sprint_r>
    80003450:	b6051e63          	bnez	a0,800027cc <_vfprintf_r+0xf4c>
    80003454:	0e812603          	lw	a2,232(sp)
    80003458:	12013783          	ld	a5,288(sp)
    8000345c:	19010313          	addi	t1,sp,400
    80003460:	b5dff06f          	j	80002fbc <_vfprintf_r+0x173c>
    80003464:	00023837          	lui	a6,0x23
    80003468:	ea880d13          	addi	s10,a6,-344 # 22ea8 <_start-0x7ffdd174>
    8000346c:	c2dff06f          	j	80003098 <_vfprintf_r+0x1818>
    80003470:	11010613          	addi	a2,sp,272
    80003474:	000b8593          	mv	a1,s7
    80003478:	000c0513          	mv	a0,s8
    8000347c:	621090ef          	jal	ra,8000d29c <__sprint_r>
    80003480:	b4051663          	bnez	a0,800027cc <_vfprintf_r+0xf4c>
    80003484:	12013783          	ld	a5,288(sp)
    80003488:	19010313          	addi	t1,sp,400
    8000348c:	d84ff06f          	j	80002a10 <_vfprintf_r+0x1190>
    80003490:	00600a13          	li	s4,6
    80003494:	9a5ff06f          	j	80002e38 <_vfprintf_r+0x15b8>
    80003498:	02013683          	ld	a3,32(sp)
    8000349c:	00dd0833          	add	a6,s10,a3
    800034a0:	40e6863b          	subw	a2,a3,a4
    800034a4:	41580f3b          	subw	t5,a6,s5
    800034a8:	00060a13          	mv	s4,a2
    800034ac:	e2cf5063          	bge	t5,a2,80002acc <_vfprintf_r+0x124c>
    800034b0:	000f0a1b          	sext.w	s4,t5
    800034b4:	e18ff06f          	j	80002acc <_vfprintf_r+0x124c>
    800034b8:	00013783          	ld	a5,0(sp)
    800034bc:	00040d13          	mv	s10,s0
    800034c0:	00f71023          	sh	a5,0(a4)
    800034c4:	f38fe06f          	j	80001bfc <_vfprintf_r+0x37c>
    800034c8:	00813783          	ld	a5,8(sp)
    800034cc:	0007a983          	lw	s3,0(a5)
    800034d0:	00098793          	mv	a5,s3
    800034d4:	f69fe06f          	j	8000243c <_vfprintf_r+0xbbc>
    800034d8:	02099993          	slli	s3,s3,0x20
    800034dc:	0209d993          	srli	s3,s3,0x20
    800034e0:	cb9fe06f          	j	80002198 <_vfprintf_r+0x918>
    800034e4:	02099993          	slli	s3,s3,0x20
    800034e8:	0209d993          	srli	s3,s3,0x20
    800034ec:	00e13423          	sd	a4,8(sp)
    800034f0:	00100793          	li	a5,1
    800034f4:	cb5fe06f          	j	800021a8 <_vfprintf_r+0x928>
    800034f8:	02099993          	slli	s3,s3,0x20
    800034fc:	0209d993          	srli	s3,s3,0x20
    80003500:	889ff06f          	j	80002d88 <_vfprintf_r+0x1508>
    80003504:	02d00793          	li	a5,45
    80003508:	0cf10fa3          	sb	a5,223(sp)
    8000350c:	cc1ff06f          	j	800031cc <_vfprintf_r+0x194c>
    80003510:	11010613          	addi	a2,sp,272
    80003514:	000b8593          	mv	a1,s7
    80003518:	000c0513          	mv	a0,s8
    8000351c:	581090ef          	jal	ra,8000d29c <__sprint_r>
    80003520:	ef0fe06f          	j	80001c10 <_vfprintf_r+0x390>
    80003524:	11010613          	addi	a2,sp,272
    80003528:	000b8593          	mv	a1,s7
    8000352c:	000c0513          	mv	a0,s8
    80003530:	56d090ef          	jal	ra,8000d29c <__sprint_r>
    80003534:	a8051c63          	bnez	a0,800027cc <_vfprintf_r+0xf4c>
    80003538:	0e812603          	lw	a2,232(sp)
    8000353c:	12013783          	ld	a5,288(sp)
    80003540:	11812683          	lw	a3,280(sp)
    80003544:	19010313          	addi	t1,sp,400
    80003548:	bb1ff06f          	j	800030f8 <_vfprintf_r+0x1878>
    8000354c:	03000793          	li	a5,48
    80003550:	0ef10023          	sb	a5,224(sp)
    80003554:	05800713          	li	a4,88
    80003558:	0024e793          	ori	a5,s1,2
    8000355c:	0007879b          	sext.w	a5,a5
    80003560:	0ee100a3          	sb	a4,225(sp)
    80003564:	02f13823          	sd	a5,48(sp)
    80003568:	06300713          	li	a4,99
    8000356c:	00013823          	sd	zero,16(sp)
    80003570:	12810d13          	addi	s10,sp,296
    80003574:	61574863          	blt	a4,s5,80003b84 <_vfprintf_r+0x2304>
    80003578:	10813a03          	ld	s4,264(sp)
    8000357c:	fdfdf793          	andi	a5,s11,-33
    80003580:	1024e493          	ori	s1,s1,258
    80003584:	02f13423          	sd	a5,40(sp)
    80003588:	06013423          	sd	zero,104(sp)
    8000358c:	10013b03          	ld	s6,256(sp)
    80003590:	0004849b          	sext.w	s1,s1
    80003594:	2a0a4c63          	bltz	s4,8000384c <_vfprintf_r+0x1fcc>
    80003598:	06100793          	li	a5,97
    8000359c:	6efd8c63          	beq	s11,a5,80003c94 <_vfprintf_r+0x2414>
    800035a0:	04100793          	li	a5,65
    800035a4:	00fd8463          	beq	s11,a5,800035ac <_vfprintf_r+0x1d2c>
    800035a8:	ffcfe06f          	j	80001da4 <_vfprintf_r+0x524>
    800035ac:	000a0593          	mv	a1,s4
    800035b0:	000b0513          	mv	a0,s6
    800035b4:	02613023          	sd	t1,32(sp)
    800035b8:	7f50e0ef          	jal	ra,800125ac <__trunctfdf2>
    800035bc:	0e810593          	addi	a1,sp,232
    800035c0:	1dc070ef          	jal	ra,8000a79c <frexp>
    800035c4:	6f90e0ef          	jal	ra,800124bc <__extenddftf2>
    800035c8:	08813683          	ld	a3,136(sp)
    800035cc:	00000613          	li	a2,0
    800035d0:	7a90d0ef          	jal	ra,80011578 <__multf3>
    800035d4:	00000613          	li	a2,0
    800035d8:	00000693          	li	a3,0
    800035dc:	00050a13          	mv	s4,a0
    800035e0:	00b13c23          	sd	a1,24(sp)
    800035e4:	5490d0ef          	jal	ra,8001132c <__eqtf2>
    800035e8:	01813f03          	ld	t5,24(sp)
    800035ec:	02013303          	ld	t1,32(sp)
    800035f0:	00051663          	bnez	a0,800035fc <_vfprintf_r+0x1d7c>
    800035f4:	00100793          	li	a5,1
    800035f8:	0ef12423          	sw	a5,232(sp)
    800035fc:	000237b7          	lui	a5,0x23
    80003600:	ec078793          	addi	a5,a5,-320 # 22ec0 <_start-0x7ffdd15c>
    80003604:	00f13c23          	sd	a5,24(sp)
    80003608:	020a9793          	slli	a5,s5,0x20
    8000360c:	0207d793          	srli	a5,a5,0x20
    80003610:	00178793          	addi	a5,a5,1
    80003614:	015d073b          	addw	a4,s10,s5
    80003618:	00fd07b3          	add	a5,s10,a5
    8000361c:	07b13823          	sd	s11,112(sp)
    80003620:	08813c23          	sd	s0,152(sp)
    80003624:	0a913023          	sd	s1,160(sp)
    80003628:	0b513823          	sd	s5,176(sp)
    8000362c:	01813403          	ld	s0,24(sp)
    80003630:	000a0a93          	mv	s5,s4
    80003634:	00078d93          	mv	s11,a5
    80003638:	0b213423          	sd	s2,168(sp)
    8000363c:	0a613c23          	sd	t1,184(sp)
    80003640:	0d813023          	sd	s8,192(sp)
    80003644:	0d713423          	sd	s7,200(sp)
    80003648:	000d0a13          	mv	s4,s10
    8000364c:	000f0b13          	mv	s6,t5
    80003650:	00070493          	mv	s1,a4
    80003654:	0140006f          	j	80003668 <_vfprintf_r+0x1de8>
    80003658:	00000613          	li	a2,0
    8000365c:	00000693          	li	a3,0
    80003660:	4cd0d0ef          	jal	ra,8001132c <__eqtf2>
    80003664:	5c050463          	beqz	a0,80003c2c <_vfprintf_r+0x23ac>
    80003668:	08013683          	ld	a3,128(sp)
    8000366c:	00000613          	li	a2,0
    80003670:	000a8513          	mv	a0,s5
    80003674:	000b0593          	mv	a1,s6
    80003678:	7010d0ef          	jal	ra,80011578 <__multf3>
    8000367c:	00058913          	mv	s2,a1
    80003680:	00050993          	mv	s3,a0
    80003684:	5490e0ef          	jal	ra,800123cc <__fixtfsi>
    80003688:	00050b9b          	sext.w	s7,a0
    8000368c:	000b8513          	mv	a0,s7
    80003690:	5a50e0ef          	jal	ra,80012434 <__floatsitf>
    80003694:	00058693          	mv	a3,a1
    80003698:	00050613          	mv	a2,a0
    8000369c:	00090593          	mv	a1,s2
    800036a0:	00098513          	mv	a0,s3
    800036a4:	54c0e0ef          	jal	ra,80011bf0 <__subtf3>
    800036a8:	017406b3          	add	a3,s0,s7
    800036ac:	0006c683          	lbu	a3,0(a3)
    800036b0:	000a0993          	mv	s3,s4
    800036b4:	001a0a13          	addi	s4,s4,1
    800036b8:	feda0fa3          	sb	a3,-1(s4)
    800036bc:	00050c13          	mv	s8,a0
    800036c0:	00050a93          	mv	s5,a0
    800036c4:	00058b13          	mv	s6,a1
    800036c8:	4144893b          	subw	s2,s1,s4
    800036cc:	f94d96e3          	bne	s11,s4,80003658 <_vfprintf_r+0x1dd8>
    800036d0:	07013d83          	ld	s11,112(sp)
    800036d4:	09813403          	ld	s0,152(sp)
    800036d8:	07313823          	sd	s3,112(sp)
    800036dc:	0a013483          	ld	s1,160(sp)
    800036e0:	000b8993          	mv	s3,s7
    800036e4:	0a813903          	ld	s2,168(sp)
    800036e8:	0b013a83          	ld	s5,176(sp)
    800036ec:	0b813303          	ld	t1,184(sp)
    800036f0:	0c813b83          	ld	s7,200(sp)
    800036f4:	0c013c03          	ld	s8,192(sp)
    800036f8:	fff00793          	li	a5,-1
    800036fc:	00050893          	mv	a7,a0
    80003700:	000a0c93          	mv	s9,s4
    80003704:	02f13023          	sd	a5,32(sp)
    80003708:	09013683          	ld	a3,144(sp)
    8000370c:	00000613          	li	a2,0
    80003710:	00088513          	mv	a0,a7
    80003714:	000b0593          	mv	a1,s6
    80003718:	08613c23          	sd	t1,152(sp)
    8000371c:	0b113023          	sd	a7,160(sp)
    80003720:	4990d0ef          	jal	ra,800113b8 <__getf2>
    80003724:	09813303          	ld	t1,152(sp)
    80003728:	48a04063          	bgtz	a0,80003ba8 <_vfprintf_r+0x2328>
    8000372c:	0a013883          	ld	a7,160(sp)
    80003730:	09013683          	ld	a3,144(sp)
    80003734:	00000613          	li	a2,0
    80003738:	00088513          	mv	a0,a7
    8000373c:	000b0593          	mv	a1,s6
    80003740:	3ed0d0ef          	jal	ra,8001132c <__eqtf2>
    80003744:	09813303          	ld	t1,152(sp)
    80003748:	00051663          	bnez	a0,80003754 <_vfprintf_r+0x1ed4>
    8000374c:	0019f993          	andi	s3,s3,1
    80003750:	44099c63          	bnez	s3,80003ba8 <_vfprintf_r+0x2328>
    80003754:	02013783          	ld	a5,32(sp)
    80003758:	03000693          	li	a3,48
    8000375c:	0017871b          	addiw	a4,a5,1
    80003760:	00ec8733          	add	a4,s9,a4
    80003764:	0007c863          	bltz	a5,80003774 <_vfprintf_r+0x1ef4>
    80003768:	001c8c93          	addi	s9,s9,1
    8000376c:	fedc8fa3          	sb	a3,-1(s9)
    80003770:	ff971ce3          	bne	a4,s9,80003768 <_vfprintf_r+0x1ee8>
    80003774:	41ac87bb          	subw	a5,s9,s10
    80003778:	02f13023          	sd	a5,32(sp)
    8000377c:	ea0fe06f          	j	80001e1c <_vfprintf_r+0x59c>
    80003780:	02013703          	ld	a4,32(sp)
    80003784:	000d0b93          	mv	s7,s10
    80003788:	02813d03          	ld	s10,40(sp)
    8000378c:	06813023          	sd	s0,96(sp)
    80003790:	06813483          	ld	s1,104(sp)
    80003794:	00ed0733          	add	a4,s10,a4
    80003798:	01813403          	ld	s0,24(sp)
    8000379c:	07013903          	ld	s2,112(sp)
    800037a0:	03013983          	ld	s3,48(sp)
    800037a4:	a9577a63          	bgeu	a4,s5,80002a38 <_vfprintf_r+0x11b8>
    800037a8:	00070a93          	mv	s5,a4
    800037ac:	a8cff06f          	j	80002a38 <_vfprintf_r+0x11b8>
    800037b0:	01813703          	ld	a4,24(sp)
    800037b4:	ffd00793          	li	a5,-3
    800037b8:	00f74463          	blt	a4,a5,800037c0 <_vfprintf_r+0x1f40>
    800037bc:	02ead463          	bge	s5,a4,800037e4 <_vfprintf_r+0x1f64>
    800037c0:	ffed8d9b          	addiw	s11,s11,-2
    800037c4:	fdfdf793          	andi	a5,s11,-33
    800037c8:	02f13423          	sd	a5,40(sp)
    800037cc:	e78fe06f          	j	80001e44 <_vfprintf_r+0x5c4>
    800037d0:	0df14783          	lbu	a5,223(sp)
    800037d4:	00000a93          	li	s5,0
    800037d8:	00078463          	beqz	a5,800037e0 <_vfprintf_r+0x1f60>
    800037dc:	995fe06f          	j	80002170 <_vfprintf_r+0x8f0>
    800037e0:	af8fe06f          	j	80001ad8 <_vfprintf_r+0x258>
    800037e4:	01813703          	ld	a4,24(sp)
    800037e8:	02013783          	ld	a5,32(sp)
    800037ec:	24f74263          	blt	a4,a5,80003a30 <_vfprintf_r+0x21b0>
    800037f0:	03013783          	ld	a5,48(sp)
    800037f4:	00070a13          	mv	s4,a4
    800037f8:	0017f793          	andi	a5,a5,1
    800037fc:	00078663          	beqz	a5,80003808 <_vfprintf_r+0x1f88>
    80003800:	03813783          	ld	a5,56(sp)
    80003804:	00e78a3b          	addw	s4,a5,a4
    80003808:	03013783          	ld	a5,48(sp)
    8000380c:	4007f793          	andi	a5,a5,1024
    80003810:	00078663          	beqz	a5,8000381c <_vfprintf_r+0x1f9c>
    80003814:	01813783          	ld	a5,24(sp)
    80003818:	4cf04e63          	bgtz	a5,80003cf4 <_vfprintf_r+0x2474>
    8000381c:	fffa4993          	not	s3,s4
    80003820:	43f9d993          	srai	s3,s3,0x3f
    80003824:	013a79b3          	and	s3,s4,s3
    80003828:	0009899b          	sext.w	s3,s3
    8000382c:	06700d93          	li	s11,103
    80003830:	02013823          	sd	zero,48(sp)
    80003834:	02013423          	sd	zero,40(sp)
    80003838:	f34fe06f          	j	80001f6c <_vfprintf_r+0x6ec>
    8000383c:	000d0b93          	mv	s7,s10
    80003840:	f8dfe06f          	j	800027cc <_vfprintf_r+0xf4c>
    80003844:	00013823          	sd	zero,16(sp)
    80003848:	00078493          	mv	s1,a5
    8000384c:	fff00793          	li	a5,-1
    80003850:	03f79793          	slli	a5,a5,0x3f
    80003854:	00fa4a33          	xor	s4,s4,a5
    80003858:	02d00793          	li	a5,45
    8000385c:	06f13423          	sd	a5,104(sp)
    80003860:	d39ff06f          	j	80003598 <_vfprintf_r+0x1d18>
    80003864:	11010613          	addi	a2,sp,272
    80003868:	000d0593          	mv	a1,s10
    8000386c:	000c0513          	mv	a0,s8
    80003870:	22d090ef          	jal	ra,8000d29c <__sprint_r>
    80003874:	fc0514e3          	bnez	a0,8000383c <_vfprintf_r+0x1fbc>
    80003878:	00044603          	lbu	a2,0(s0)
    8000387c:	12013783          	ld	a5,288(sp)
    80003880:	19010313          	addi	t1,sp,400
    80003884:	00ca8ab3          	add	s5,s5,a2
    80003888:	a7dff06f          	j	80003304 <_vfprintf_r+0x1a84>
    8000388c:	0e810793          	addi	a5,sp,232
    80003890:	000a8713          	mv	a4,s5
    80003894:	0f810893          	addi	a7,sp,248
    80003898:	0ec10813          	addi	a6,sp,236
    8000389c:	00300693          	li	a3,3
    800038a0:	000b0593          	mv	a1,s6
    800038a4:	000a0613          	mv	a2,s4
    800038a8:	000c0513          	mv	a0,s8
    800038ac:	00613c23          	sd	t1,24(sp)
    800038b0:	594030ef          	jal	ra,80006e44 <_ldtoa_r>
    800038b4:	00054703          	lbu	a4,0(a0)
    800038b8:	03000793          	li	a5,48
    800038bc:	01813303          	ld	t1,24(sp)
    800038c0:	00050d13          	mv	s10,a0
    800038c4:	06f70063          	beq	a4,a5,80003924 <_vfprintf_r+0x20a4>
    800038c8:	0e812783          	lw	a5,232(sp)
    800038cc:	015787b3          	add	a5,a5,s5
    800038d0:	00fd09b3          	add	s3,s10,a5
    800038d4:	00000693          	li	a3,0
    800038d8:	00000613          	li	a2,0
    800038dc:	000b0513          	mv	a0,s6
    800038e0:	000a0593          	mv	a1,s4
    800038e4:	00613c23          	sd	t1,24(sp)
    800038e8:	2450d0ef          	jal	ra,8001132c <__eqtf2>
    800038ec:	01813303          	ld	t1,24(sp)
    800038f0:	00098693          	mv	a3,s3
    800038f4:	00051463          	bnez	a0,800038fc <_vfprintf_r+0x207c>
    800038f8:	d1cfe06f          	j	80001e14 <_vfprintf_r+0x594>
    800038fc:	0f813683          	ld	a3,248(sp)
    80003900:	0136e463          	bltu	a3,s3,80003908 <_vfprintf_r+0x2088>
    80003904:	d10fe06f          	j	80001e14 <_vfprintf_r+0x594>
    80003908:	03000713          	li	a4,48
    8000390c:	00168793          	addi	a5,a3,1
    80003910:	0ef13c23          	sd	a5,248(sp)
    80003914:	00e68023          	sb	a4,0(a3)
    80003918:	0f813683          	ld	a3,248(sp)
    8000391c:	ff36e8e3          	bltu	a3,s3,8000390c <_vfprintf_r+0x208c>
    80003920:	cf4fe06f          	j	80001e14 <_vfprintf_r+0x594>
    80003924:	00000613          	li	a2,0
    80003928:	00000693          	li	a3,0
    8000392c:	000b0513          	mv	a0,s6
    80003930:	000a0593          	mv	a1,s4
    80003934:	00613c23          	sd	t1,24(sp)
    80003938:	1f50d0ef          	jal	ra,8001132c <__eqtf2>
    8000393c:	01813303          	ld	t1,24(sp)
    80003940:	f80504e3          	beqz	a0,800038c8 <_vfprintf_r+0x2048>
    80003944:	00100713          	li	a4,1
    80003948:	415707bb          	subw	a5,a4,s5
    8000394c:	0ef12423          	sw	a5,232(sp)
    80003950:	f7dff06f          	j	800038cc <_vfprintf_r+0x204c>
    80003954:	11010613          	addi	a2,sp,272
    80003958:	000b8593          	mv	a1,s7
    8000395c:	000c0513          	mv	a0,s8
    80003960:	13d090ef          	jal	ra,8000d29c <__sprint_r>
    80003964:	00050463          	beqz	a0,8000396c <_vfprintf_r+0x20ec>
    80003968:	e65fe06f          	j	800027cc <_vfprintf_r+0xf4c>
    8000396c:	0e812703          	lw	a4,232(sp)
    80003970:	12013783          	ld	a5,288(sp)
    80003974:	19010313          	addi	t1,sp,400
    80003978:	908ff06f          	j	80002a80 <_vfprintf_r+0x1200>
    8000397c:	02d00793          	li	a5,45
    80003980:	0cf10fa3          	sb	a5,223(sp)
    80003984:	f04ff06f          	j	80003088 <_vfprintf_r+0x1808>
    80003988:	0df14783          	lbu	a5,223(sp)
    8000398c:	01913423          	sd	s9,8(sp)
    80003990:	02013823          	sd	zero,48(sp)
    80003994:	02013423          	sd	zero,40(sp)
    80003998:	00013c23          	sd	zero,24(sp)
    8000399c:	000a8993          	mv	s3,s5
    800039a0:	000a8a13          	mv	s4,s5
    800039a4:	00000a93          	li	s5,0
    800039a8:	00078463          	beqz	a5,800039b0 <_vfprintf_r+0x2130>
    800039ac:	fc4fe06f          	j	80002170 <_vfprintf_r+0x8f0>
    800039b0:	928fe06f          	j	80001ad8 <_vfprintf_r+0x258>
    800039b4:	00023837          	lui	a6,0x23
    800039b8:	eb080d13          	addi	s10,a6,-336 # 22eb0 <_start-0x7ffdd16c>
    800039bc:	edcff06f          	j	80003098 <_vfprintf_r+0x1818>
    800039c0:	03013783          	ld	a5,48(sp)
    800039c4:	01813703          	ld	a4,24(sp)
    800039c8:	0017f793          	andi	a5,a5,1
    800039cc:	00fae7b3          	or	a5,s5,a5
    800039d0:	3ce05e63          	blez	a4,80003dac <_vfprintf_r+0x252c>
    800039d4:	3a079863          	bnez	a5,80003d84 <_vfprintf_r+0x2504>
    800039d8:	01813a03          	ld	s4,24(sp)
    800039dc:	06600d93          	li	s11,102
    800039e0:	03013783          	ld	a5,48(sp)
    800039e4:	4007f793          	andi	a5,a5,1024
    800039e8:	30079863          	bnez	a5,80003cf8 <_vfprintf_r+0x2478>
    800039ec:	fffa4993          	not	s3,s4
    800039f0:	43f9d993          	srai	s3,s3,0x3f
    800039f4:	013a79b3          	and	s3,s4,s3
    800039f8:	0009899b          	sext.w	s3,s3
    800039fc:	e35ff06f          	j	80003830 <_vfprintf_r+0x1fb0>
    80003a00:	11010613          	addi	a2,sp,272
    80003a04:	000b8593          	mv	a1,s7
    80003a08:	000c0513          	mv	a0,s8
    80003a0c:	091090ef          	jal	ra,8000d29c <__sprint_r>
    80003a10:	00050463          	beqz	a0,80003a18 <_vfprintf_r+0x2198>
    80003a14:	db9fe06f          	j	800027cc <_vfprintf_r+0xf4c>
    80003a18:	0e812603          	lw	a2,232(sp)
    80003a1c:	02013703          	ld	a4,32(sp)
    80003a20:	12013783          	ld	a5,288(sp)
    80003a24:	19010313          	addi	t1,sp,400
    80003a28:	40c7063b          	subw	a2,a4,a2
    80003a2c:	8a0ff06f          	j	80002acc <_vfprintf_r+0x124c>
    80003a30:	02013703          	ld	a4,32(sp)
    80003a34:	03813783          	ld	a5,56(sp)
    80003a38:	06700d93          	li	s11,103
    80003a3c:	00e78a3b          	addw	s4,a5,a4
    80003a40:	01813703          	ld	a4,24(sp)
    80003a44:	f8e04ee3          	bgtz	a4,800039e0 <_vfprintf_r+0x2160>
    80003a48:	40ea07bb          	subw	a5,s4,a4
    80003a4c:	0017879b          	addiw	a5,a5,1
    80003a50:	00078a1b          	sext.w	s4,a5
    80003a54:	fffa4993          	not	s3,s4
    80003a58:	43f9d993          	srai	s3,s3,0x3f
    80003a5c:	0137f7b3          	and	a5,a5,s3
    80003a60:	0007899b          	sext.w	s3,a5
    80003a64:	dcdff06f          	j	80003830 <_vfprintf_r+0x1fb0>
    80003a68:	fff00793          	li	a5,-1
    80003a6c:	00f13023          	sd	a5,0(sp)
    80003a70:	9b0fe06f          	j	80001c20 <_vfprintf_r+0x3a0>
    80003a74:	000238b7          	lui	a7,0x23
    80003a78:	ff000713          	li	a4,-16
    80003a7c:	40c00b3b          	negw	s6,a2
    80003a80:	08088c93          	addi	s9,a7,128 # 23080 <_start-0x7ffdcf9c>
    80003a84:	01000a13          	li	s4,16
    80003a88:	00700a93          	li	s5,7
    80003a8c:	00e64863          	blt	a2,a4,80003a9c <_vfprintf_r+0x221c>
    80003a90:	0540006f          	j	80003ae4 <_vfprintf_r+0x2264>
    80003a94:	ff0b0b1b          	addiw	s6,s6,-16
    80003a98:	056a5663          	bge	s4,s6,80003ae4 <_vfprintf_r+0x2264>
    80003a9c:	0016869b          	addiw	a3,a3,1
    80003aa0:	01078793          	addi	a5,a5,16
    80003aa4:	01933023          	sd	s9,0(t1)
    80003aa8:	01433423          	sd	s4,8(t1)
    80003aac:	12f13023          	sd	a5,288(sp)
    80003ab0:	10d12c23          	sw	a3,280(sp)
    80003ab4:	01030313          	addi	t1,t1,16
    80003ab8:	fcdadee3          	bge	s5,a3,80003a94 <_vfprintf_r+0x2214>
    80003abc:	11010613          	addi	a2,sp,272
    80003ac0:	000b8593          	mv	a1,s7
    80003ac4:	000c0513          	mv	a0,s8
    80003ac8:	7d4090ef          	jal	ra,8000d29c <__sprint_r>
    80003acc:	00050463          	beqz	a0,80003ad4 <_vfprintf_r+0x2254>
    80003ad0:	cfdfe06f          	j	800027cc <_vfprintf_r+0xf4c>
    80003ad4:	12013783          	ld	a5,288(sp)
    80003ad8:	11812683          	lw	a3,280(sp)
    80003adc:	19010313          	addi	t1,sp,400
    80003ae0:	fb5ff06f          	j	80003a94 <_vfprintf_r+0x2214>
    80003ae4:	0016869b          	addiw	a3,a3,1
    80003ae8:	016787b3          	add	a5,a5,s6
    80003aec:	01933023          	sd	s9,0(t1)
    80003af0:	01633423          	sd	s6,8(t1)
    80003af4:	12f13023          	sd	a5,288(sp)
    80003af8:	10d12c23          	sw	a3,280(sp)
    80003afc:	00700713          	li	a4,7
    80003b00:	d0d75263          	bge	a4,a3,80003004 <_vfprintf_r+0x1784>
    80003b04:	11010613          	addi	a2,sp,272
    80003b08:	000b8593          	mv	a1,s7
    80003b0c:	000c0513          	mv	a0,s8
    80003b10:	78c090ef          	jal	ra,8000d29c <__sprint_r>
    80003b14:	00050463          	beqz	a0,80003b1c <_vfprintf_r+0x229c>
    80003b18:	cb5fe06f          	j	800027cc <_vfprintf_r+0xf4c>
    80003b1c:	12013783          	ld	a5,288(sp)
    80003b20:	11812683          	lw	a3,280(sp)
    80003b24:	19010313          	addi	t1,sp,400
    80003b28:	dd4ff06f          	j	800030fc <_vfprintf_r+0x187c>
    80003b2c:	03000793          	li	a5,48
    80003b30:	0ef10023          	sb	a5,224(sp)
    80003b34:	07800713          	li	a4,120
    80003b38:	a21ff06f          	j	80003558 <_vfprintf_r+0x1cd8>
    80003b3c:	00048b13          	mv	s6,s1
    80003b40:	da1fe06f          	j	800028e0 <_vfprintf_r+0x1060>
    80003b44:	015d09b3          	add	s3,s10,s5
    80003b48:	d8dff06f          	j	800038d4 <_vfprintf_r+0x2054>
    80003b4c:	001a899b          	addiw	s3,s5,1
    80003b50:	00098713          	mv	a4,s3
    80003b54:	0f810893          	addi	a7,sp,248
    80003b58:	0ec10813          	addi	a6,sp,236
    80003b5c:	0e810793          	addi	a5,sp,232
    80003b60:	00200693          	li	a3,2
    80003b64:	000b0593          	mv	a1,s6
    80003b68:	000a0613          	mv	a2,s4
    80003b6c:	000c0513          	mv	a0,s8
    80003b70:	2d4030ef          	jal	ra,80006e44 <_ldtoa_r>
    80003b74:	00050d13          	mv	s10,a0
    80003b78:	01813303          	ld	t1,24(sp)
    80003b7c:	013d09b3          	add	s3,s10,s3
    80003b80:	d55ff06f          	j	800038d4 <_vfprintf_r+0x2054>
    80003b84:	001a859b          	addiw	a1,s5,1
    80003b88:	000c0513          	mv	a0,s8
    80003b8c:	00613823          	sd	t1,16(sp)
    80003b90:	0ed040ef          	jal	ra,8000847c <_malloc_r>
    80003b94:	01013303          	ld	t1,16(sp)
    80003b98:	00050d13          	mv	s10,a0
    80003b9c:	2a050463          	beqz	a0,80003e44 <_vfprintf_r+0x25c4>
    80003ba0:	00a13823          	sd	a0,16(sp)
    80003ba4:	9d5ff06f          	j	80003578 <_vfprintf_r+0x1cf8>
    80003ba8:	07013783          	ld	a5,112(sp)
    80003bac:	000c8713          	mv	a4,s9
    80003bb0:	0ef13c23          	sd	a5,248(sp)
    80003bb4:	01813783          	ld	a5,24(sp)
    80003bb8:	fffcc683          	lbu	a3,-1(s9)
    80003bbc:	00f7c603          	lbu	a2,15(a5)
    80003bc0:	02d61063          	bne	a2,a3,80003be0 <_vfprintf_r+0x2360>
    80003bc4:	03000593          	li	a1,48
    80003bc8:	feb70fa3          	sb	a1,-1(a4)
    80003bcc:	0f813703          	ld	a4,248(sp)
    80003bd0:	fff70793          	addi	a5,a4,-1
    80003bd4:	0ef13c23          	sd	a5,248(sp)
    80003bd8:	fff74683          	lbu	a3,-1(a4)
    80003bdc:	fed606e3          	beq	a2,a3,80003bc8 <_vfprintf_r+0x2348>
    80003be0:	0016861b          	addiw	a2,a3,1
    80003be4:	03900593          	li	a1,57
    80003be8:	0ff67613          	andi	a2,a2,255
    80003bec:	00b68663          	beq	a3,a1,80003bf8 <_vfprintf_r+0x2378>
    80003bf0:	fec70fa3          	sb	a2,-1(a4)
    80003bf4:	b81ff06f          	j	80003774 <_vfprintf_r+0x1ef4>
    80003bf8:	01813783          	ld	a5,24(sp)
    80003bfc:	00a7c603          	lbu	a2,10(a5)
    80003c00:	fec70fa3          	sb	a2,-1(a4)
    80003c04:	b71ff06f          	j	80003774 <_vfprintf_r+0x1ef4>
    80003c08:	00f72023          	sw	a5,0(a4)
    80003c0c:	00040d13          	mv	s10,s0
    80003c10:	fedfd06f          	j	80001bfc <_vfprintf_r+0x37c>
    80003c14:	000a8463          	beqz	s5,80003c1c <_vfprintf_r+0x239c>
    80003c18:	964fe06f          	j	80001d7c <_vfprintf_r+0x4fc>
    80003c1c:	00100a93          	li	s5,1
    80003c20:	95cfe06f          	j	80001d7c <_vfprintf_r+0x4fc>
    80003c24:	00600a93          	li	s5,6
    80003c28:	954fe06f          	j	80001d7c <_vfprintf_r+0x4fc>
    80003c2c:	07013d83          	ld	s11,112(sp)
    80003c30:	03213023          	sd	s2,32(sp)
    80003c34:	07313823          	sd	s3,112(sp)
    80003c38:	000c0893          	mv	a7,s8
    80003c3c:	000b8993          	mv	s3,s7
    80003c40:	09813403          	ld	s0,152(sp)
    80003c44:	0a013483          	ld	s1,160(sp)
    80003c48:	0a813903          	ld	s2,168(sp)
    80003c4c:	0b013a83          	ld	s5,176(sp)
    80003c50:	0b813303          	ld	t1,184(sp)
    80003c54:	0c813b83          	ld	s7,200(sp)
    80003c58:	0c013c03          	ld	s8,192(sp)
    80003c5c:	000a0c93          	mv	s9,s4
    80003c60:	aa9ff06f          	j	80003708 <_vfprintf_r+0x1e88>
    80003c64:	0f210713          	addi	a4,sp,242
    80003c68:	00069863          	bnez	a3,80003c78 <_vfprintf_r+0x23f8>
    80003c6c:	03000713          	li	a4,48
    80003c70:	0ee10923          	sb	a4,242(sp)
    80003c74:	0f310713          	addi	a4,sp,243
    80003c78:	21010693          	addi	a3,sp,528
    80003c7c:	0307879b          	addiw	a5,a5,48
    80003c80:	40d706b3          	sub	a3,a4,a3
    80003c84:	00f70023          	sb	a5,0(a4)
    80003c88:	1216879b          	addiw	a5,a3,289
    80003c8c:	04f13823          	sd	a5,80(sp)
    80003c90:	a8cfe06f          	j	80001f1c <_vfprintf_r+0x69c>
    80003c94:	000a0593          	mv	a1,s4
    80003c98:	000b0513          	mv	a0,s6
    80003c9c:	02613023          	sd	t1,32(sp)
    80003ca0:	10d0e0ef          	jal	ra,800125ac <__trunctfdf2>
    80003ca4:	0e810593          	addi	a1,sp,232
    80003ca8:	2f5060ef          	jal	ra,8000a79c <frexp>
    80003cac:	0110e0ef          	jal	ra,800124bc <__extenddftf2>
    80003cb0:	08813683          	ld	a3,136(sp)
    80003cb4:	00000613          	li	a2,0
    80003cb8:	0c10d0ef          	jal	ra,80011578 <__multf3>
    80003cbc:	00000613          	li	a2,0
    80003cc0:	00000693          	li	a3,0
    80003cc4:	00050a13          	mv	s4,a0
    80003cc8:	00b13c23          	sd	a1,24(sp)
    80003ccc:	6600d0ef          	jal	ra,8001132c <__eqtf2>
    80003cd0:	01813f03          	ld	t5,24(sp)
    80003cd4:	02013303          	ld	t1,32(sp)
    80003cd8:	00051663          	bnez	a0,80003ce4 <_vfprintf_r+0x2464>
    80003cdc:	00100793          	li	a5,1
    80003ce0:	0ef12423          	sw	a5,232(sp)
    80003ce4:	000237b7          	lui	a5,0x23
    80003ce8:	ed878793          	addi	a5,a5,-296 # 22ed8 <_start-0x7ffdd144>
    80003cec:	00f13c23          	sd	a5,24(sp)
    80003cf0:	919ff06f          	j	80003608 <_vfprintf_r+0x1d88>
    80003cf4:	06700d93          	li	s11,103
    80003cf8:	06013603          	ld	a2,96(sp)
    80003cfc:	0ff00713          	li	a4,255
    80003d00:	00064783          	lbu	a5,0(a2)
    80003d04:	12e78463          	beq	a5,a4,80003e2c <_vfprintf_r+0x25ac>
    80003d08:	01813703          	ld	a4,24(sp)
    80003d0c:	00000813          	li	a6,0
    80003d10:	00000513          	li	a0,0
    80003d14:	0ff00693          	li	a3,255
    80003d18:	0007859b          	sext.w	a1,a5
    80003d1c:	00e7de63          	bge	a5,a4,80003d38 <_vfprintf_r+0x24b8>
    80003d20:	00164783          	lbu	a5,1(a2)
    80003d24:	40b7073b          	subw	a4,a4,a1
    80003d28:	04078863          	beqz	a5,80003d78 <_vfprintf_r+0x24f8>
    80003d2c:	0015051b          	addiw	a0,a0,1
    80003d30:	00160613          	addi	a2,a2,1
    80003d34:	fed792e3          	bne	a5,a3,80003d18 <_vfprintf_r+0x2498>
    80003d38:	06c13023          	sd	a2,96(sp)
    80003d3c:	00e13c23          	sd	a4,24(sp)
    80003d40:	02a13423          	sd	a0,40(sp)
    80003d44:	03013823          	sd	a6,48(sp)
    80003d48:	03013703          	ld	a4,48(sp)
    80003d4c:	02813783          	ld	a5,40(sp)
    80003d50:	00e787bb          	addw	a5,a5,a4
    80003d54:	07813703          	ld	a4,120(sp)
    80003d58:	02e787bb          	mulw	a5,a5,a4
    80003d5c:	014787bb          	addw	a5,a5,s4
    80003d60:	00078a1b          	sext.w	s4,a5
    80003d64:	fffa4993          	not	s3,s4
    80003d68:	43f9d993          	srai	s3,s3,0x3f
    80003d6c:	0137f7b3          	and	a5,a5,s3
    80003d70:	0007899b          	sext.w	s3,a5
    80003d74:	9f8fe06f          	j	80001f6c <_vfprintf_r+0x6ec>
    80003d78:	00064783          	lbu	a5,0(a2)
    80003d7c:	0018081b          	addiw	a6,a6,1
    80003d80:	fb5ff06f          	j	80003d34 <_vfprintf_r+0x24b4>
    80003d84:	03813783          	ld	a5,56(sp)
    80003d88:	06600d93          	li	s11,102
    80003d8c:	00e78a3b          	addw	s4,a5,a4
    80003d90:	015a0a3b          	addw	s4,s4,s5
    80003d94:	c4dff06f          	j	800039e0 <_vfprintf_r+0x2160>
    80003d98:	03013703          	ld	a4,48(sp)
    80003d9c:	00177713          	andi	a4,a4,1
    80003da0:	00071463          	bnez	a4,80003da8 <_vfprintf_r+0x2528>
    80003da4:	99cfe06f          	j	80001f40 <_vfprintf_r+0x6c0>
    80003da8:	990fe06f          	j	80001f38 <_vfprintf_r+0x6b8>
    80003dac:	00079a63          	bnez	a5,80003dc0 <_vfprintf_r+0x2540>
    80003db0:	00100993          	li	s3,1
    80003db4:	06600d93          	li	s11,102
    80003db8:	00100a13          	li	s4,1
    80003dbc:	a75ff06f          	j	80003830 <_vfprintf_r+0x1fb0>
    80003dc0:	03813783          	ld	a5,56(sp)
    80003dc4:	06600d93          	li	s11,102
    80003dc8:	0017879b          	addiw	a5,a5,1
    80003dcc:	01578e3b          	addw	t3,a5,s5
    80003dd0:	000e0a1b          	sext.w	s4,t3
    80003dd4:	fffa4993          	not	s3,s4
    80003dd8:	43f9d993          	srai	s3,s3,0x3f
    80003ddc:	013e7e33          	and	t3,t3,s3
    80003de0:	000e099b          	sext.w	s3,t3
    80003de4:	a4dff06f          	j	80003830 <_vfprintf_r+0x1fb0>
    80003de8:	000238b7          	lui	a7,0x23
    80003dec:	00030613          	mv	a2,t1
    80003df0:	08088c93          	addi	s9,a7,128 # 23080 <_start-0x7ffdcf9c>
    80003df4:	f29fe06f          	j	80002d1c <_vfprintf_r+0x149c>
    80003df8:	00813683          	ld	a3,8(sp)
    80003dfc:	0006a703          	lw	a4,0(a3)
    80003e00:	00868693          	addi	a3,a3,8
    80003e04:	00070a9b          	sext.w	s5,a4
    80003e08:	00075463          	bgez	a4,80003e10 <_vfprintf_r+0x2590>
    80003e0c:	fff00a93          	li	s5,-1
    80003e10:	00144e83          	lbu	t4,1(s0)
    80003e14:	00d13423          	sd	a3,8(sp)
    80003e18:	00078413          	mv	s0,a5
    80003e1c:	c29fd06f          	j	80001a44 <_vfprintf_r+0x1c4>
    80003e20:	00200793          	li	a5,2
    80003e24:	04f13823          	sd	a5,80(sp)
    80003e28:	8f4fe06f          	j	80001f1c <_vfprintf_r+0x69c>
    80003e2c:	02013823          	sd	zero,48(sp)
    80003e30:	02013423          	sd	zero,40(sp)
    80003e34:	f15ff06f          	j	80003d48 <_vfprintf_r+0x24c8>
    80003e38:	000a8993          	mv	s3,s5
    80003e3c:	013d09b3          	add	s3,s10,s3
    80003e40:	a95ff06f          	j	800038d4 <_vfprintf_r+0x2054>
    80003e44:	010bd783          	lhu	a5,16(s7)
    80003e48:	0407e793          	ori	a5,a5,64
    80003e4c:	00fb9823          	sh	a5,16(s7)
    80003e50:	dc1fd06f          	j	80001c10 <_vfprintf_r+0x390>

0000000080003e54 <vfprintf>:
    80003e54:	00050793          	mv	a5,a0
    80003e58:	8401b503          	ld	a0,-1984(gp) # 80015160 <_impure_ptr>
    80003e5c:	00060693          	mv	a3,a2
    80003e60:	00058613          	mv	a2,a1
    80003e64:	00078593          	mv	a1,a5
    80003e68:	a19fd06f          	j	80001880 <_vfprintf_r>
    80003e6c:	0105d783          	lhu	a5,16(a1)
    80003e70:	0ac5ae03          	lw	t3,172(a1)
    80003e74:	0125d303          	lhu	t1,18(a1)
    80003e78:	0305b883          	ld	a7,48(a1)
    80003e7c:	0405b803          	ld	a6,64(a1)
    80003e80:	b3010113          	addi	sp,sp,-1232
    80003e84:	ffd7f793          	andi	a5,a5,-3
    80003e88:	40000713          	li	a4,1024
    80003e8c:	4c813023          	sd	s0,1216(sp)
    80003e90:	00f11823          	sh	a5,16(sp)
    80003e94:	00058413          	mv	s0,a1
    80003e98:	0b010793          	addi	a5,sp,176
    80003e9c:	00010593          	mv	a1,sp
    80003ea0:	4a913c23          	sd	s1,1208(sp)
    80003ea4:	4b213823          	sd	s2,1200(sp)
    80003ea8:	4c113423          	sd	ra,1224(sp)
    80003eac:	00050913          	mv	s2,a0
    80003eb0:	0bc12623          	sw	t3,172(sp)
    80003eb4:	00611923          	sh	t1,18(sp)
    80003eb8:	03113823          	sd	a7,48(sp)
    80003ebc:	05013023          	sd	a6,64(sp)
    80003ec0:	00f13023          	sd	a5,0(sp)
    80003ec4:	00f13c23          	sd	a5,24(sp)
    80003ec8:	00e12623          	sw	a4,12(sp)
    80003ecc:	02e12023          	sw	a4,32(sp)
    80003ed0:	02012423          	sw	zero,40(sp)
    80003ed4:	9adfd0ef          	jal	ra,80001880 <_vfprintf_r>
    80003ed8:	00050493          	mv	s1,a0
    80003edc:	02055c63          	bgez	a0,80003f14 <vfprintf+0xc0>
    80003ee0:	01015783          	lhu	a5,16(sp)
    80003ee4:	0407f793          	andi	a5,a5,64
    80003ee8:	00078863          	beqz	a5,80003ef8 <vfprintf+0xa4>
    80003eec:	01045783          	lhu	a5,16(s0)
    80003ef0:	0407e793          	ori	a5,a5,64
    80003ef4:	00f41823          	sh	a5,16(s0)
    80003ef8:	4c813083          	ld	ra,1224(sp)
    80003efc:	4c013403          	ld	s0,1216(sp)
    80003f00:	4b013903          	ld	s2,1200(sp)
    80003f04:	00048513          	mv	a0,s1
    80003f08:	4b813483          	ld	s1,1208(sp)
    80003f0c:	4d010113          	addi	sp,sp,1232
    80003f10:	00008067          	ret
    80003f14:	00010593          	mv	a1,sp
    80003f18:	00090513          	mv	a0,s2
    80003f1c:	6a0000ef          	jal	ra,800045bc <_fflush_r>
    80003f20:	fc0500e3          	beqz	a0,80003ee0 <vfprintf+0x8c>
    80003f24:	fff00493          	li	s1,-1
    80003f28:	fb9ff06f          	j	80003ee0 <vfprintf+0x8c>

0000000080003f2c <__swbuf_r>:
    80003f2c:	fd010113          	addi	sp,sp,-48
    80003f30:	02813023          	sd	s0,32(sp)
    80003f34:	00913c23          	sd	s1,24(sp)
    80003f38:	01213823          	sd	s2,16(sp)
    80003f3c:	02113423          	sd	ra,40(sp)
    80003f40:	01313423          	sd	s3,8(sp)
    80003f44:	00050913          	mv	s2,a0
    80003f48:	00058493          	mv	s1,a1
    80003f4c:	00060413          	mv	s0,a2
    80003f50:	00050663          	beqz	a0,80003f5c <__swbuf_r+0x30>
    80003f54:	05052783          	lw	a5,80(a0)
    80003f58:	14078a63          	beqz	a5,800040ac <__swbuf_r+0x180>
    80003f5c:	01041703          	lh	a4,16(s0)
    80003f60:	02842683          	lw	a3,40(s0)
    80003f64:	00877793          	andi	a5,a4,8
    80003f68:	00d42623          	sw	a3,12(s0)
    80003f6c:	03071693          	slli	a3,a4,0x30
    80003f70:	0306d693          	srli	a3,a3,0x30
    80003f74:	08078463          	beqz	a5,80003ffc <__swbuf_r+0xd0>
    80003f78:	01843783          	ld	a5,24(s0)
    80003f7c:	08078063          	beqz	a5,80003ffc <__swbuf_r+0xd0>
    80003f80:	00002637          	lui	a2,0x2
    80003f84:	0ff4f993          	andi	s3,s1,255
    80003f88:	00c6f6b3          	and	a3,a3,a2
    80003f8c:	00098493          	mv	s1,s3
    80003f90:	0a068063          	beqz	a3,80004030 <__swbuf_r+0x104>
    80003f94:	00043703          	ld	a4,0(s0)
    80003f98:	02042683          	lw	a3,32(s0)
    80003f9c:	40f707bb          	subw	a5,a4,a5
    80003fa0:	0ad7de63          	bge	a5,a3,8000405c <__swbuf_r+0x130>
    80003fa4:	00c42683          	lw	a3,12(s0)
    80003fa8:	00170613          	addi	a2,a4,1
    80003fac:	00c43023          	sd	a2,0(s0)
    80003fb0:	fff6869b          	addiw	a3,a3,-1
    80003fb4:	00d42623          	sw	a3,12(s0)
    80003fb8:	01370023          	sb	s3,0(a4)
    80003fbc:	02042703          	lw	a4,32(s0)
    80003fc0:	0017879b          	addiw	a5,a5,1
    80003fc4:	0cf70863          	beq	a4,a5,80004094 <__swbuf_r+0x168>
    80003fc8:	01045783          	lhu	a5,16(s0)
    80003fcc:	0017f793          	andi	a5,a5,1
    80003fd0:	00078663          	beqz	a5,80003fdc <__swbuf_r+0xb0>
    80003fd4:	00a00793          	li	a5,10
    80003fd8:	0af48e63          	beq	s1,a5,80004094 <__swbuf_r+0x168>
    80003fdc:	02813083          	ld	ra,40(sp)
    80003fe0:	02013403          	ld	s0,32(sp)
    80003fe4:	01013903          	ld	s2,16(sp)
    80003fe8:	00813983          	ld	s3,8(sp)
    80003fec:	00048513          	mv	a0,s1
    80003ff0:	01813483          	ld	s1,24(sp)
    80003ff4:	03010113          	addi	sp,sp,48
    80003ff8:	00008067          	ret
    80003ffc:	00040593          	mv	a1,s0
    80004000:	00090513          	mv	a0,s2
    80004004:	0c4000ef          	jal	ra,800040c8 <__swsetup_r>
    80004008:	08051e63          	bnez	a0,800040a4 <__swbuf_r+0x178>
    8000400c:	01041703          	lh	a4,16(s0)
    80004010:	00002637          	lui	a2,0x2
    80004014:	0ff4f993          	andi	s3,s1,255
    80004018:	03071693          	slli	a3,a4,0x30
    8000401c:	0306d693          	srli	a3,a3,0x30
    80004020:	00c6f6b3          	and	a3,a3,a2
    80004024:	01843783          	ld	a5,24(s0)
    80004028:	00098493          	mv	s1,s3
    8000402c:	f60694e3          	bnez	a3,80003f94 <__swbuf_r+0x68>
    80004030:	0ac42683          	lw	a3,172(s0)
    80004034:	00c76733          	or	a4,a4,a2
    80004038:	ffffe637          	lui	a2,0xffffe
    8000403c:	fff60613          	addi	a2,a2,-1 # ffffffffffffdfff <t0.2038+0xffffffff7ffc13b7>
    80004040:	00c6f6b3          	and	a3,a3,a2
    80004044:	00e41823          	sh	a4,16(s0)
    80004048:	00043703          	ld	a4,0(s0)
    8000404c:	0ad42623          	sw	a3,172(s0)
    80004050:	02042683          	lw	a3,32(s0)
    80004054:	40f707bb          	subw	a5,a4,a5
    80004058:	f4d7c6e3          	blt	a5,a3,80003fa4 <__swbuf_r+0x78>
    8000405c:	00040593          	mv	a1,s0
    80004060:	00090513          	mv	a0,s2
    80004064:	558000ef          	jal	ra,800045bc <_fflush_r>
    80004068:	02051e63          	bnez	a0,800040a4 <__swbuf_r+0x178>
    8000406c:	00043703          	ld	a4,0(s0)
    80004070:	00c42683          	lw	a3,12(s0)
    80004074:	00100793          	li	a5,1
    80004078:	00170613          	addi	a2,a4,1
    8000407c:	fff6869b          	addiw	a3,a3,-1
    80004080:	00c43023          	sd	a2,0(s0)
    80004084:	00d42623          	sw	a3,12(s0)
    80004088:	01370023          	sb	s3,0(a4)
    8000408c:	02042703          	lw	a4,32(s0)
    80004090:	f2f71ce3          	bne	a4,a5,80003fc8 <__swbuf_r+0x9c>
    80004094:	00040593          	mv	a1,s0
    80004098:	00090513          	mv	a0,s2
    8000409c:	520000ef          	jal	ra,800045bc <_fflush_r>
    800040a0:	f2050ee3          	beqz	a0,80003fdc <__swbuf_r+0xb0>
    800040a4:	fff00493          	li	s1,-1
    800040a8:	f35ff06f          	j	80003fdc <__swbuf_r+0xb0>
    800040ac:	13d000ef          	jal	ra,800049e8 <__sinit>
    800040b0:	eadff06f          	j	80003f5c <__swbuf_r+0x30>

00000000800040b4 <__swbuf>:
    800040b4:	00050793          	mv	a5,a0
    800040b8:	8401b503          	ld	a0,-1984(gp) # 80015160 <_impure_ptr>
    800040bc:	00058613          	mv	a2,a1
    800040c0:	00078593          	mv	a1,a5
    800040c4:	e69ff06f          	j	80003f2c <__swbuf_r>

00000000800040c8 <__swsetup_r>:
    800040c8:	8401b783          	ld	a5,-1984(gp) # 80015160 <_impure_ptr>
    800040cc:	fe010113          	addi	sp,sp,-32
    800040d0:	00813823          	sd	s0,16(sp)
    800040d4:	00913423          	sd	s1,8(sp)
    800040d8:	00113c23          	sd	ra,24(sp)
    800040dc:	00050493          	mv	s1,a0
    800040e0:	00058413          	mv	s0,a1
    800040e4:	00078663          	beqz	a5,800040f0 <__swsetup_r+0x28>
    800040e8:	0507a703          	lw	a4,80(a5)
    800040ec:	08070463          	beqz	a4,80004174 <__swsetup_r+0xac>
    800040f0:	01041703          	lh	a4,16(s0)
    800040f4:	03071793          	slli	a5,a4,0x30
    800040f8:	00877693          	andi	a3,a4,8
    800040fc:	0307d793          	srli	a5,a5,0x30
    80004100:	08068863          	beqz	a3,80004190 <__swsetup_r+0xc8>
    80004104:	01843683          	ld	a3,24(s0)
    80004108:	0a068863          	beqz	a3,800041b8 <__swsetup_r+0xf0>
    8000410c:	0017f613          	andi	a2,a5,1
    80004110:	02060863          	beqz	a2,80004140 <__swsetup_r+0x78>
    80004114:	02042603          	lw	a2,32(s0)
    80004118:	00042623          	sw	zero,12(s0)
    8000411c:	00000513          	li	a0,0
    80004120:	40c0063b          	negw	a2,a2
    80004124:	02c42423          	sw	a2,40(s0)
    80004128:	02068a63          	beqz	a3,8000415c <__swsetup_r+0x94>
    8000412c:	01813083          	ld	ra,24(sp)
    80004130:	01013403          	ld	s0,16(sp)
    80004134:	00813483          	ld	s1,8(sp)
    80004138:	02010113          	addi	sp,sp,32
    8000413c:	00008067          	ret
    80004140:	0027f613          	andi	a2,a5,2
    80004144:	00000593          	li	a1,0
    80004148:	00061463          	bnez	a2,80004150 <__swsetup_r+0x88>
    8000414c:	02042583          	lw	a1,32(s0)
    80004150:	00b42623          	sw	a1,12(s0)
    80004154:	00000513          	li	a0,0
    80004158:	fc069ae3          	bnez	a3,8000412c <__swsetup_r+0x64>
    8000415c:	0807f793          	andi	a5,a5,128
    80004160:	fc0786e3          	beqz	a5,8000412c <__swsetup_r+0x64>
    80004164:	04076713          	ori	a4,a4,64
    80004168:	00e41823          	sh	a4,16(s0)
    8000416c:	fff00513          	li	a0,-1
    80004170:	fbdff06f          	j	8000412c <__swsetup_r+0x64>
    80004174:	00078513          	mv	a0,a5
    80004178:	071000ef          	jal	ra,800049e8 <__sinit>
    8000417c:	01041703          	lh	a4,16(s0)
    80004180:	03071793          	slli	a5,a4,0x30
    80004184:	00877693          	andi	a3,a4,8
    80004188:	0307d793          	srli	a5,a5,0x30
    8000418c:	f6069ce3          	bnez	a3,80004104 <__swsetup_r+0x3c>
    80004190:	0107f693          	andi	a3,a5,16
    80004194:	08068263          	beqz	a3,80004218 <__swsetup_r+0x150>
    80004198:	0047f793          	andi	a5,a5,4
    8000419c:	04079463          	bnez	a5,800041e4 <__swsetup_r+0x11c>
    800041a0:	01843683          	ld	a3,24(s0)
    800041a4:	00876713          	ori	a4,a4,8
    800041a8:	03071793          	slli	a5,a4,0x30
    800041ac:	00e41823          	sh	a4,16(s0)
    800041b0:	0307d793          	srli	a5,a5,0x30
    800041b4:	f4069ce3          	bnez	a3,8000410c <__swsetup_r+0x44>
    800041b8:	2807f613          	andi	a2,a5,640
    800041bc:	20000593          	li	a1,512
    800041c0:	f4b606e3          	beq	a2,a1,8000410c <__swsetup_r+0x44>
    800041c4:	00040593          	mv	a1,s0
    800041c8:	00048513          	mv	a0,s1
    800041cc:	050040ef          	jal	ra,8000821c <__smakebuf_r>
    800041d0:	01041703          	lh	a4,16(s0)
    800041d4:	01843683          	ld	a3,24(s0)
    800041d8:	03071793          	slli	a5,a4,0x30
    800041dc:	0307d793          	srli	a5,a5,0x30
    800041e0:	f2dff06f          	j	8000410c <__swsetup_r+0x44>
    800041e4:	05843583          	ld	a1,88(s0)
    800041e8:	00058e63          	beqz	a1,80004204 <__swsetup_r+0x13c>
    800041ec:	07440793          	addi	a5,s0,116
    800041f0:	00f58863          	beq	a1,a5,80004200 <__swsetup_r+0x138>
    800041f4:	00048513          	mv	a0,s1
    800041f8:	1c9000ef          	jal	ra,80004bc0 <_free_r>
    800041fc:	01041703          	lh	a4,16(s0)
    80004200:	04043c23          	sd	zero,88(s0)
    80004204:	01843683          	ld	a3,24(s0)
    80004208:	fdb77713          	andi	a4,a4,-37
    8000420c:	00042423          	sw	zero,8(s0)
    80004210:	00d43023          	sd	a3,0(s0)
    80004214:	f91ff06f          	j	800041a4 <__swsetup_r+0xdc>
    80004218:	00900793          	li	a5,9
    8000421c:	00f4a023          	sw	a5,0(s1)
    80004220:	04076713          	ori	a4,a4,64
    80004224:	00e41823          	sh	a4,16(s0)
    80004228:	fff00513          	li	a0,-1
    8000422c:	f01ff06f          	j	8000412c <__swsetup_r+0x64>

0000000080004230 <__call_exitprocs>:
    80004230:	fb010113          	addi	sp,sp,-80
    80004234:	03413023          	sd	s4,32(sp)
    80004238:	8301ba03          	ld	s4,-2000(gp) # 80015150 <_global_impure_ptr>
    8000423c:	03213823          	sd	s2,48(sp)
    80004240:	04113423          	sd	ra,72(sp)
    80004244:	1f8a3903          	ld	s2,504(s4)
    80004248:	04813023          	sd	s0,64(sp)
    8000424c:	02913c23          	sd	s1,56(sp)
    80004250:	03313423          	sd	s3,40(sp)
    80004254:	01513c23          	sd	s5,24(sp)
    80004258:	01613823          	sd	s6,16(sp)
    8000425c:	01713423          	sd	s7,8(sp)
    80004260:	01813023          	sd	s8,0(sp)
    80004264:	04090063          	beqz	s2,800042a4 <__call_exitprocs+0x74>
    80004268:	00050b13          	mv	s6,a0
    8000426c:	00058b93          	mv	s7,a1
    80004270:	00100a93          	li	s5,1
    80004274:	fff00993          	li	s3,-1
    80004278:	00892483          	lw	s1,8(s2)
    8000427c:	fff4841b          	addiw	s0,s1,-1
    80004280:	02044263          	bltz	s0,800042a4 <__call_exitprocs+0x74>
    80004284:	00349493          	slli	s1,s1,0x3
    80004288:	009904b3          	add	s1,s2,s1
    8000428c:	040b8463          	beqz	s7,800042d4 <__call_exitprocs+0xa4>
    80004290:	2084b783          	ld	a5,520(s1)
    80004294:	05778063          	beq	a5,s7,800042d4 <__call_exitprocs+0xa4>
    80004298:	fff4041b          	addiw	s0,s0,-1
    8000429c:	ff848493          	addi	s1,s1,-8
    800042a0:	ff3416e3          	bne	s0,s3,8000428c <__call_exitprocs+0x5c>
    800042a4:	04813083          	ld	ra,72(sp)
    800042a8:	04013403          	ld	s0,64(sp)
    800042ac:	03813483          	ld	s1,56(sp)
    800042b0:	03013903          	ld	s2,48(sp)
    800042b4:	02813983          	ld	s3,40(sp)
    800042b8:	02013a03          	ld	s4,32(sp)
    800042bc:	01813a83          	ld	s5,24(sp)
    800042c0:	01013b03          	ld	s6,16(sp)
    800042c4:	00813b83          	ld	s7,8(sp)
    800042c8:	00013c03          	ld	s8,0(sp)
    800042cc:	05010113          	addi	sp,sp,80
    800042d0:	00008067          	ret
    800042d4:	00892783          	lw	a5,8(s2)
    800042d8:	0084b703          	ld	a4,8(s1)
    800042dc:	fff7879b          	addiw	a5,a5,-1
    800042e0:	06878263          	beq	a5,s0,80004344 <__call_exitprocs+0x114>
    800042e4:	0004b423          	sd	zero,8(s1)
    800042e8:	fa0708e3          	beqz	a4,80004298 <__call_exitprocs+0x68>
    800042ec:	31092783          	lw	a5,784(s2)
    800042f0:	008a96bb          	sllw	a3,s5,s0
    800042f4:	00892c03          	lw	s8,8(s2)
    800042f8:	00d7f7b3          	and	a5,a5,a3
    800042fc:	0007879b          	sext.w	a5,a5
    80004300:	02079263          	bnez	a5,80004324 <__call_exitprocs+0xf4>
    80004304:	000700e7          	jalr	a4
    80004308:	00892703          	lw	a4,8(s2)
    8000430c:	1f8a3783          	ld	a5,504(s4)
    80004310:	01871463          	bne	a4,s8,80004318 <__call_exitprocs+0xe8>
    80004314:	f92782e3          	beq	a5,s2,80004298 <__call_exitprocs+0x68>
    80004318:	f80786e3          	beqz	a5,800042a4 <__call_exitprocs+0x74>
    8000431c:	00078913          	mv	s2,a5
    80004320:	f59ff06f          	j	80004278 <__call_exitprocs+0x48>
    80004324:	31492783          	lw	a5,788(s2)
    80004328:	1084b583          	ld	a1,264(s1)
    8000432c:	00d7f7b3          	and	a5,a5,a3
    80004330:	0007879b          	sext.w	a5,a5
    80004334:	00079c63          	bnez	a5,8000434c <__call_exitprocs+0x11c>
    80004338:	000b0513          	mv	a0,s6
    8000433c:	000700e7          	jalr	a4
    80004340:	fc9ff06f          	j	80004308 <__call_exitprocs+0xd8>
    80004344:	00892423          	sw	s0,8(s2)
    80004348:	fa1ff06f          	j	800042e8 <__call_exitprocs+0xb8>
    8000434c:	00058513          	mv	a0,a1
    80004350:	000700e7          	jalr	a4
    80004354:	fb5ff06f          	j	80004308 <__call_exitprocs+0xd8>

0000000080004358 <__sflush_r>:
    80004358:	01059783          	lh	a5,16(a1)
    8000435c:	fd010113          	addi	sp,sp,-48
    80004360:	02813023          	sd	s0,32(sp)
    80004364:	01313423          	sd	s3,8(sp)
    80004368:	02113423          	sd	ra,40(sp)
    8000436c:	00913c23          	sd	s1,24(sp)
    80004370:	01213823          	sd	s2,16(sp)
    80004374:	0087f693          	andi	a3,a5,8
    80004378:	00058413          	mv	s0,a1
    8000437c:	00050993          	mv	s3,a0
    80004380:	10069c63          	bnez	a3,80004498 <__sflush_r+0x140>
    80004384:	00001737          	lui	a4,0x1
    80004388:	80070713          	addi	a4,a4,-2048 # 800 <_start-0x7ffff81c>
    8000438c:	0085a683          	lw	a3,8(a1)
    80004390:	00e7e7b3          	or	a5,a5,a4
    80004394:	00f59823          	sh	a5,16(a1)
    80004398:	18d05663          	blez	a3,80004524 <__sflush_r+0x1cc>
    8000439c:	04843703          	ld	a4,72(s0)
    800043a0:	0c070c63          	beqz	a4,80004478 <__sflush_r+0x120>
    800043a4:	03079793          	slli	a5,a5,0x30
    800043a8:	0307d793          	srli	a5,a5,0x30
    800043ac:	000016b7          	lui	a3,0x1
    800043b0:	0009a483          	lw	s1,0(s3)
    800043b4:	00d7f6b3          	and	a3,a5,a3
    800043b8:	0009a023          	sw	zero,0(s3)
    800043bc:	03043583          	ld	a1,48(s0)
    800043c0:	16069863          	bnez	a3,80004530 <__sflush_r+0x1d8>
    800043c4:	00000613          	li	a2,0
    800043c8:	00100693          	li	a3,1
    800043cc:	00098513          	mv	a0,s3
    800043d0:	000700e7          	jalr	a4
    800043d4:	fff00793          	li	a5,-1
    800043d8:	00050613          	mv	a2,a0
    800043dc:	18f50c63          	beq	a0,a5,80004574 <__sflush_r+0x21c>
    800043e0:	01045783          	lhu	a5,16(s0)
    800043e4:	04843703          	ld	a4,72(s0)
    800043e8:	03043583          	ld	a1,48(s0)
    800043ec:	0047f793          	andi	a5,a5,4
    800043f0:	00078e63          	beqz	a5,8000440c <__sflush_r+0xb4>
    800043f4:	00842683          	lw	a3,8(s0)
    800043f8:	05843783          	ld	a5,88(s0)
    800043fc:	40d60633          	sub	a2,a2,a3
    80004400:	00078663          	beqz	a5,8000440c <__sflush_r+0xb4>
    80004404:	07042783          	lw	a5,112(s0)
    80004408:	40f60633          	sub	a2,a2,a5
    8000440c:	00000693          	li	a3,0
    80004410:	00098513          	mv	a0,s3
    80004414:	000700e7          	jalr	a4
    80004418:	fff00793          	li	a5,-1
    8000441c:	10f51e63          	bne	a0,a5,80004538 <__sflush_r+0x1e0>
    80004420:	0009a703          	lw	a4,0(s3)
    80004424:	01041783          	lh	a5,16(s0)
    80004428:	16070863          	beqz	a4,80004598 <__sflush_r+0x240>
    8000442c:	01d00693          	li	a3,29
    80004430:	00d70663          	beq	a4,a3,8000443c <__sflush_r+0xe4>
    80004434:	01600693          	li	a3,22
    80004438:	16d71a63          	bne	a4,a3,800045ac <__sflush_r+0x254>
    8000443c:	01843683          	ld	a3,24(s0)
    80004440:	fffff737          	lui	a4,0xfffff
    80004444:	7ff70713          	addi	a4,a4,2047 # fffffffffffff7ff <t0.2038+0xffffffff7ffc2bb7>
    80004448:	00e7f7b3          	and	a5,a5,a4
    8000444c:	00f41823          	sh	a5,16(s0)
    80004450:	00042423          	sw	zero,8(s0)
    80004454:	00d43023          	sd	a3,0(s0)
    80004458:	05843583          	ld	a1,88(s0)
    8000445c:	0099a023          	sw	s1,0(s3)
    80004460:	00058c63          	beqz	a1,80004478 <__sflush_r+0x120>
    80004464:	07440793          	addi	a5,s0,116
    80004468:	00f58663          	beq	a1,a5,80004474 <__sflush_r+0x11c>
    8000446c:	00098513          	mv	a0,s3
    80004470:	750000ef          	jal	ra,80004bc0 <_free_r>
    80004474:	04043c23          	sd	zero,88(s0)
    80004478:	00000513          	li	a0,0
    8000447c:	02813083          	ld	ra,40(sp)
    80004480:	02013403          	ld	s0,32(sp)
    80004484:	01813483          	ld	s1,24(sp)
    80004488:	01013903          	ld	s2,16(sp)
    8000448c:	00813983          	ld	s3,8(sp)
    80004490:	03010113          	addi	sp,sp,48
    80004494:	00008067          	ret
    80004498:	0185b903          	ld	s2,24(a1)
    8000449c:	fc090ee3          	beqz	s2,80004478 <__sflush_r+0x120>
    800044a0:	0005b483          	ld	s1,0(a1)
    800044a4:	03079713          	slli	a4,a5,0x30
    800044a8:	03075713          	srli	a4,a4,0x30
    800044ac:	00377713          	andi	a4,a4,3
    800044b0:	0125b023          	sd	s2,0(a1)
    800044b4:	412484bb          	subw	s1,s1,s2
    800044b8:	00000793          	li	a5,0
    800044bc:	00071463          	bnez	a4,800044c4 <__sflush_r+0x16c>
    800044c0:	0205a783          	lw	a5,32(a1)
    800044c4:	00f42623          	sw	a5,12(s0)
    800044c8:	00904863          	bgtz	s1,800044d8 <__sflush_r+0x180>
    800044cc:	fadff06f          	j	80004478 <__sflush_r+0x120>
    800044d0:	00a90933          	add	s2,s2,a0
    800044d4:	fa9052e3          	blez	s1,80004478 <__sflush_r+0x120>
    800044d8:	04043783          	ld	a5,64(s0)
    800044dc:	03043583          	ld	a1,48(s0)
    800044e0:	00048693          	mv	a3,s1
    800044e4:	00090613          	mv	a2,s2
    800044e8:	00098513          	mv	a0,s3
    800044ec:	000780e7          	jalr	a5
    800044f0:	40a484bb          	subw	s1,s1,a0
    800044f4:	fca04ee3          	bgtz	a0,800044d0 <__sflush_r+0x178>
    800044f8:	01045783          	lhu	a5,16(s0)
    800044fc:	02813083          	ld	ra,40(sp)
    80004500:	01813483          	ld	s1,24(sp)
    80004504:	0407e793          	ori	a5,a5,64
    80004508:	00f41823          	sh	a5,16(s0)
    8000450c:	02013403          	ld	s0,32(sp)
    80004510:	01013903          	ld	s2,16(sp)
    80004514:	00813983          	ld	s3,8(sp)
    80004518:	fff00513          	li	a0,-1
    8000451c:	03010113          	addi	sp,sp,48
    80004520:	00008067          	ret
    80004524:	0705a703          	lw	a4,112(a1)
    80004528:	e6e04ae3          	bgtz	a4,8000439c <__sflush_r+0x44>
    8000452c:	f4dff06f          	j	80004478 <__sflush_r+0x120>
    80004530:	09043603          	ld	a2,144(s0)
    80004534:	eb9ff06f          	j	800043ec <__sflush_r+0x94>
    80004538:	01045783          	lhu	a5,16(s0)
    8000453c:	fffff737          	lui	a4,0xfffff
    80004540:	7ff70713          	addi	a4,a4,2047 # fffffffffffff7ff <t0.2038+0xffffffff7ffc2bb7>
    80004544:	00e7f7b3          	and	a5,a5,a4
    80004548:	01843683          	ld	a3,24(s0)
    8000454c:	0107979b          	slliw	a5,a5,0x10
    80004550:	4107d79b          	sraiw	a5,a5,0x10
    80004554:	00001737          	lui	a4,0x1
    80004558:	00f41823          	sh	a5,16(s0)
    8000455c:	00042423          	sw	zero,8(s0)
    80004560:	00d43023          	sd	a3,0(s0)
    80004564:	00e7f7b3          	and	a5,a5,a4
    80004568:	ee0788e3          	beqz	a5,80004458 <__sflush_r+0x100>
    8000456c:	08a43823          	sd	a0,144(s0)
    80004570:	ee9ff06f          	j	80004458 <__sflush_r+0x100>
    80004574:	0009a783          	lw	a5,0(s3)
    80004578:	e60784e3          	beqz	a5,800043e0 <__sflush_r+0x88>
    8000457c:	01d00713          	li	a4,29
    80004580:	00e78663          	beq	a5,a4,8000458c <__sflush_r+0x234>
    80004584:	01600713          	li	a4,22
    80004588:	f6e798e3          	bne	a5,a4,800044f8 <__sflush_r+0x1a0>
    8000458c:	0099a023          	sw	s1,0(s3)
    80004590:	00000513          	li	a0,0
    80004594:	ee9ff06f          	j	8000447c <__sflush_r+0x124>
    80004598:	fffff737          	lui	a4,0xfffff
    8000459c:	7ff70713          	addi	a4,a4,2047 # fffffffffffff7ff <t0.2038+0xffffffff7ffc2bb7>
    800045a0:	01843683          	ld	a3,24(s0)
    800045a4:	00e7f7b3          	and	a5,a5,a4
    800045a8:	fadff06f          	j	80004554 <__sflush_r+0x1fc>
    800045ac:	0407e793          	ori	a5,a5,64
    800045b0:	00f41823          	sh	a5,16(s0)
    800045b4:	fff00513          	li	a0,-1
    800045b8:	ec5ff06f          	j	8000447c <__sflush_r+0x124>

00000000800045bc <_fflush_r>:
    800045bc:	fe010113          	addi	sp,sp,-32
    800045c0:	00813823          	sd	s0,16(sp)
    800045c4:	00113c23          	sd	ra,24(sp)
    800045c8:	00050413          	mv	s0,a0
    800045cc:	00050663          	beqz	a0,800045d8 <_fflush_r+0x1c>
    800045d0:	05052783          	lw	a5,80(a0)
    800045d4:	02078063          	beqz	a5,800045f4 <_fflush_r+0x38>
    800045d8:	01059783          	lh	a5,16(a1)
    800045dc:	02079663          	bnez	a5,80004608 <_fflush_r+0x4c>
    800045e0:	01813083          	ld	ra,24(sp)
    800045e4:	01013403          	ld	s0,16(sp)
    800045e8:	00000513          	li	a0,0
    800045ec:	02010113          	addi	sp,sp,32
    800045f0:	00008067          	ret
    800045f4:	00b13423          	sd	a1,8(sp)
    800045f8:	3f0000ef          	jal	ra,800049e8 <__sinit>
    800045fc:	00813583          	ld	a1,8(sp)
    80004600:	01059783          	lh	a5,16(a1)
    80004604:	fc078ee3          	beqz	a5,800045e0 <_fflush_r+0x24>
    80004608:	00040513          	mv	a0,s0
    8000460c:	01013403          	ld	s0,16(sp)
    80004610:	01813083          	ld	ra,24(sp)
    80004614:	02010113          	addi	sp,sp,32
    80004618:	d41ff06f          	j	80004358 <__sflush_r>

000000008000461c <fflush>:
    8000461c:	06050663          	beqz	a0,80004688 <fflush+0x6c>
    80004620:	fe010113          	addi	sp,sp,-32
    80004624:	00813823          	sd	s0,16(sp)
    80004628:	00050413          	mv	s0,a0
    8000462c:	8401b503          	ld	a0,-1984(gp) # 80015160 <_impure_ptr>
    80004630:	00113c23          	sd	ra,24(sp)
    80004634:	00050663          	beqz	a0,80004640 <fflush+0x24>
    80004638:	05052783          	lw	a5,80(a0)
    8000463c:	02078a63          	beqz	a5,80004670 <fflush+0x54>
    80004640:	01041783          	lh	a5,16(s0)
    80004644:	00079c63          	bnez	a5,8000465c <fflush+0x40>
    80004648:	01813083          	ld	ra,24(sp)
    8000464c:	01013403          	ld	s0,16(sp)
    80004650:	00000513          	li	a0,0
    80004654:	02010113          	addi	sp,sp,32
    80004658:	00008067          	ret
    8000465c:	00040593          	mv	a1,s0
    80004660:	01013403          	ld	s0,16(sp)
    80004664:	01813083          	ld	ra,24(sp)
    80004668:	02010113          	addi	sp,sp,32
    8000466c:	cedff06f          	j	80004358 <__sflush_r>
    80004670:	00a13423          	sd	a0,8(sp)
    80004674:	374000ef          	jal	ra,800049e8 <__sinit>
    80004678:	01041783          	lh	a5,16(s0)
    8000467c:	00813503          	ld	a0,8(sp)
    80004680:	fc0784e3          	beqz	a5,80004648 <fflush+0x2c>
    80004684:	fd9ff06f          	j	8000465c <fflush+0x40>
    80004688:	8301b503          	ld	a0,-2000(gp) # 80015150 <_global_impure_ptr>
    8000468c:	000145b7          	lui	a1,0x14
    80004690:	66c58593          	addi	a1,a1,1644 # 1466c <_start-0x7ffeb9b0>
    80004694:	5c50006f          	j	80005458 <_fwalk_reent>
    80004698:	00000513          	li	a0,0
    8000469c:	00008067          	ret

00000000800046a0 <_cleanup_r>:
    800046a0:	0001f5b7          	lui	a1,0x1f
    800046a4:	92458593          	addi	a1,a1,-1756 # 1e924 <_start-0x7ffe16f8>
    800046a8:	5b10006f          	j	80005458 <_fwalk_reent>
    800046ac:	00000513          	li	a0,0
    800046b0:	00008067          	ret
    800046b4:	fc010113          	addi	sp,sp,-64
    800046b8:	000147b7          	lui	a5,0x14
    800046bc:	02113c23          	sd	ra,56(sp)
    800046c0:	02813823          	sd	s0,48(sp)
    800046c4:	02913423          	sd	s1,40(sp)
    800046c8:	03213023          	sd	s2,32(sp)
    800046cc:	01313c23          	sd	s3,24(sp)
    800046d0:	01413823          	sd	s4,16(sp)
    800046d4:	01513423          	sd	s5,8(sp)
    800046d8:	01613023          	sd	s6,0(sp)
    800046dc:	00853403          	ld	s0,8(a0)
    800046e0:	75078793          	addi	a5,a5,1872 # 14750 <_start-0x7ffeb8cc>
    800046e4:	04f53c23          	sd	a5,88(a0)
    800046e8:	53850713          	addi	a4,a0,1336
    800046ec:	00300793          	li	a5,3
    800046f0:	52e53823          	sd	a4,1328(a0)
    800046f4:	52f52423          	sw	a5,1320(a0)
    800046f8:	52053023          	sd	zero,1312(a0)
    800046fc:	00400793          	li	a5,4
    80004700:	00050913          	mv	s2,a0
    80004704:	00f42823          	sw	a5,16(s0)
    80004708:	00800613          	li	a2,8
    8000470c:	00000593          	li	a1,0
    80004710:	0a042623          	sw	zero,172(s0)
    80004714:	00043023          	sd	zero,0(s0)
    80004718:	00043423          	sd	zero,8(s0)
    8000471c:	00043c23          	sd	zero,24(s0)
    80004720:	02042023          	sw	zero,32(s0)
    80004724:	02042423          	sw	zero,40(s0)
    80004728:	0a440513          	addi	a0,s0,164
    8000472c:	b99fc0ef          	jal	ra,800012c4 <memset>
    80004730:	0001bb37          	lui	s6,0x1b
    80004734:	01093483          	ld	s1,16(s2)
    80004738:	0001bab7          	lui	s5,0x1b
    8000473c:	0001ba37          	lui	s4,0x1b
    80004740:	0001b9b7          	lui	s3,0x1b
    80004744:	9ecb0b13          	addi	s6,s6,-1556 # 1a9ec <_start-0x7ffe5630>
    80004748:	a50a8a93          	addi	s5,s5,-1456 # 1aa50 <_start-0x7ffe55cc>
    8000474c:	ad8a0a13          	addi	s4,s4,-1320 # 1aad8 <_start-0x7ffe5544>
    80004750:	b4098993          	addi	s3,s3,-1216 # 1ab40 <_start-0x7ffe54dc>
    80004754:	000107b7          	lui	a5,0x10
    80004758:	03643c23          	sd	s6,56(s0)
    8000475c:	05543023          	sd	s5,64(s0)
    80004760:	05443423          	sd	s4,72(s0)
    80004764:	05343823          	sd	s3,80(s0)
    80004768:	02843823          	sd	s0,48(s0)
    8000476c:	00978793          	addi	a5,a5,9 # 10009 <_start-0x7fff0013>
    80004770:	00f4a823          	sw	a5,16(s1)
    80004774:	00800613          	li	a2,8
    80004778:	00000593          	li	a1,0
    8000477c:	0a04a623          	sw	zero,172(s1)
    80004780:	0004b023          	sd	zero,0(s1)
    80004784:	0004b423          	sd	zero,8(s1)
    80004788:	0004bc23          	sd	zero,24(s1)
    8000478c:	0204a023          	sw	zero,32(s1)
    80004790:	0204a423          	sw	zero,40(s1)
    80004794:	0a448513          	addi	a0,s1,164
    80004798:	b2dfc0ef          	jal	ra,800012c4 <memset>
    8000479c:	01893403          	ld	s0,24(s2)
    800047a0:	000207b7          	lui	a5,0x20
    800047a4:	0364bc23          	sd	s6,56(s1)
    800047a8:	0554b023          	sd	s5,64(s1)
    800047ac:	0544b423          	sd	s4,72(s1)
    800047b0:	0534b823          	sd	s3,80(s1)
    800047b4:	0294b823          	sd	s1,48(s1)
    800047b8:	01278793          	addi	a5,a5,18 # 20012 <_start-0x7ffe000a>
    800047bc:	00f42823          	sw	a5,16(s0)
    800047c0:	0a042623          	sw	zero,172(s0)
    800047c4:	00043023          	sd	zero,0(s0)
    800047c8:	00043423          	sd	zero,8(s0)
    800047cc:	00043c23          	sd	zero,24(s0)
    800047d0:	02042023          	sw	zero,32(s0)
    800047d4:	02042423          	sw	zero,40(s0)
    800047d8:	0a440513          	addi	a0,s0,164
    800047dc:	00800613          	li	a2,8
    800047e0:	00000593          	li	a1,0
    800047e4:	ae1fc0ef          	jal	ra,800012c4 <memset>
    800047e8:	03813083          	ld	ra,56(sp)
    800047ec:	03643c23          	sd	s6,56(s0)
    800047f0:	05543023          	sd	s5,64(s0)
    800047f4:	05443423          	sd	s4,72(s0)
    800047f8:	05343823          	sd	s3,80(s0)
    800047fc:	02843823          	sd	s0,48(s0)
    80004800:	03013403          	ld	s0,48(sp)
    80004804:	00100793          	li	a5,1
    80004808:	04f92823          	sw	a5,80(s2)
    8000480c:	02813483          	ld	s1,40(sp)
    80004810:	02013903          	ld	s2,32(sp)
    80004814:	01813983          	ld	s3,24(sp)
    80004818:	01013a03          	ld	s4,16(sp)
    8000481c:	00813a83          	ld	s5,8(sp)
    80004820:	00013b03          	ld	s6,0(sp)
    80004824:	04010113          	addi	sp,sp,64
    80004828:	00008067          	ret

000000008000482c <__sfmoreglue>:
    8000482c:	fe010113          	addi	sp,sp,-32
    80004830:	00913423          	sd	s1,8(sp)
    80004834:	0b000613          	li	a2,176
    80004838:	fff5849b          	addiw	s1,a1,-1
    8000483c:	02c484b3          	mul	s1,s1,a2
    80004840:	01213023          	sd	s2,0(sp)
    80004844:	00058913          	mv	s2,a1
    80004848:	00813823          	sd	s0,16(sp)
    8000484c:	00113c23          	sd	ra,24(sp)
    80004850:	0c848593          	addi	a1,s1,200
    80004854:	429030ef          	jal	ra,8000847c <_malloc_r>
    80004858:	00050413          	mv	s0,a0
    8000485c:	02050063          	beqz	a0,8000487c <__sfmoreglue+0x50>
    80004860:	01850513          	addi	a0,a0,24
    80004864:	00043023          	sd	zero,0(s0)
    80004868:	01242423          	sw	s2,8(s0)
    8000486c:	00a43823          	sd	a0,16(s0)
    80004870:	0b048613          	addi	a2,s1,176
    80004874:	00000593          	li	a1,0
    80004878:	a4dfc0ef          	jal	ra,800012c4 <memset>
    8000487c:	01813083          	ld	ra,24(sp)
    80004880:	00040513          	mv	a0,s0
    80004884:	01013403          	ld	s0,16(sp)
    80004888:	00813483          	ld	s1,8(sp)
    8000488c:	00013903          	ld	s2,0(sp)
    80004890:	02010113          	addi	sp,sp,32
    80004894:	00008067          	ret

0000000080004898 <__sfp>:
    80004898:	fd010113          	addi	sp,sp,-48
    8000489c:	00913c23          	sd	s1,24(sp)
    800048a0:	8301b483          	ld	s1,-2000(gp) # 80015150 <_global_impure_ptr>
    800048a4:	01213823          	sd	s2,16(sp)
    800048a8:	02113423          	sd	ra,40(sp)
    800048ac:	0504a783          	lw	a5,80(s1)
    800048b0:	02813023          	sd	s0,32(sp)
    800048b4:	01313423          	sd	s3,8(sp)
    800048b8:	01413023          	sd	s4,0(sp)
    800048bc:	00050913          	mv	s2,a0
    800048c0:	0c078063          	beqz	a5,80004980 <__sfp+0xe8>
    800048c4:	52048493          	addi	s1,s1,1312
    800048c8:	0b000993          	li	s3,176
    800048cc:	00400a13          	li	s4,4
    800048d0:	0084a783          	lw	a5,8(s1)
    800048d4:	0104b403          	ld	s0,16(s1)
    800048d8:	08f05c63          	blez	a5,80004970 <__sfp+0xd8>
    800048dc:	fff7879b          	addiw	a5,a5,-1
    800048e0:	02079793          	slli	a5,a5,0x20
    800048e4:	0207d793          	srli	a5,a5,0x20
    800048e8:	00178793          	addi	a5,a5,1
    800048ec:	033787b3          	mul	a5,a5,s3
    800048f0:	00f407b3          	add	a5,s0,a5
    800048f4:	00c0006f          	j	80004900 <__sfp+0x68>
    800048f8:	0b040413          	addi	s0,s0,176
    800048fc:	06f40a63          	beq	s0,a5,80004970 <__sfp+0xd8>
    80004900:	01041703          	lh	a4,16(s0)
    80004904:	fe071ae3          	bnez	a4,800048f8 <__sfp+0x60>
    80004908:	ffff07b7          	lui	a5,0xffff0
    8000490c:	00178793          	addi	a5,a5,1 # ffffffffffff0001 <t0.2038+0xffffffff7ffb33b9>
    80004910:	0a042623          	sw	zero,172(s0)
    80004914:	00043023          	sd	zero,0(s0)
    80004918:	00043423          	sd	zero,8(s0)
    8000491c:	00f42823          	sw	a5,16(s0)
    80004920:	00043c23          	sd	zero,24(s0)
    80004924:	02042023          	sw	zero,32(s0)
    80004928:	02042423          	sw	zero,40(s0)
    8000492c:	00800613          	li	a2,8
    80004930:	00000593          	li	a1,0
    80004934:	0a440513          	addi	a0,s0,164
    80004938:	98dfc0ef          	jal	ra,800012c4 <memset>
    8000493c:	04043c23          	sd	zero,88(s0)
    80004940:	06042023          	sw	zero,96(s0)
    80004944:	06043c23          	sd	zero,120(s0)
    80004948:	08042023          	sw	zero,128(s0)
    8000494c:	02813083          	ld	ra,40(sp)
    80004950:	00040513          	mv	a0,s0
    80004954:	02013403          	ld	s0,32(sp)
    80004958:	01813483          	ld	s1,24(sp)
    8000495c:	01013903          	ld	s2,16(sp)
    80004960:	00813983          	ld	s3,8(sp)
    80004964:	00013a03          	ld	s4,0(sp)
    80004968:	03010113          	addi	sp,sp,48
    8000496c:	00008067          	ret
    80004970:	0004b403          	ld	s0,0(s1)
    80004974:	00040c63          	beqz	s0,8000498c <__sfp+0xf4>
    80004978:	00040493          	mv	s1,s0
    8000497c:	f55ff06f          	j	800048d0 <__sfp+0x38>
    80004980:	00048513          	mv	a0,s1
    80004984:	d31ff0ef          	jal	ra,800046b4 <_cleanup_r+0x14>
    80004988:	f3dff06f          	j	800048c4 <__sfp+0x2c>
    8000498c:	2d800593          	li	a1,728
    80004990:	00090513          	mv	a0,s2
    80004994:	2e9030ef          	jal	ra,8000847c <_malloc_r>
    80004998:	00050413          	mv	s0,a0
    8000499c:	02050663          	beqz	a0,800049c8 <__sfp+0x130>
    800049a0:	01850513          	addi	a0,a0,24
    800049a4:	00043023          	sd	zero,0(s0)
    800049a8:	01442423          	sw	s4,8(s0)
    800049ac:	00a43823          	sd	a0,16(s0)
    800049b0:	2c000613          	li	a2,704
    800049b4:	00000593          	li	a1,0
    800049b8:	90dfc0ef          	jal	ra,800012c4 <memset>
    800049bc:	0084b023          	sd	s0,0(s1)
    800049c0:	00040493          	mv	s1,s0
    800049c4:	f0dff06f          	j	800048d0 <__sfp+0x38>
    800049c8:	0004b023          	sd	zero,0(s1)
    800049cc:	00c00793          	li	a5,12
    800049d0:	00f92023          	sw	a5,0(s2)
    800049d4:	f79ff06f          	j	8000494c <__sfp+0xb4>

00000000800049d8 <_cleanup>:
    800049d8:	8301b503          	ld	a0,-2000(gp) # 80015150 <_global_impure_ptr>
    800049dc:	0001f5b7          	lui	a1,0x1f
    800049e0:	92458593          	addi	a1,a1,-1756 # 1e924 <_start-0x7ffe16f8>
    800049e4:	2750006f          	j	80005458 <_fwalk_reent>

00000000800049e8 <__sinit>:
    800049e8:	05052783          	lw	a5,80(a0)
    800049ec:	00078463          	beqz	a5,800049f4 <__sinit+0xc>
    800049f0:	00008067          	ret
    800049f4:	cc1ff06f          	j	800046b4 <_cleanup_r+0x14>

00000000800049f8 <__sfp_lock_acquire>:
    800049f8:	00008067          	ret

00000000800049fc <__sfp_lock_release>:
    800049fc:	00008067          	ret

0000000080004a00 <__sinit_lock_acquire>:
    80004a00:	00008067          	ret

0000000080004a04 <__sinit_lock_release>:
    80004a04:	00008067          	ret

0000000080004a08 <__fp_lock_all>:
    80004a08:	8401b503          	ld	a0,-1984(gp) # 80015160 <_impure_ptr>
    80004a0c:	000145b7          	lui	a1,0x14
    80004a10:	74858593          	addi	a1,a1,1864 # 14748 <_start-0x7ffeb8d4>
    80004a14:	1810006f          	j	80005394 <_fwalk>

0000000080004a18 <__fp_unlock_all>:
    80004a18:	8401b503          	ld	a0,-1984(gp) # 80015160 <_impure_ptr>
    80004a1c:	000145b7          	lui	a1,0x14
    80004a20:	75c58593          	addi	a1,a1,1884 # 1475c <_start-0x7ffeb8c0>
    80004a24:	1710006f          	j	80005394 <_fwalk>

0000000080004a28 <__libc_fini_array>:
    80004a28:	fe010113          	addi	sp,sp,-32
    80004a2c:	00813823          	sd	s0,16(sp)
    80004a30:	000247b7          	lui	a5,0x24
    80004a34:	00024437          	lui	s0,0x24
    80004a38:	01840413          	addi	s0,s0,24 # 24018 <_start-0x7ffdc004>
    80004a3c:	02078793          	addi	a5,a5,32 # 24020 <_start-0x7ffdbffc>
    80004a40:	408787b3          	sub	a5,a5,s0
    80004a44:	00913423          	sd	s1,8(sp)
    80004a48:	00113c23          	sd	ra,24(sp)
    80004a4c:	4037d493          	srai	s1,a5,0x3
    80004a50:	02048063          	beqz	s1,80004a70 <__libc_fini_array+0x48>
    80004a54:	ff878793          	addi	a5,a5,-8
    80004a58:	00878433          	add	s0,a5,s0
    80004a5c:	00043783          	ld	a5,0(s0)
    80004a60:	fff48493          	addi	s1,s1,-1
    80004a64:	ff840413          	addi	s0,s0,-8
    80004a68:	000780e7          	jalr	a5
    80004a6c:	fe0498e3          	bnez	s1,80004a5c <__libc_fini_array+0x34>
    80004a70:	01813083          	ld	ra,24(sp)
    80004a74:	01013403          	ld	s0,16(sp)
    80004a78:	00813483          	ld	s1,8(sp)
    80004a7c:	02010113          	addi	sp,sp,32
    80004a80:	00008067          	ret

0000000080004a84 <_malloc_trim_r>:
    80004a84:	fd010113          	addi	sp,sp,-48
    80004a88:	01313423          	sd	s3,8(sp)
    80004a8c:	000259b7          	lui	s3,0x25
    80004a90:	02813023          	sd	s0,32(sp)
    80004a94:	00913c23          	sd	s1,24(sp)
    80004a98:	01213823          	sd	s2,16(sp)
    80004a9c:	01413023          	sd	s4,0(sp)
    80004aa0:	02113423          	sd	ra,40(sp)
    80004aa4:	00058a13          	mv	s4,a1
    80004aa8:	00050913          	mv	s2,a0
    80004aac:	91098993          	addi	s3,s3,-1776 # 24910 <_start-0x7ffdb70c>
    80004ab0:	43c040ef          	jal	ra,80008eec <__malloc_lock>
    80004ab4:	0109b703          	ld	a4,16(s3)
    80004ab8:	000017b7          	lui	a5,0x1
    80004abc:	fdf78413          	addi	s0,a5,-33 # fdf <_start-0x7ffff03d>
    80004ac0:	00873483          	ld	s1,8(a4)
    80004ac4:	41440433          	sub	s0,s0,s4
    80004ac8:	ffc4f493          	andi	s1,s1,-4
    80004acc:	00940433          	add	s0,s0,s1
    80004ad0:	00c45413          	srli	s0,s0,0xc
    80004ad4:	fff40413          	addi	s0,s0,-1
    80004ad8:	00c41413          	slli	s0,s0,0xc
    80004adc:	00f44e63          	blt	s0,a5,80004af8 <_malloc_trim_r+0x74>
    80004ae0:	00000593          	li	a1,0
    80004ae4:	00090513          	mv	a0,s2
    80004ae8:	459050ef          	jal	ra,8000a740 <_sbrk_r>
    80004aec:	0109b783          	ld	a5,16(s3)
    80004af0:	009787b3          	add	a5,a5,s1
    80004af4:	02f50863          	beq	a0,a5,80004b24 <_malloc_trim_r+0xa0>
    80004af8:	00090513          	mv	a0,s2
    80004afc:	3f4040ef          	jal	ra,80008ef0 <__malloc_unlock>
    80004b00:	02813083          	ld	ra,40(sp)
    80004b04:	02013403          	ld	s0,32(sp)
    80004b08:	01813483          	ld	s1,24(sp)
    80004b0c:	01013903          	ld	s2,16(sp)
    80004b10:	00813983          	ld	s3,8(sp)
    80004b14:	00013a03          	ld	s4,0(sp)
    80004b18:	00000513          	li	a0,0
    80004b1c:	03010113          	addi	sp,sp,48
    80004b20:	00008067          	ret
    80004b24:	408005b3          	neg	a1,s0
    80004b28:	00090513          	mv	a0,s2
    80004b2c:	415050ef          	jal	ra,8000a740 <_sbrk_r>
    80004b30:	fff00793          	li	a5,-1
    80004b34:	04f50a63          	beq	a0,a5,80004b88 <_malloc_trim_r+0x104>
    80004b38:	000287b7          	lui	a5,0x28
    80004b3c:	a2878793          	addi	a5,a5,-1496 # 27a28 <_start-0x7ffd85f4>
    80004b40:	0007a703          	lw	a4,0(a5)
    80004b44:	0109b683          	ld	a3,16(s3)
    80004b48:	408484b3          	sub	s1,s1,s0
    80004b4c:	0014e493          	ori	s1,s1,1
    80004b50:	4087043b          	subw	s0,a4,s0
    80004b54:	00090513          	mv	a0,s2
    80004b58:	0096b423          	sd	s1,8(a3) # 1008 <_start-0x7ffff014>
    80004b5c:	0087a023          	sw	s0,0(a5)
    80004b60:	390040ef          	jal	ra,80008ef0 <__malloc_unlock>
    80004b64:	02813083          	ld	ra,40(sp)
    80004b68:	02013403          	ld	s0,32(sp)
    80004b6c:	01813483          	ld	s1,24(sp)
    80004b70:	01013903          	ld	s2,16(sp)
    80004b74:	00813983          	ld	s3,8(sp)
    80004b78:	00013a03          	ld	s4,0(sp)
    80004b7c:	00100513          	li	a0,1
    80004b80:	03010113          	addi	sp,sp,48
    80004b84:	00008067          	ret
    80004b88:	00000593          	li	a1,0
    80004b8c:	00090513          	mv	a0,s2
    80004b90:	3b1050ef          	jal	ra,8000a740 <_sbrk_r>
    80004b94:	0109b703          	ld	a4,16(s3)
    80004b98:	01f00693          	li	a3,31
    80004b9c:	40e507b3          	sub	a5,a0,a4
    80004ba0:	f4f6dce3          	bge	a3,a5,80004af8 <_malloc_trim_r+0x74>
    80004ba4:	8481b683          	ld	a3,-1976(gp) # 80015168 <__malloc_sbrk_base>
    80004ba8:	0017e793          	ori	a5,a5,1
    80004bac:	00f73423          	sd	a5,8(a4)
    80004bb0:	40d50533          	sub	a0,a0,a3
    80004bb4:	000286b7          	lui	a3,0x28
    80004bb8:	a2a6a423          	sw	a0,-1496(a3) # 27a28 <_start-0x7ffd85f4>
    80004bbc:	f3dff06f          	j	80004af8 <_malloc_trim_r+0x74>

0000000080004bc0 <_free_r>:
    80004bc0:	12058e63          	beqz	a1,80004cfc <_free_r+0x13c>
    80004bc4:	fe010113          	addi	sp,sp,-32
    80004bc8:	00813823          	sd	s0,16(sp)
    80004bcc:	00913423          	sd	s1,8(sp)
    80004bd0:	00058413          	mv	s0,a1
    80004bd4:	00050493          	mv	s1,a0
    80004bd8:	00113c23          	sd	ra,24(sp)
    80004bdc:	310040ef          	jal	ra,80008eec <__malloc_lock>
    80004be0:	ff843503          	ld	a0,-8(s0)
    80004be4:	ff040713          	addi	a4,s0,-16
    80004be8:	000255b7          	lui	a1,0x25
    80004bec:	ffe57793          	andi	a5,a0,-2
    80004bf0:	00f70633          	add	a2,a4,a5
    80004bf4:	91058593          	addi	a1,a1,-1776 # 24910 <_start-0x7ffdb70c>
    80004bf8:	00863683          	ld	a3,8(a2)
    80004bfc:	0105b803          	ld	a6,16(a1)
    80004c00:	ffc6f693          	andi	a3,a3,-4
    80004c04:	1cc80063          	beq	a6,a2,80004dc4 <_free_r+0x204>
    80004c08:	00d63423          	sd	a3,8(a2)
    80004c0c:	00157513          	andi	a0,a0,1
    80004c10:	00d60833          	add	a6,a2,a3
    80004c14:	0a051463          	bnez	a0,80004cbc <_free_r+0xfc>
    80004c18:	ff043303          	ld	t1,-16(s0)
    80004c1c:	00883803          	ld	a6,8(a6)
    80004c20:	00025537          	lui	a0,0x25
    80004c24:	40670733          	sub	a4,a4,t1
    80004c28:	01073883          	ld	a7,16(a4)
    80004c2c:	92050513          	addi	a0,a0,-1760 # 24920 <_start-0x7ffdb6fc>
    80004c30:	006787b3          	add	a5,a5,t1
    80004c34:	00187813          	andi	a6,a6,1
    80004c38:	14a88663          	beq	a7,a0,80004d84 <_free_r+0x1c4>
    80004c3c:	01873303          	ld	t1,24(a4)
    80004c40:	0068bc23          	sd	t1,24(a7)
    80004c44:	01133823          	sd	a7,16(t1)
    80004c48:	1e080863          	beqz	a6,80004e38 <_free_r+0x278>
    80004c4c:	0017e693          	ori	a3,a5,1
    80004c50:	00d73423          	sd	a3,8(a4)
    80004c54:	00f63023          	sd	a5,0(a2)
    80004c58:	1ff00693          	li	a3,511
    80004c5c:	0af6ec63          	bltu	a3,a5,80004d14 <_free_r+0x154>
    80004c60:	0037d793          	srli	a5,a5,0x3
    80004c64:	0017869b          	addiw	a3,a5,1
    80004c68:	0016969b          	slliw	a3,a3,0x1
    80004c6c:	00369693          	slli	a3,a3,0x3
    80004c70:	0085b803          	ld	a6,8(a1)
    80004c74:	00d586b3          	add	a3,a1,a3
    80004c78:	0006b503          	ld	a0,0(a3)
    80004c7c:	4027d61b          	sraiw	a2,a5,0x2
    80004c80:	00100793          	li	a5,1
    80004c84:	00c797b3          	sll	a5,a5,a2
    80004c88:	0107e7b3          	or	a5,a5,a6
    80004c8c:	ff068613          	addi	a2,a3,-16
    80004c90:	00c73c23          	sd	a2,24(a4)
    80004c94:	00a73823          	sd	a0,16(a4)
    80004c98:	00f5b423          	sd	a5,8(a1)
    80004c9c:	00e6b023          	sd	a4,0(a3)
    80004ca0:	00e53c23          	sd	a4,24(a0)
    80004ca4:	01013403          	ld	s0,16(sp)
    80004ca8:	01813083          	ld	ra,24(sp)
    80004cac:	00048513          	mv	a0,s1
    80004cb0:	00813483          	ld	s1,8(sp)
    80004cb4:	02010113          	addi	sp,sp,32
    80004cb8:	2380406f          	j	80008ef0 <__malloc_unlock>
    80004cbc:	00883503          	ld	a0,8(a6)
    80004cc0:	00157513          	andi	a0,a0,1
    80004cc4:	02051e63          	bnez	a0,80004d00 <_free_r+0x140>
    80004cc8:	00025537          	lui	a0,0x25
    80004ccc:	00d787b3          	add	a5,a5,a3
    80004cd0:	92050513          	addi	a0,a0,-1760 # 24920 <_start-0x7ffdb6fc>
    80004cd4:	01063683          	ld	a3,16(a2)
    80004cd8:	0017e893          	ori	a7,a5,1
    80004cdc:	00f70833          	add	a6,a4,a5
    80004ce0:	16a68a63          	beq	a3,a0,80004e54 <_free_r+0x294>
    80004ce4:	01863603          	ld	a2,24(a2)
    80004ce8:	00c6bc23          	sd	a2,24(a3)
    80004cec:	00d63823          	sd	a3,16(a2)
    80004cf0:	01173423          	sd	a7,8(a4)
    80004cf4:	00f83023          	sd	a5,0(a6)
    80004cf8:	f61ff06f          	j	80004c58 <_free_r+0x98>
    80004cfc:	00008067          	ret
    80004d00:	0017e693          	ori	a3,a5,1
    80004d04:	fed43c23          	sd	a3,-8(s0)
    80004d08:	00f63023          	sd	a5,0(a2)
    80004d0c:	1ff00693          	li	a3,511
    80004d10:	f4f6f8e3          	bgeu	a3,a5,80004c60 <_free_r+0xa0>
    80004d14:	0097d693          	srli	a3,a5,0x9
    80004d18:	00400613          	li	a2,4
    80004d1c:	0ed66a63          	bltu	a2,a3,80004e10 <_free_r+0x250>
    80004d20:	0067d693          	srli	a3,a5,0x6
    80004d24:	0396851b          	addiw	a0,a3,57
    80004d28:	0015151b          	slliw	a0,a0,0x1
    80004d2c:	0386861b          	addiw	a2,a3,56
    80004d30:	00351513          	slli	a0,a0,0x3
    80004d34:	00a58533          	add	a0,a1,a0
    80004d38:	00053683          	ld	a3,0(a0)
    80004d3c:	ff050513          	addi	a0,a0,-16
    80004d40:	12d50863          	beq	a0,a3,80004e70 <_free_r+0x2b0>
    80004d44:	0086b603          	ld	a2,8(a3)
    80004d48:	ffc67613          	andi	a2,a2,-4
    80004d4c:	00c7f663          	bgeu	a5,a2,80004d58 <_free_r+0x198>
    80004d50:	0106b683          	ld	a3,16(a3)
    80004d54:	fed518e3          	bne	a0,a3,80004d44 <_free_r+0x184>
    80004d58:	0186b503          	ld	a0,24(a3)
    80004d5c:	00a73c23          	sd	a0,24(a4)
    80004d60:	00d73823          	sd	a3,16(a4)
    80004d64:	01013403          	ld	s0,16(sp)
    80004d68:	00e53823          	sd	a4,16(a0)
    80004d6c:	01813083          	ld	ra,24(sp)
    80004d70:	00048513          	mv	a0,s1
    80004d74:	00813483          	ld	s1,8(sp)
    80004d78:	00e6bc23          	sd	a4,24(a3)
    80004d7c:	02010113          	addi	sp,sp,32
    80004d80:	1700406f          	j	80008ef0 <__malloc_unlock>
    80004d84:	14081a63          	bnez	a6,80004ed8 <_free_r+0x318>
    80004d88:	01863583          	ld	a1,24(a2)
    80004d8c:	01063603          	ld	a2,16(a2)
    80004d90:	00f687b3          	add	a5,a3,a5
    80004d94:	01013403          	ld	s0,16(sp)
    80004d98:	00b63c23          	sd	a1,24(a2)
    80004d9c:	00c5b823          	sd	a2,16(a1)
    80004da0:	0017e693          	ori	a3,a5,1
    80004da4:	01813083          	ld	ra,24(sp)
    80004da8:	00d73423          	sd	a3,8(a4)
    80004dac:	00048513          	mv	a0,s1
    80004db0:	00f70733          	add	a4,a4,a5
    80004db4:	00813483          	ld	s1,8(sp)
    80004db8:	00f73023          	sd	a5,0(a4)
    80004dbc:	02010113          	addi	sp,sp,32
    80004dc0:	1300406f          	j	80008ef0 <__malloc_unlock>
    80004dc4:	00157513          	andi	a0,a0,1
    80004dc8:	00d787b3          	add	a5,a5,a3
    80004dcc:	02051063          	bnez	a0,80004dec <_free_r+0x22c>
    80004dd0:	ff043503          	ld	a0,-16(s0)
    80004dd4:	40a70733          	sub	a4,a4,a0
    80004dd8:	01873683          	ld	a3,24(a4)
    80004ddc:	01073603          	ld	a2,16(a4)
    80004de0:	00a787b3          	add	a5,a5,a0
    80004de4:	00d63c23          	sd	a3,24(a2)
    80004de8:	00c6b823          	sd	a2,16(a3)
    80004dec:	0017e613          	ori	a2,a5,1
    80004df0:	8501b683          	ld	a3,-1968(gp) # 80015170 <__malloc_trim_threshold>
    80004df4:	00c73423          	sd	a2,8(a4)
    80004df8:	00e5b823          	sd	a4,16(a1)
    80004dfc:	ead7e4e3          	bltu	a5,a3,80004ca4 <_free_r+0xe4>
    80004e00:	8c01b583          	ld	a1,-1856(gp) # 800151e0 <__malloc_top_pad>
    80004e04:	00048513          	mv	a0,s1
    80004e08:	c7dff0ef          	jal	ra,80004a84 <_malloc_trim_r>
    80004e0c:	e99ff06f          	j	80004ca4 <_free_r+0xe4>
    80004e10:	01400613          	li	a2,20
    80004e14:	02d67663          	bgeu	a2,a3,80004e40 <_free_r+0x280>
    80004e18:	05400613          	li	a2,84
    80004e1c:	06d66863          	bltu	a2,a3,80004e8c <_free_r+0x2cc>
    80004e20:	00c7d693          	srli	a3,a5,0xc
    80004e24:	06f6851b          	addiw	a0,a3,111
    80004e28:	0015151b          	slliw	a0,a0,0x1
    80004e2c:	06e6861b          	addiw	a2,a3,110
    80004e30:	00351513          	slli	a0,a0,0x3
    80004e34:	f01ff06f          	j	80004d34 <_free_r+0x174>
    80004e38:	00d787b3          	add	a5,a5,a3
    80004e3c:	e99ff06f          	j	80004cd4 <_free_r+0x114>
    80004e40:	05c6851b          	addiw	a0,a3,92
    80004e44:	0015151b          	slliw	a0,a0,0x1
    80004e48:	05b6861b          	addiw	a2,a3,91
    80004e4c:	00351513          	slli	a0,a0,0x3
    80004e50:	ee5ff06f          	j	80004d34 <_free_r+0x174>
    80004e54:	02e5b423          	sd	a4,40(a1)
    80004e58:	02e5b023          	sd	a4,32(a1)
    80004e5c:	00a73c23          	sd	a0,24(a4)
    80004e60:	00a73823          	sd	a0,16(a4)
    80004e64:	01173423          	sd	a7,8(a4)
    80004e68:	00f83023          	sd	a5,0(a6)
    80004e6c:	e39ff06f          	j	80004ca4 <_free_r+0xe4>
    80004e70:	0085b803          	ld	a6,8(a1)
    80004e74:	4026561b          	sraiw	a2,a2,0x2
    80004e78:	00100793          	li	a5,1
    80004e7c:	00c79633          	sll	a2,a5,a2
    80004e80:	01066633          	or	a2,a2,a6
    80004e84:	00c5b423          	sd	a2,8(a1)
    80004e88:	ed5ff06f          	j	80004d5c <_free_r+0x19c>
    80004e8c:	15400613          	li	a2,340
    80004e90:	00d66e63          	bltu	a2,a3,80004eac <_free_r+0x2ec>
    80004e94:	00f7d693          	srli	a3,a5,0xf
    80004e98:	0786851b          	addiw	a0,a3,120
    80004e9c:	0015151b          	slliw	a0,a0,0x1
    80004ea0:	0776861b          	addiw	a2,a3,119
    80004ea4:	00351513          	slli	a0,a0,0x3
    80004ea8:	e8dff06f          	j	80004d34 <_free_r+0x174>
    80004eac:	55400613          	li	a2,1364
    80004eb0:	00d66e63          	bltu	a2,a3,80004ecc <_free_r+0x30c>
    80004eb4:	0127d693          	srli	a3,a5,0x12
    80004eb8:	07d6851b          	addiw	a0,a3,125
    80004ebc:	0015151b          	slliw	a0,a0,0x1
    80004ec0:	07c6861b          	addiw	a2,a3,124
    80004ec4:	00351513          	slli	a0,a0,0x3
    80004ec8:	e6dff06f          	j	80004d34 <_free_r+0x174>
    80004ecc:	7f000513          	li	a0,2032
    80004ed0:	07e00613          	li	a2,126
    80004ed4:	e61ff06f          	j	80004d34 <_free_r+0x174>
    80004ed8:	0017e693          	ori	a3,a5,1
    80004edc:	00d73423          	sd	a3,8(a4)
    80004ee0:	00f63023          	sd	a5,0(a2)
    80004ee4:	dc1ff06f          	j	80004ca4 <_free_r+0xe4>

0000000080004ee8 <__sfvwrite_r>:
    80004ee8:	01063783          	ld	a5,16(a2)
    80004eec:	28078863          	beqz	a5,8000517c <__sfvwrite_r+0x294>
    80004ef0:	0105d783          	lhu	a5,16(a1)
    80004ef4:	fa010113          	addi	sp,sp,-96
    80004ef8:	04813823          	sd	s0,80(sp)
    80004efc:	03413823          	sd	s4,48(sp)
    80004f00:	03513423          	sd	s5,40(sp)
    80004f04:	04113c23          	sd	ra,88(sp)
    80004f08:	04913423          	sd	s1,72(sp)
    80004f0c:	05213023          	sd	s2,64(sp)
    80004f10:	03313c23          	sd	s3,56(sp)
    80004f14:	03613023          	sd	s6,32(sp)
    80004f18:	01713c23          	sd	s7,24(sp)
    80004f1c:	01813823          	sd	s8,16(sp)
    80004f20:	01913423          	sd	s9,8(sp)
    80004f24:	01a13023          	sd	s10,0(sp)
    80004f28:	0087f713          	andi	a4,a5,8
    80004f2c:	00060a13          	mv	s4,a2
    80004f30:	00050a93          	mv	s5,a0
    80004f34:	00058413          	mv	s0,a1
    80004f38:	08070863          	beqz	a4,80004fc8 <__sfvwrite_r+0xe0>
    80004f3c:	0185b703          	ld	a4,24(a1)
    80004f40:	08070463          	beqz	a4,80004fc8 <__sfvwrite_r+0xe0>
    80004f44:	0027f713          	andi	a4,a5,2
    80004f48:	000a3903          	ld	s2,0(s4)
    80004f4c:	08070e63          	beqz	a4,80004fe8 <__sfvwrite_r+0x100>
    80004f50:	04043783          	ld	a5,64(s0)
    80004f54:	03043583          	ld	a1,48(s0)
    80004f58:	80000b37          	lui	s6,0x80000
    80004f5c:	00000993          	li	s3,0
    80004f60:	00000493          	li	s1,0
    80004f64:	c00b4b13          	xori	s6,s6,-1024
    80004f68:	00098613          	mv	a2,s3
    80004f6c:	000a8513          	mv	a0,s5
    80004f70:	04048463          	beqz	s1,80004fb8 <__sfvwrite_r+0xd0>
    80004f74:	00048693          	mv	a3,s1
    80004f78:	009b7463          	bgeu	s6,s1,80004f80 <__sfvwrite_r+0x98>
    80004f7c:	000b0693          	mv	a3,s6
    80004f80:	0006869b          	sext.w	a3,a3
    80004f84:	000780e7          	jalr	a5
    80004f88:	1ea05063          	blez	a0,80005168 <__sfvwrite_r+0x280>
    80004f8c:	010a3783          	ld	a5,16(s4)
    80004f90:	00a989b3          	add	s3,s3,a0
    80004f94:	40a484b3          	sub	s1,s1,a0
    80004f98:	40a78533          	sub	a0,a5,a0
    80004f9c:	00aa3823          	sd	a0,16(s4)
    80004fa0:	16050e63          	beqz	a0,8000511c <__sfvwrite_r+0x234>
    80004fa4:	04043783          	ld	a5,64(s0)
    80004fa8:	03043583          	ld	a1,48(s0)
    80004fac:	00098613          	mv	a2,s3
    80004fb0:	000a8513          	mv	a0,s5
    80004fb4:	fc0490e3          	bnez	s1,80004f74 <__sfvwrite_r+0x8c>
    80004fb8:	00093983          	ld	s3,0(s2)
    80004fbc:	00893483          	ld	s1,8(s2)
    80004fc0:	01090913          	addi	s2,s2,16
    80004fc4:	fa5ff06f          	j	80004f68 <__sfvwrite_r+0x80>
    80004fc8:	00040593          	mv	a1,s0
    80004fcc:	000a8513          	mv	a0,s5
    80004fd0:	8f8ff0ef          	jal	ra,800040c8 <__swsetup_r>
    80004fd4:	3a051c63          	bnez	a0,8000538c <__sfvwrite_r+0x4a4>
    80004fd8:	01045783          	lhu	a5,16(s0)
    80004fdc:	000a3903          	ld	s2,0(s4)
    80004fe0:	0027f713          	andi	a4,a5,2
    80004fe4:	f60716e3          	bnez	a4,80004f50 <__sfvwrite_r+0x68>
    80004fe8:	0017f713          	andi	a4,a5,1
    80004fec:	0a071263          	bnez	a4,80005090 <__sfvwrite_r+0x1a8>
    80004ff0:	00c42483          	lw	s1,12(s0)
    80004ff4:	00043503          	ld	a0,0(s0)
    80004ff8:	80000b37          	lui	s6,0x80000
    80004ffc:	ffeb4b93          	xori	s7,s6,-2
    80005000:	00000c13          	li	s8,0
    80005004:	00000993          	li	s3,0
    80005008:	fffb4b13          	not	s6,s6
    8000500c:	00048c93          	mv	s9,s1
    80005010:	06098863          	beqz	s3,80005080 <__sfvwrite_r+0x198>
    80005014:	2007f713          	andi	a4,a5,512
    80005018:	1c070863          	beqz	a4,800051e8 <__sfvwrite_r+0x300>
    8000501c:	00048d13          	mv	s10,s1
    80005020:	2499fc63          	bgeu	s3,s1,80005278 <__sfvwrite_r+0x390>
    80005024:	00098c93          	mv	s9,s3
    80005028:	00098d13          	mv	s10,s3
    8000502c:	000d0613          	mv	a2,s10
    80005030:	000c0593          	mv	a1,s8
    80005034:	599030ef          	jal	ra,80008dcc <memmove>
    80005038:	00c42703          	lw	a4,12(s0)
    8000503c:	00043783          	ld	a5,0(s0)
    80005040:	00098493          	mv	s1,s3
    80005044:	41970cbb          	subw	s9,a4,s9
    80005048:	01a787b3          	add	a5,a5,s10
    8000504c:	01942623          	sw	s9,12(s0)
    80005050:	00f43023          	sd	a5,0(s0)
    80005054:	00000993          	li	s3,0
    80005058:	010a3603          	ld	a2,16(s4)
    8000505c:	009c0c33          	add	s8,s8,s1
    80005060:	409604b3          	sub	s1,a2,s1
    80005064:	009a3823          	sd	s1,16(s4)
    80005068:	0a048a63          	beqz	s1,8000511c <__sfvwrite_r+0x234>
    8000506c:	00c42483          	lw	s1,12(s0)
    80005070:	00043503          	ld	a0,0(s0)
    80005074:	01045783          	lhu	a5,16(s0)
    80005078:	00048c93          	mv	s9,s1
    8000507c:	f8099ce3          	bnez	s3,80005014 <__sfvwrite_r+0x12c>
    80005080:	00093c03          	ld	s8,0(s2)
    80005084:	00893983          	ld	s3,8(s2)
    80005088:	01090913          	addi	s2,s2,16
    8000508c:	f81ff06f          	j	8000500c <__sfvwrite_r+0x124>
    80005090:	00000993          	li	s3,0
    80005094:	00000513          	li	a0,0
    80005098:	00000c93          	li	s9,0
    8000509c:	00000c13          	li	s8,0
    800050a0:	0e0c0263          	beqz	s8,80005184 <__sfvwrite_r+0x29c>
    800050a4:	0e050863          	beqz	a0,80005194 <__sfvwrite_r+0x2ac>
    800050a8:	00098b93          	mv	s7,s3
    800050ac:	013c7463          	bgeu	s8,s3,800050b4 <__sfvwrite_r+0x1cc>
    800050b0:	000c0b93          	mv	s7,s8
    800050b4:	00043503          	ld	a0,0(s0)
    800050b8:	01843783          	ld	a5,24(s0)
    800050bc:	02042683          	lw	a3,32(s0)
    800050c0:	000b8493          	mv	s1,s7
    800050c4:	00a7f863          	bgeu	a5,a0,800050d4 <__sfvwrite_r+0x1ec>
    800050c8:	00c42783          	lw	a5,12(s0)
    800050cc:	00d78b3b          	addw	s6,a5,a3
    800050d0:	0f7b4263          	blt	s6,s7,800051b4 <__sfvwrite_r+0x2cc>
    800050d4:	24dbc063          	blt	s7,a3,80005314 <__sfvwrite_r+0x42c>
    800050d8:	04043783          	ld	a5,64(s0)
    800050dc:	03043583          	ld	a1,48(s0)
    800050e0:	000c8613          	mv	a2,s9
    800050e4:	000a8513          	mv	a0,s5
    800050e8:	000780e7          	jalr	a5
    800050ec:	00050493          	mv	s1,a0
    800050f0:	06a05c63          	blez	a0,80005168 <__sfvwrite_r+0x280>
    800050f4:	0005079b          	sext.w	a5,a0
    800050f8:	40f989bb          	subw	s3,s3,a5
    800050fc:	00100513          	li	a0,1
    80005100:	04098c63          	beqz	s3,80005158 <__sfvwrite_r+0x270>
    80005104:	010a3783          	ld	a5,16(s4)
    80005108:	009c8cb3          	add	s9,s9,s1
    8000510c:	409c0c33          	sub	s8,s8,s1
    80005110:	409784b3          	sub	s1,a5,s1
    80005114:	009a3823          	sd	s1,16(s4)
    80005118:	f80494e3          	bnez	s1,800050a0 <__sfvwrite_r+0x1b8>
    8000511c:	00000513          	li	a0,0
    80005120:	05813083          	ld	ra,88(sp)
    80005124:	05013403          	ld	s0,80(sp)
    80005128:	04813483          	ld	s1,72(sp)
    8000512c:	04013903          	ld	s2,64(sp)
    80005130:	03813983          	ld	s3,56(sp)
    80005134:	03013a03          	ld	s4,48(sp)
    80005138:	02813a83          	ld	s5,40(sp)
    8000513c:	02013b03          	ld	s6,32(sp)
    80005140:	01813b83          	ld	s7,24(sp)
    80005144:	01013c03          	ld	s8,16(sp)
    80005148:	00813c83          	ld	s9,8(sp)
    8000514c:	00013d03          	ld	s10,0(sp)
    80005150:	06010113          	addi	sp,sp,96
    80005154:	00008067          	ret
    80005158:	00040593          	mv	a1,s0
    8000515c:	000a8513          	mv	a0,s5
    80005160:	c5cff0ef          	jal	ra,800045bc <_fflush_r>
    80005164:	fa0500e3          	beqz	a0,80005104 <__sfvwrite_r+0x21c>
    80005168:	01041783          	lh	a5,16(s0)
    8000516c:	0407e793          	ori	a5,a5,64
    80005170:	00f41823          	sh	a5,16(s0)
    80005174:	fff00513          	li	a0,-1
    80005178:	fa9ff06f          	j	80005120 <__sfvwrite_r+0x238>
    8000517c:	00000513          	li	a0,0
    80005180:	00008067          	ret
    80005184:	00893c03          	ld	s8,8(s2)
    80005188:	00093c83          	ld	s9,0(s2)
    8000518c:	01090913          	addi	s2,s2,16
    80005190:	fe0c0ae3          	beqz	s8,80005184 <__sfvwrite_r+0x29c>
    80005194:	000c0613          	mv	a2,s8
    80005198:	00a00593          	li	a1,10
    8000519c:	000c8513          	mv	a0,s9
    800051a0:	361030ef          	jal	ra,80008d00 <memchr>
    800051a4:	1c050863          	beqz	a0,80005374 <__sfvwrite_r+0x48c>
    800051a8:	00150513          	addi	a0,a0,1
    800051ac:	419509bb          	subw	s3,a0,s9
    800051b0:	ef9ff06f          	j	800050a8 <__sfvwrite_r+0x1c0>
    800051b4:	000c8593          	mv	a1,s9
    800051b8:	000b0613          	mv	a2,s6
    800051bc:	411030ef          	jal	ra,80008dcc <memmove>
    800051c0:	00043783          	ld	a5,0(s0)
    800051c4:	00040593          	mv	a1,s0
    800051c8:	000a8513          	mv	a0,s5
    800051cc:	016787b3          	add	a5,a5,s6
    800051d0:	00f43023          	sd	a5,0(s0)
    800051d4:	be8ff0ef          	jal	ra,800045bc <_fflush_r>
    800051d8:	f80518e3          	bnez	a0,80005168 <__sfvwrite_r+0x280>
    800051dc:	000b0793          	mv	a5,s6
    800051e0:	000b0493          	mv	s1,s6
    800051e4:	f15ff06f          	j	800050f8 <__sfvwrite_r+0x210>
    800051e8:	01843783          	ld	a5,24(s0)
    800051ec:	04a7e263          	bltu	a5,a0,80005230 <__sfvwrite_r+0x348>
    800051f0:	02042783          	lw	a5,32(s0)
    800051f4:	02f9ee63          	bltu	s3,a5,80005230 <__sfvwrite_r+0x348>
    800051f8:	00098693          	mv	a3,s3
    800051fc:	013bf463          	bgeu	s7,s3,80005204 <__sfvwrite_r+0x31c>
    80005200:	000b0693          	mv	a3,s6
    80005204:	02f6c6bb          	divw	a3,a3,a5
    80005208:	04043703          	ld	a4,64(s0)
    8000520c:	03043583          	ld	a1,48(s0)
    80005210:	000c0613          	mv	a2,s8
    80005214:	000a8513          	mv	a0,s5
    80005218:	02f686bb          	mulw	a3,a3,a5
    8000521c:	000700e7          	jalr	a4
    80005220:	00050493          	mv	s1,a0
    80005224:	f4a052e3          	blez	a0,80005168 <__sfvwrite_r+0x280>
    80005228:	409989b3          	sub	s3,s3,s1
    8000522c:	e2dff06f          	j	80005058 <__sfvwrite_r+0x170>
    80005230:	0099f463          	bgeu	s3,s1,80005238 <__sfvwrite_r+0x350>
    80005234:	00098493          	mv	s1,s3
    80005238:	00048613          	mv	a2,s1
    8000523c:	000c0593          	mv	a1,s8
    80005240:	38d030ef          	jal	ra,80008dcc <memmove>
    80005244:	00c42783          	lw	a5,12(s0)
    80005248:	00043703          	ld	a4,0(s0)
    8000524c:	409786bb          	subw	a3,a5,s1
    80005250:	00970733          	add	a4,a4,s1
    80005254:	00d42623          	sw	a3,12(s0)
    80005258:	00e43023          	sd	a4,0(s0)
    8000525c:	fc0696e3          	bnez	a3,80005228 <__sfvwrite_r+0x340>
    80005260:	00040593          	mv	a1,s0
    80005264:	000a8513          	mv	a0,s5
    80005268:	b54ff0ef          	jal	ra,800045bc <_fflush_r>
    8000526c:	ee051ee3          	bnez	a0,80005168 <__sfvwrite_r+0x280>
    80005270:	409989b3          	sub	s3,s3,s1
    80005274:	de5ff06f          	j	80005058 <__sfvwrite_r+0x170>
    80005278:	4807f713          	andi	a4,a5,1152
    8000527c:	da0708e3          	beqz	a4,8000502c <__sfvwrite_r+0x144>
    80005280:	02042483          	lw	s1,32(s0)
    80005284:	01843583          	ld	a1,24(s0)
    80005288:	00198713          	addi	a4,s3,1
    8000528c:	0014969b          	slliw	a3,s1,0x1
    80005290:	009686bb          	addw	a3,a3,s1
    80005294:	40b50533          	sub	a0,a0,a1
    80005298:	01f6d49b          	srliw	s1,a3,0x1f
    8000529c:	00050d1b          	sext.w	s10,a0
    800052a0:	00d484bb          	addw	s1,s1,a3
    800052a4:	4014d49b          	sraiw	s1,s1,0x1
    800052a8:	01a70733          	add	a4,a4,s10
    800052ac:	00e4f663          	bgeu	s1,a4,800052b8 <__sfvwrite_r+0x3d0>
    800052b0:	0019849b          	addiw	s1,s3,1
    800052b4:	00a484bb          	addw	s1,s1,a0
    800052b8:	4007f793          	andi	a5,a5,1024
    800052bc:	08078263          	beqz	a5,80005340 <__sfvwrite_r+0x458>
    800052c0:	00048593          	mv	a1,s1
    800052c4:	000a8513          	mv	a0,s5
    800052c8:	1b4030ef          	jal	ra,8000847c <_malloc_r>
    800052cc:	00050c93          	mv	s9,a0
    800052d0:	0a050663          	beqz	a0,8000537c <__sfvwrite_r+0x494>
    800052d4:	01843583          	ld	a1,24(s0)
    800052d8:	000d0613          	mv	a2,s10
    800052dc:	ecdfb0ef          	jal	ra,800011a8 <memcpy>
    800052e0:	01045783          	lhu	a5,16(s0)
    800052e4:	b7f7f793          	andi	a5,a5,-1153
    800052e8:	0807e793          	ori	a5,a5,128
    800052ec:	00f41823          	sh	a5,16(s0)
    800052f0:	01ac8533          	add	a0,s9,s10
    800052f4:	41a487bb          	subw	a5,s1,s10
    800052f8:	01943c23          	sd	s9,24(s0)
    800052fc:	00a43023          	sd	a0,0(s0)
    80005300:	02942023          	sw	s1,32(s0)
    80005304:	00098c93          	mv	s9,s3
    80005308:	00f42623          	sw	a5,12(s0)
    8000530c:	00098d13          	mv	s10,s3
    80005310:	d1dff06f          	j	8000502c <__sfvwrite_r+0x144>
    80005314:	000b8613          	mv	a2,s7
    80005318:	000c8593          	mv	a1,s9
    8000531c:	2b1030ef          	jal	ra,80008dcc <memmove>
    80005320:	00c42683          	lw	a3,12(s0)
    80005324:	00043703          	ld	a4,0(s0)
    80005328:	000b879b          	sext.w	a5,s7
    8000532c:	417686bb          	subw	a3,a3,s7
    80005330:	01770733          	add	a4,a4,s7
    80005334:	00d42623          	sw	a3,12(s0)
    80005338:	00e43023          	sd	a4,0(s0)
    8000533c:	dbdff06f          	j	800050f8 <__sfvwrite_r+0x210>
    80005340:	00048613          	mv	a2,s1
    80005344:	000a8513          	mv	a0,s5
    80005348:	681040ef          	jal	ra,8000a1c8 <_realloc_r>
    8000534c:	00050c93          	mv	s9,a0
    80005350:	fa0510e3          	bnez	a0,800052f0 <__sfvwrite_r+0x408>
    80005354:	01843583          	ld	a1,24(s0)
    80005358:	000a8513          	mv	a0,s5
    8000535c:	865ff0ef          	jal	ra,80004bc0 <_free_r>
    80005360:	01041783          	lh	a5,16(s0)
    80005364:	00c00713          	li	a4,12
    80005368:	00eaa023          	sw	a4,0(s5)
    8000536c:	f7f7f793          	andi	a5,a5,-129
    80005370:	dfdff06f          	j	8000516c <__sfvwrite_r+0x284>
    80005374:	001c099b          	addiw	s3,s8,1
    80005378:	d31ff06f          	j	800050a8 <__sfvwrite_r+0x1c0>
    8000537c:	00c00713          	li	a4,12
    80005380:	01041783          	lh	a5,16(s0)
    80005384:	00eaa023          	sw	a4,0(s5)
    80005388:	de5ff06f          	j	8000516c <__sfvwrite_r+0x284>
    8000538c:	fff00513          	li	a0,-1
    80005390:	d91ff06f          	j	80005120 <__sfvwrite_r+0x238>

0000000080005394 <_fwalk>:
    80005394:	fb010113          	addi	sp,sp,-80
    80005398:	03213823          	sd	s2,48(sp)
    8000539c:	03313423          	sd	s3,40(sp)
    800053a0:	03413023          	sd	s4,32(sp)
    800053a4:	01513c23          	sd	s5,24(sp)
    800053a8:	01613823          	sd	s6,16(sp)
    800053ac:	01713423          	sd	s7,8(sp)
    800053b0:	04113423          	sd	ra,72(sp)
    800053b4:	04813023          	sd	s0,64(sp)
    800053b8:	02913c23          	sd	s1,56(sp)
    800053bc:	00058a13          	mv	s4,a1
    800053c0:	52050913          	addi	s2,a0,1312
    800053c4:	00000b13          	li	s6,0
    800053c8:	0b000a93          	li	s5,176
    800053cc:	00100b93          	li	s7,1
    800053d0:	fff00993          	li	s3,-1
    800053d4:	00892783          	lw	a5,8(s2)
    800053d8:	01093403          	ld	s0,16(s2)
    800053dc:	04f05263          	blez	a5,80005420 <_fwalk+0x8c>
    800053e0:	fff7849b          	addiw	s1,a5,-1
    800053e4:	02049493          	slli	s1,s1,0x20
    800053e8:	0204d493          	srli	s1,s1,0x20
    800053ec:	00148493          	addi	s1,s1,1
    800053f0:	035484b3          	mul	s1,s1,s5
    800053f4:	009404b3          	add	s1,s0,s1
    800053f8:	01045783          	lhu	a5,16(s0)
    800053fc:	00fbfe63          	bgeu	s7,a5,80005418 <_fwalk+0x84>
    80005400:	01241783          	lh	a5,18(s0)
    80005404:	00040513          	mv	a0,s0
    80005408:	01378863          	beq	a5,s3,80005418 <_fwalk+0x84>
    8000540c:	000a00e7          	jalr	s4
    80005410:	01656b33          	or	s6,a0,s6
    80005414:	000b0b1b          	sext.w	s6,s6
    80005418:	0b040413          	addi	s0,s0,176
    8000541c:	fc849ee3          	bne	s1,s0,800053f8 <_fwalk+0x64>
    80005420:	00093903          	ld	s2,0(s2)
    80005424:	fa0918e3          	bnez	s2,800053d4 <_fwalk+0x40>
    80005428:	04813083          	ld	ra,72(sp)
    8000542c:	04013403          	ld	s0,64(sp)
    80005430:	03813483          	ld	s1,56(sp)
    80005434:	03013903          	ld	s2,48(sp)
    80005438:	02813983          	ld	s3,40(sp)
    8000543c:	02013a03          	ld	s4,32(sp)
    80005440:	01813a83          	ld	s5,24(sp)
    80005444:	00813b83          	ld	s7,8(sp)
    80005448:	000b0513          	mv	a0,s6
    8000544c:	01013b03          	ld	s6,16(sp)
    80005450:	05010113          	addi	sp,sp,80
    80005454:	00008067          	ret

0000000080005458 <_fwalk_reent>:
    80005458:	fb010113          	addi	sp,sp,-80
    8000545c:	03213823          	sd	s2,48(sp)
    80005460:	03313423          	sd	s3,40(sp)
    80005464:	03413023          	sd	s4,32(sp)
    80005468:	01513c23          	sd	s5,24(sp)
    8000546c:	01613823          	sd	s6,16(sp)
    80005470:	01713423          	sd	s7,8(sp)
    80005474:	01813023          	sd	s8,0(sp)
    80005478:	04113423          	sd	ra,72(sp)
    8000547c:	04813023          	sd	s0,64(sp)
    80005480:	02913c23          	sd	s1,56(sp)
    80005484:	00050c13          	mv	s8,a0
    80005488:	00058a13          	mv	s4,a1
    8000548c:	52050913          	addi	s2,a0,1312
    80005490:	00000b13          	li	s6,0
    80005494:	0b000a93          	li	s5,176
    80005498:	00100b93          	li	s7,1
    8000549c:	fff00993          	li	s3,-1
    800054a0:	00892783          	lw	a5,8(s2)
    800054a4:	01093403          	ld	s0,16(s2)
    800054a8:	04f05463          	blez	a5,800054f0 <_fwalk_reent+0x98>
    800054ac:	fff7849b          	addiw	s1,a5,-1
    800054b0:	02049493          	slli	s1,s1,0x20
    800054b4:	0204d493          	srli	s1,s1,0x20
    800054b8:	00148493          	addi	s1,s1,1
    800054bc:	035484b3          	mul	s1,s1,s5
    800054c0:	009404b3          	add	s1,s0,s1
    800054c4:	01045783          	lhu	a5,16(s0)
    800054c8:	02fbf063          	bgeu	s7,a5,800054e8 <_fwalk_reent+0x90>
    800054cc:	01241783          	lh	a5,18(s0)
    800054d0:	00040593          	mv	a1,s0
    800054d4:	000c0513          	mv	a0,s8
    800054d8:	01378863          	beq	a5,s3,800054e8 <_fwalk_reent+0x90>
    800054dc:	000a00e7          	jalr	s4
    800054e0:	01656b33          	or	s6,a0,s6
    800054e4:	000b0b1b          	sext.w	s6,s6
    800054e8:	0b040413          	addi	s0,s0,176
    800054ec:	fc849ce3          	bne	s1,s0,800054c4 <_fwalk_reent+0x6c>
    800054f0:	00093903          	ld	s2,0(s2)
    800054f4:	fa0916e3          	bnez	s2,800054a0 <_fwalk_reent+0x48>
    800054f8:	04813083          	ld	ra,72(sp)
    800054fc:	04013403          	ld	s0,64(sp)
    80005500:	03813483          	ld	s1,56(sp)
    80005504:	03013903          	ld	s2,48(sp)
    80005508:	02813983          	ld	s3,40(sp)
    8000550c:	02013a03          	ld	s4,32(sp)
    80005510:	01813a83          	ld	s5,24(sp)
    80005514:	00813b83          	ld	s7,8(sp)
    80005518:	00013c03          	ld	s8,0(sp)
    8000551c:	000b0513          	mv	a0,s6
    80005520:	01013b03          	ld	s6,16(sp)
    80005524:	05010113          	addi	sp,sp,80
    80005528:	00008067          	ret
    8000552c:	00450693          	addi	a3,a0,4
    80005530:	00000793          	li	a5,0
    80005534:	01a50513          	addi	a0,a0,26
    80005538:	ffff8837          	lui	a6,0xffff8
    8000553c:	01c0006f          	j	80005558 <_fwalk_reent+0x100>
    80005540:	0017979b          	slliw	a5,a5,0x1
    80005544:	00e69023          	sh	a4,0(a3)
    80005548:	03079793          	slli	a5,a5,0x30
    8000554c:	00268693          	addi	a3,a3,2
    80005550:	0307d793          	srli	a5,a5,0x30
    80005554:	02d50e63          	beq	a0,a3,80005590 <_fwalk_reent+0x138>
    80005558:	0006d703          	lhu	a4,0(a3)
    8000555c:	00177613          	andi	a2,a4,1
    80005560:	00060463          	beqz	a2,80005568 <_fwalk_reent+0x110>
    80005564:	0017e793          	ori	a5,a5,1
    80005568:	00175713          	srli	a4,a4,0x1
    8000556c:	0027f613          	andi	a2,a5,2
    80005570:	010765b3          	or	a1,a4,a6
    80005574:	fc0606e3          	beqz	a2,80005540 <_fwalk_reent+0xe8>
    80005578:	0017979b          	slliw	a5,a5,0x1
    8000557c:	00b69023          	sh	a1,0(a3)
    80005580:	03079793          	slli	a5,a5,0x30
    80005584:	00268693          	addi	a3,a3,2
    80005588:	0307d793          	srli	a5,a5,0x30
    8000558c:	fcd516e3          	bne	a0,a3,80005558 <_fwalk_reent+0x100>
    80005590:	00008067          	ret
    80005594:	01850693          	addi	a3,a0,24
    80005598:	00000713          	li	a4,0
    8000559c:	00250513          	addi	a0,a0,2
    800055a0:	01c0006f          	j	800055bc <_fwalk_reent+0x164>
    800055a4:	0017171b          	slliw	a4,a4,0x1
    800055a8:	00f69023          	sh	a5,0(a3)
    800055ac:	03071713          	slli	a4,a4,0x30
    800055b0:	ffe68693          	addi	a3,a3,-2
    800055b4:	03075713          	srli	a4,a4,0x30
    800055b8:	04d50263          	beq	a0,a3,800055fc <_fwalk_reent+0x1a4>
    800055bc:	0006d783          	lhu	a5,0(a3)
    800055c0:	00f7d613          	srli	a2,a5,0xf
    800055c4:	0017979b          	slliw	a5,a5,0x1
    800055c8:	00060463          	beqz	a2,800055d0 <_fwalk_reent+0x178>
    800055cc:	00176713          	ori	a4,a4,1
    800055d0:	03079793          	slli	a5,a5,0x30
    800055d4:	0307d793          	srli	a5,a5,0x30
    800055d8:	00277613          	andi	a2,a4,2
    800055dc:	0017e593          	ori	a1,a5,1
    800055e0:	fc0602e3          	beqz	a2,800055a4 <_fwalk_reent+0x14c>
    800055e4:	0017171b          	slliw	a4,a4,0x1
    800055e8:	00b69023          	sh	a1,0(a3)
    800055ec:	03071713          	slli	a4,a4,0x30
    800055f0:	ffe68693          	addi	a3,a3,-2
    800055f4:	03075713          	srli	a4,a4,0x30
    800055f8:	fcd512e3          	bne	a0,a3,800055bc <_fwalk_reent+0x164>
    800055fc:	00008067          	ret
    80005600:	fe010113          	addi	sp,sp,-32
    80005604:	00010e37          	lui	t3,0x10
    80005608:	00011b23          	sh	zero,22(sp)
    8000560c:	00011c23          	sh	zero,24(sp)
    80005610:	01858593          	addi	a1,a1,24
    80005614:	01810793          	addi	a5,sp,24
    80005618:	00410813          	addi	a6,sp,4
    8000561c:	fffe0e13          	addi	t3,t3,-1 # ffff <_start-0x7fff001d>
    80005620:	0005d703          	lhu	a4,0(a1)
    80005624:	ffe78793          	addi	a5,a5,-2
    80005628:	ffe58593          	addi	a1,a1,-2
    8000562c:	02071863          	bnez	a4,8000565c <_fwalk_reent+0x204>
    80005630:	fe079f23          	sh	zero,-2(a5)
    80005634:	ff0796e3          	bne	a5,a6,80005620 <_fwalk_reent+0x1c8>
    80005638:	00460613          	addi	a2,a2,4
    8000563c:	01a10693          	addi	a3,sp,26
    80005640:	0007d703          	lhu	a4,0(a5)
    80005644:	00278793          	addi	a5,a5,2
    80005648:	00260613          	addi	a2,a2,2
    8000564c:	fee61f23          	sh	a4,-2(a2)
    80005650:	fed798e3          	bne	a5,a3,80005640 <_fwalk_reent+0x1e8>
    80005654:	02010113          	addi	sp,sp,32
    80005658:	00008067          	ret
    8000565c:	02a70733          	mul	a4,a4,a0
    80005660:	0027d883          	lhu	a7,2(a5)
    80005664:	0007d303          	lhu	t1,0(a5)
    80005668:	01c776b3          	and	a3,a4,t3
    8000566c:	011686b3          	add	a3,a3,a7
    80005670:	01075713          	srli	a4,a4,0x10
    80005674:	0106d893          	srli	a7,a3,0x10
    80005678:	00670733          	add	a4,a4,t1
    8000567c:	01170733          	add	a4,a4,a7
    80005680:	01075893          	srli	a7,a4,0x10
    80005684:	00d79123          	sh	a3,2(a5)
    80005688:	00e79023          	sh	a4,0(a5)
    8000568c:	ff179f23          	sh	a7,-2(a5)
    80005690:	f90798e3          	bne	a5,a6,80005620 <_fwalk_reent+0x1c8>
    80005694:	fa5ff06f          	j	80005638 <_fwalk_reent+0x1e0>
    80005698:	00055703          	lhu	a4,0(a0)
    8000569c:	00255783          	lhu	a5,2(a0)
    800056a0:	00070663          	beqz	a4,800056ac <_fwalk_reent+0x254>
    800056a4:	00008737          	lui	a4,0x8
    800056a8:	00e7e7b3          	or	a5,a5,a4
    800056ac:	00f59923          	sh	a5,18(a1)
    800056b0:	00255703          	lhu	a4,2(a0)
    800056b4:	000087b7          	lui	a5,0x8
    800056b8:	fff78793          	addi	a5,a5,-1 # 7fff <_start-0x7fff801d>
    800056bc:	02f70463          	beq	a4,a5,800056e4 <_fwalk_reent+0x28c>
    800056c0:	00650793          	addi	a5,a0,6
    800056c4:	01058593          	addi	a1,a1,16
    800056c8:	01850513          	addi	a0,a0,24
    800056cc:	0007d703          	lhu	a4,0(a5)
    800056d0:	00278793          	addi	a5,a5,2
    800056d4:	ffe58593          	addi	a1,a1,-2
    800056d8:	00e59123          	sh	a4,2(a1)
    800056dc:	fea798e3          	bne	a5,a0,800056cc <_fwalk_reent+0x274>
    800056e0:	00008067          	ret
    800056e4:	00650793          	addi	a5,a0,6
    800056e8:	01a50513          	addi	a0,a0,26
    800056ec:	0007d703          	lhu	a4,0(a5)
    800056f0:	00278793          	addi	a5,a5,2
    800056f4:	02071a63          	bnez	a4,80005728 <_fwalk_reent+0x2d0>
    800056f8:	fea79ae3          	bne	a5,a0,800056ec <_fwalk_reent+0x294>
    800056fc:	01258713          	addi	a4,a1,18
    80005700:	00058793          	mv	a5,a1
    80005704:	00278793          	addi	a5,a5,2
    80005708:	fe079f23          	sh	zero,-2(a5)
    8000570c:	fef71ce3          	bne	a4,a5,80005704 <_fwalk_reent+0x2ac>
    80005710:	0125d783          	lhu	a5,18(a1)
    80005714:	00008737          	lui	a4,0x8
    80005718:	fff70713          	addi	a4,a4,-1 # 7fff <_start-0x7fff801d>
    8000571c:	00e7e7b3          	or	a5,a5,a4
    80005720:	00f59923          	sh	a5,18(a1)
    80005724:	00008067          	ret
    80005728:	01058713          	addi	a4,a1,16
    8000572c:	00058793          	mv	a5,a1
    80005730:	00278793          	addi	a5,a5,2
    80005734:	fe079f23          	sh	zero,-2(a5)
    80005738:	fef71ce3          	bne	a4,a5,80005730 <_fwalk_reent+0x2d8>
    8000573c:	ffffc7b7          	lui	a5,0xffffc
    80005740:	00f59823          	sh	a5,16(a1)
    80005744:	ffff87b7          	lui	a5,0xffff8
    80005748:	fff7c793          	not	a5,a5
    8000574c:	00f59923          	sh	a5,18(a1)
    80005750:	00008067          	ret
    80005754:	00455783          	lhu	a5,4(a0)
    80005758:	fe010113          	addi	sp,sp,-32
    8000575c:	00913423          	sd	s1,8(sp)
    80005760:	00113c23          	sd	ra,24(sp)
    80005764:	00813823          	sd	s0,16(sp)
    80005768:	01213023          	sd	s2,0(sp)
    8000576c:	00050493          	mv	s1,a0
    80005770:	0c079863          	bnez	a5,80005840 <_fwalk_reent+0x3e8>
    80005774:	00655703          	lhu	a4,6(a0)
    80005778:	00000413          	li	s0,0
    8000577c:	00f75793          	srli	a5,a4,0xf
    80005780:	0a079263          	bnez	a5,80005824 <_fwalk_reent+0x3cc>
    80005784:	01a50693          	addi	a3,a0,26
    80005788:	0a000613          	li	a2,160
    8000578c:	02071863          	bnez	a4,800057bc <_fwalk_reent+0x364>
    80005790:	00648793          	addi	a5,s1,6
    80005794:	0080006f          	j	8000579c <_fwalk_reent+0x344>
    80005798:	0007d703          	lhu	a4,0(a5) # ffffffffffff8000 <t0.2038+0xffffffff7ffbb3b8>
    8000579c:	00278793          	addi	a5,a5,2
    800057a0:	fee79e23          	sh	a4,-4(a5)
    800057a4:	fed79ae3          	bne	a5,a3,80005798 <_fwalk_reent+0x340>
    800057a8:	00049c23          	sh	zero,24(s1)
    800057ac:	0104041b          	addiw	s0,s0,16
    800057b0:	06c40a63          	beq	s0,a2,80005824 <_fwalk_reent+0x3cc>
    800057b4:	0064d703          	lhu	a4,6(s1)
    800057b8:	fc070ce3          	beqz	a4,80005790 <_fwalk_reent+0x338>
    800057bc:	f0077793          	andi	a5,a4,-256
    800057c0:	04079063          	bnez	a5,80005800 <_fwalk_reent+0x3a8>
    800057c4:	01848513          	addi	a0,s1,24
    800057c8:	00248593          	addi	a1,s1,2
    800057cc:	00000793          	li	a5,0
    800057d0:	00050713          	mv	a4,a0
    800057d4:	00075683          	lhu	a3,0(a4)
    800057d8:	ffe70713          	addi	a4,a4,-2
    800057dc:	0086961b          	slliw	a2,a3,0x8
    800057e0:	00c7e7b3          	or	a5,a5,a2
    800057e4:	00f71123          	sh	a5,2(a4)
    800057e8:	0086d793          	srli	a5,a3,0x8
    800057ec:	fee594e3          	bne	a1,a4,800057d4 <_fwalk_reent+0x37c>
    800057f0:	0064d703          	lhu	a4,6(s1)
    800057f4:	0084041b          	addiw	s0,s0,8
    800057f8:	f0077793          	andi	a5,a4,-256
    800057fc:	fc0788e3          	beqz	a5,800057cc <_fwalk_reent+0x374>
    80005800:	0a000913          	li	s2,160
    80005804:	0140006f          	j	80005818 <_fwalk_reent+0x3c0>
    80005808:	0014041b          	addiw	s0,s0,1
    8000580c:	d89ff0ef          	jal	ra,80005594 <_fwalk_reent+0x13c>
    80005810:	00894a63          	blt	s2,s0,80005824 <_fwalk_reent+0x3cc>
    80005814:	0064d703          	lhu	a4,6(s1)
    80005818:	00f75713          	srli	a4,a4,0xf
    8000581c:	00048513          	mv	a0,s1
    80005820:	fe0704e3          	beqz	a4,80005808 <_fwalk_reent+0x3b0>
    80005824:	01813083          	ld	ra,24(sp)
    80005828:	00040513          	mv	a0,s0
    8000582c:	01013403          	ld	s0,16(sp)
    80005830:	00813483          	ld	s1,8(sp)
    80005834:	00013903          	ld	s2,0(sp)
    80005838:	02010113          	addi	sp,sp,32
    8000583c:	00008067          	ret
    80005840:	f007f713          	andi	a4,a5,-256
    80005844:	00000413          	li	s0,0
    80005848:	04071063          	bnez	a4,80005888 <_fwalk_reent+0x430>
    8000584c:	f6f00913          	li	s2,-145
    80005850:	0140006f          	j	80005864 <_fwalk_reent+0x40c>
    80005854:	fff4041b          	addiw	s0,s0,-1
    80005858:	cd5ff0ef          	jal	ra,8000552c <_fwalk_reent+0xd4>
    8000585c:	fd2404e3          	beq	s0,s2,80005824 <_fwalk_reent+0x3cc>
    80005860:	0044d783          	lhu	a5,4(s1)
    80005864:	00048513          	mv	a0,s1
    80005868:	fe0796e3          	bnez	a5,80005854 <_fwalk_reent+0x3fc>
    8000586c:	01813083          	ld	ra,24(sp)
    80005870:	00040513          	mv	a0,s0
    80005874:	01013403          	ld	s0,16(sp)
    80005878:	00813483          	ld	s1,8(sp)
    8000587c:	00013903          	ld	s2,0(sp)
    80005880:	02010113          	addi	sp,sp,32
    80005884:	00008067          	ret
    80005888:	00450693          	addi	a3,a0,4
    8000588c:	01a50593          	addi	a1,a0,26
    80005890:	00000713          	li	a4,0
    80005894:	0080006f          	j	8000589c <_fwalk_reent+0x444>
    80005898:	0006d783          	lhu	a5,0(a3)
    8000589c:	0087d61b          	srliw	a2,a5,0x8
    800058a0:	00c76733          	or	a4,a4,a2
    800058a4:	0087979b          	slliw	a5,a5,0x8
    800058a8:	00e69023          	sh	a4,0(a3)
    800058ac:	03079713          	slli	a4,a5,0x30
    800058b0:	00268693          	addi	a3,a3,2
    800058b4:	03075713          	srli	a4,a4,0x30
    800058b8:	fed590e3          	bne	a1,a3,80005898 <_fwalk_reent+0x440>
    800058bc:	0044d783          	lhu	a5,4(s1)
    800058c0:	ff800413          	li	s0,-8
    800058c4:	f89ff06f          	j	8000584c <_fwalk_reent+0x3f4>
    800058c8:	fd010113          	addi	sp,sp,-48
    800058cc:	02813023          	sd	s0,32(sp)
    800058d0:	00913c23          	sd	s1,24(sp)
    800058d4:	02113423          	sd	ra,40(sp)
    800058d8:	01213823          	sd	s2,16(sp)
    800058dc:	01313423          	sd	s3,8(sp)
    800058e0:	00058493          	mv	s1,a1
    800058e4:	00050413          	mv	s0,a0
    800058e8:	0a05c463          	bltz	a1,80005990 <_fwalk_reent+0x538>
    800058ec:	00f00793          	li	a5,15
    800058f0:	00058613          	mv	a2,a1
    800058f4:	00450513          	addi	a0,a0,4
    800058f8:	01840693          	addi	a3,s0,24
    800058fc:	00f00593          	li	a1,15
    80005900:	0297d463          	bge	a5,s1,80005928 <_fwalk_reent+0x4d0>
    80005904:	00050793          	mv	a5,a0
    80005908:	0027d703          	lhu	a4,2(a5)
    8000590c:	00278793          	addi	a5,a5,2
    80005910:	fee79f23          	sh	a4,-2(a5)
    80005914:	fef69ae3          	bne	a3,a5,80005908 <_fwalk_reent+0x4b0>
    80005918:	00041c23          	sh	zero,24(s0)
    8000591c:	ff06061b          	addiw	a2,a2,-16
    80005920:	fec5c2e3          	blt	a1,a2,80005904 <_fwalk_reent+0x4ac>
    80005924:	00f4f493          	andi	s1,s1,15
    80005928:	00700793          	li	a5,7
    8000592c:	0297d863          	bge	a5,s1,8000595c <_fwalk_reent+0x504>
    80005930:	01840713          	addi	a4,s0,24
    80005934:	00240593          	addi	a1,s0,2
    80005938:	00000793          	li	a5,0
    8000593c:	00075683          	lhu	a3,0(a4)
    80005940:	ffe70713          	addi	a4,a4,-2
    80005944:	0086961b          	slliw	a2,a3,0x8
    80005948:	00c7e7b3          	or	a5,a5,a2
    8000594c:	00f71123          	sh	a5,2(a4)
    80005950:	0086d793          	srli	a5,a3,0x8
    80005954:	fee594e3          	bne	a1,a4,8000593c <_fwalk_reent+0x4e4>
    80005958:	ff84849b          	addiw	s1,s1,-8
    8000595c:	00048a63          	beqz	s1,80005970 <_fwalk_reent+0x518>
    80005960:	fff4849b          	addiw	s1,s1,-1
    80005964:	00040513          	mv	a0,s0
    80005968:	c2dff0ef          	jal	ra,80005594 <_fwalk_reent+0x13c>
    8000596c:	fe049ae3          	bnez	s1,80005960 <_fwalk_reent+0x508>
    80005970:	00000513          	li	a0,0
    80005974:	02813083          	ld	ra,40(sp)
    80005978:	02013403          	ld	s0,32(sp)
    8000597c:	01813483          	ld	s1,24(sp)
    80005980:	01013903          	ld	s2,16(sp)
    80005984:	00813983          	ld	s3,8(sp)
    80005988:	03010113          	addi	sp,sp,48
    8000598c:	00008067          	ret
    80005990:	ff100793          	li	a5,-15
    80005994:	40b0093b          	negw	s2,a1
    80005998:	12f5de63          	bge	a1,a5,80005ad4 <_fwalk_reent+0x67c>
    8000599c:	01850593          	addi	a1,a0,24
    800059a0:	00000993          	li	s3,0
    800059a4:	00450693          	addi	a3,a0,4
    800059a8:	00f00613          	li	a2,15
    800059ac:	01845703          	lhu	a4,24(s0)
    800059b0:	00058793          	mv	a5,a1
    800059b4:	00e9e9b3          	or	s3,s3,a4
    800059b8:	ffe7d703          	lhu	a4,-2(a5)
    800059bc:	ffe78793          	addi	a5,a5,-2
    800059c0:	00e79123          	sh	a4,2(a5)
    800059c4:	fed79ae3          	bne	a5,a3,800059b8 <_fwalk_reent+0x560>
    800059c8:	00041223          	sh	zero,4(s0)
    800059cc:	ff09091b          	addiw	s2,s2,-16
    800059d0:	fd264ee3          	blt	a2,s2,800059ac <_fwalk_reent+0x554>
    800059d4:	ff000913          	li	s2,-16
    800059d8:	ff100713          	li	a4,-15
    800059dc:	4099093b          	subw	s2,s2,s1
    800059e0:	00000793          	li	a5,0
    800059e4:	0ae4c663          	blt	s1,a4,80005a90 <_fwalk_reent+0x638>
    800059e8:	00f9093b          	addw	s2,s2,a5
    800059ec:	00700793          	li	a5,7
    800059f0:	0527ca63          	blt	a5,s2,80005a44 <_fwalk_reent+0x5ec>
    800059f4:	0c090263          	beqz	s2,80005ab8 <_fwalk_reent+0x660>
    800059f8:	01845783          	lhu	a5,24(s0)
    800059fc:	fff9091b          	addiw	s2,s2,-1
    80005a00:	00040513          	mv	a0,s0
    80005a04:	0017f793          	andi	a5,a5,1
    80005a08:	0137e9b3          	or	s3,a5,s3
    80005a0c:	b21ff0ef          	jal	ra,8000552c <_fwalk_reent+0xd4>
    80005a10:	fe0914e3          	bnez	s2,800059f8 <_fwalk_reent+0x5a0>
    80005a14:	0109979b          	slliw	a5,s3,0x10
    80005a18:	4107d79b          	sraiw	a5,a5,0x10
    80005a1c:	08079663          	bnez	a5,80005aa8 <_fwalk_reent+0x650>
    80005a20:	03099513          	slli	a0,s3,0x30
    80005a24:	03055513          	srli	a0,a0,0x30
    80005a28:	02813083          	ld	ra,40(sp)
    80005a2c:	02013403          	ld	s0,32(sp)
    80005a30:	01813483          	ld	s1,24(sp)
    80005a34:	01013903          	ld	s2,16(sp)
    80005a38:	00813983          	ld	s3,8(sp)
    80005a3c:	03010113          	addi	sp,sp,48
    80005a40:	00008067          	ret
    80005a44:	0109999b          	slliw	s3,s3,0x10
    80005a48:	4109d99b          	sraiw	s3,s3,0x10
    80005a4c:	01844783          	lbu	a5,24(s0)
    80005a50:	01a40593          	addi	a1,s0,26
    80005a54:	00f9e9b3          	or	s3,s3,a5
    80005a58:	03099993          	slli	s3,s3,0x30
    80005a5c:	0309d993          	srli	s3,s3,0x30
    80005a60:	00000793          	li	a5,0
    80005a64:	0006d703          	lhu	a4,0(a3)
    80005a68:	00268693          	addi	a3,a3,2
    80005a6c:	0087561b          	srliw	a2,a4,0x8
    80005a70:	00c7e7b3          	or	a5,a5,a2
    80005a74:	0087171b          	slliw	a4,a4,0x8
    80005a78:	fef69f23          	sh	a5,-2(a3)
    80005a7c:	03071793          	slli	a5,a4,0x30
    80005a80:	0307d793          	srli	a5,a5,0x30
    80005a84:	fed590e3          	bne	a1,a3,80005a64 <_fwalk_reent+0x60c>
    80005a88:	ff89091b          	addiw	s2,s2,-8
    80005a8c:	f69ff06f          	j	800059f4 <_fwalk_reent+0x59c>
    80005a90:	ff097793          	andi	a5,s2,-16
    80005a94:	40f007bb          	negw	a5,a5
    80005a98:	00f9093b          	addw	s2,s2,a5
    80005a9c:	00700793          	li	a5,7
    80005aa0:	f527dae3          	bge	a5,s2,800059f4 <_fwalk_reent+0x59c>
    80005aa4:	fa1ff06f          	j	80005a44 <_fwalk_reent+0x5ec>
    80005aa8:	00100993          	li	s3,1
    80005aac:	03099513          	slli	a0,s3,0x30
    80005ab0:	03055513          	srli	a0,a0,0x30
    80005ab4:	f75ff06f          	j	80005a28 <_fwalk_reent+0x5d0>
    80005ab8:	00098513          	mv	a0,s3
    80005abc:	00099863          	bnez	s3,80005acc <_fwalk_reent+0x674>
    80005ac0:	03051513          	slli	a0,a0,0x30
    80005ac4:	03055513          	srli	a0,a0,0x30
    80005ac8:	eadff06f          	j	80005974 <_fwalk_reent+0x51c>
    80005acc:	00100513          	li	a0,1
    80005ad0:	ff1ff06f          	j	80005ac0 <_fwalk_reent+0x668>
    80005ad4:	ff900793          	li	a5,-7
    80005ad8:	00000993          	li	s3,0
    80005adc:	00450693          	addi	a3,a0,4
    80005ae0:	f6f5c6e3          	blt	a1,a5,80005a4c <_fwalk_reent+0x5f4>
    80005ae4:	f15ff06f          	j	800059f8 <_fwalk_reent+0x5a0>
    80005ae8:	01255783          	lhu	a5,18(a0)
    80005aec:	00008637          	lui	a2,0x8
    80005af0:	fff60613          	addi	a2,a2,-1 # 7fff <_start-0x7fff801d>
    80005af4:	00f7d79b          	srliw	a5,a5,0xf
    80005af8:	40f007bb          	negw	a5,a5
    80005afc:	00f59023          	sh	a5,0(a1)
    80005b00:	01255683          	lhu	a3,18(a0)
    80005b04:	01050793          	addi	a5,a0,16
    80005b08:	00458713          	addi	a4,a1,4
    80005b0c:	00d676b3          	and	a3,a2,a3
    80005b10:	00d59123          	sh	a3,2(a1)
    80005b14:	0006881b          	sext.w	a6,a3
    80005b18:	02c68663          	beq	a3,a2,80005b44 <_fwalk_reent+0x6ec>
    80005b1c:	00658713          	addi	a4,a1,6
    80005b20:	00059223          	sh	zero,4(a1)
    80005b24:	ffe50513          	addi	a0,a0,-2
    80005b28:	0007d683          	lhu	a3,0(a5)
    80005b2c:	ffe78793          	addi	a5,a5,-2
    80005b30:	00270713          	addi	a4,a4,2
    80005b34:	fed71f23          	sh	a3,-2(a4)
    80005b38:	fef518e3          	bne	a0,a5,80005b28 <_fwalk_reent+0x6d0>
    80005b3c:	00059c23          	sh	zero,24(a1)
    80005b40:	00008067          	ret
    80005b44:	01255683          	lhu	a3,18(a0)
    80005b48:	00d876b3          	and	a3,a6,a3
    80005b4c:	01069e63          	bne	a3,a6,80005b68 <_fwalk_reent+0x710>
    80005b50:	01250813          	addi	a6,a0,18
    80005b54:	00050693          	mv	a3,a0
    80005b58:	0006d603          	lhu	a2,0(a3)
    80005b5c:	00268693          	addi	a3,a3,2
    80005b60:	00061e63          	bnez	a2,80005b7c <_fwalk_reent+0x724>
    80005b64:	ff069ae3          	bne	a3,a6,80005b58 <_fwalk_reent+0x700>
    80005b68:	01a58593          	addi	a1,a1,26
    80005b6c:	00270713          	addi	a4,a4,2
    80005b70:	fe071f23          	sh	zero,-2(a4)
    80005b74:	fee59ce3          	bne	a1,a4,80005b6c <_fwalk_reent+0x714>
    80005b78:	00008067          	ret
    80005b7c:	00658713          	addi	a4,a1,6
    80005b80:	00059223          	sh	zero,4(a1)
    80005b84:	ffc50513          	addi	a0,a0,-4
    80005b88:	0007d683          	lhu	a3,0(a5)
    80005b8c:	ffe78793          	addi	a5,a5,-2
    80005b90:	00270713          	addi	a4,a4,2
    80005b94:	fed71f23          	sh	a3,-2(a4)
    80005b98:	fea798e3          	bne	a5,a0,80005b88 <_fwalk_reent+0x730>
    80005b9c:	00008067          	ret
    80005ba0:	01255783          	lhu	a5,18(a0)
    80005ba4:	fb010113          	addi	sp,sp,-80
    80005ba8:	04813023          	sd	s0,64(sp)
    80005bac:	fff7c793          	not	a5,a5
    80005bb0:	04113423          	sd	ra,72(sp)
    80005bb4:	03179713          	slli	a4,a5,0x31
    80005bb8:	00058413          	mv	s0,a1
    80005bbc:	00071e63          	bnez	a4,80005bd8 <_fwalk_reent+0x780>
    80005bc0:	01250693          	addi	a3,a0,18
    80005bc4:	00050793          	mv	a5,a0
    80005bc8:	0007d703          	lhu	a4,0(a5)
    80005bcc:	00278793          	addi	a5,a5,2
    80005bd0:	08071c63          	bnez	a4,80005c68 <_fwalk_reent+0x810>
    80005bd4:	fed79ae3          	bne	a5,a3,80005bc8 <_fwalk_reent+0x770>
    80005bd8:	01245783          	lhu	a5,18(s0)
    80005bdc:	fff7c793          	not	a5,a5
    80005be0:	03179713          	slli	a4,a5,0x31
    80005be4:	06070063          	beqz	a4,80005c44 <_fwalk_reent+0x7ec>
    80005be8:	00010593          	mv	a1,sp
    80005bec:	efdff0ef          	jal	ra,80005ae8 <_fwalk_reent+0x690>
    80005bf0:	02010593          	addi	a1,sp,32
    80005bf4:	00040513          	mv	a0,s0
    80005bf8:	ef1ff0ef          	jal	ra,80005ae8 <_fwalk_reent+0x690>
    80005bfc:	00015583          	lhu	a1,0(sp)
    80005c00:	02015783          	lhu	a5,32(sp)
    80005c04:	06b78c63          	beq	a5,a1,80005c7c <_fwalk_reent+0x824>
    80005c08:	00210793          	addi	a5,sp,2
    80005c0c:	02210713          	addi	a4,sp,34
    80005c10:	01810613          	addi	a2,sp,24
    80005c14:	0007d683          	lhu	a3,0(a5)
    80005c18:	00278793          	addi	a5,a5,2
    80005c1c:	0a069663          	bnez	a3,80005cc8 <_fwalk_reent+0x870>
    80005c20:	00075683          	lhu	a3,0(a4)
    80005c24:	00270713          	addi	a4,a4,2
    80005c28:	0a069063          	bnez	a3,80005cc8 <_fwalk_reent+0x870>
    80005c2c:	fef614e3          	bne	a2,a5,80005c14 <_fwalk_reent+0x7bc>
    80005c30:	00000513          	li	a0,0
    80005c34:	04813083          	ld	ra,72(sp)
    80005c38:	04013403          	ld	s0,64(sp)
    80005c3c:	05010113          	addi	sp,sp,80
    80005c40:	00008067          	ret
    80005c44:	00040793          	mv	a5,s0
    80005c48:	0007d703          	lhu	a4,0(a5)
    80005c4c:	01240693          	addi	a3,s0,18
    80005c50:	00278793          	addi	a5,a5,2
    80005c54:	00071a63          	bnez	a4,80005c68 <_fwalk_reent+0x810>
    80005c58:	f8d788e3          	beq	a5,a3,80005be8 <_fwalk_reent+0x790>
    80005c5c:	0007d703          	lhu	a4,0(a5)
    80005c60:	00278793          	addi	a5,a5,2
    80005c64:	fe070ae3          	beqz	a4,80005c58 <_fwalk_reent+0x800>
    80005c68:	04813083          	ld	ra,72(sp)
    80005c6c:	04013403          	ld	s0,64(sp)
    80005c70:	ffe00513          	li	a0,-2
    80005c74:	05010113          	addi	sp,sp,80
    80005c78:	00008067          	ret
    80005c7c:	00100513          	li	a0,1
    80005c80:	04059c63          	bnez	a1,80005cd8 <_fwalk_reent+0x880>
    80005c84:	00215603          	lhu	a2,2(sp)
    80005c88:	02215683          	lhu	a3,34(sp)
    80005c8c:	00210713          	addi	a4,sp,2
    80005c90:	02210793          	addi	a5,sp,34
    80005c94:	03810593          	addi	a1,sp,56
    80005c98:	00278793          	addi	a5,a5,2
    80005c9c:	00270713          	addi	a4,a4,2
    80005ca0:	00d61e63          	bne	a2,a3,80005cbc <_fwalk_reent+0x864>
    80005ca4:	f8b786e3          	beq	a5,a1,80005c30 <_fwalk_reent+0x7d8>
    80005ca8:	00075603          	lhu	a2,0(a4)
    80005cac:	0007d683          	lhu	a3,0(a5)
    80005cb0:	00270713          	addi	a4,a4,2
    80005cb4:	00278793          	addi	a5,a5,2
    80005cb8:	fed606e3          	beq	a2,a3,80005ca4 <_fwalk_reent+0x84c>
    80005cbc:	f6c6ece3          	bltu	a3,a2,80005c34 <_fwalk_reent+0x7dc>
    80005cc0:	40a0053b          	negw	a0,a0
    80005cc4:	f71ff06f          	j	80005c34 <_fwalk_reent+0x7dc>
    80005cc8:	00100513          	li	a0,1
    80005ccc:	f60584e3          	beqz	a1,80005c34 <_fwalk_reent+0x7dc>
    80005cd0:	fff00513          	li	a0,-1
    80005cd4:	f61ff06f          	j	80005c34 <_fwalk_reent+0x7dc>
    80005cd8:	fff00513          	li	a0,-1
    80005cdc:	fa9ff06f          	j	80005c84 <_fwalk_reent+0x82c>
    80005ce0:	fc010113          	addi	sp,sp,-64
    80005ce4:	02813823          	sd	s0,48(sp)
    80005ce8:	02913423          	sd	s1,40(sp)
    80005cec:	03213023          	sd	s2,32(sp)
    80005cf0:	01313c23          	sd	s3,24(sp)
    80005cf4:	01413823          	sd	s4,16(sp)
    80005cf8:	01513423          	sd	s5,8(sp)
    80005cfc:	00068913          	mv	s2,a3
    80005d00:	00078493          	mv	s1,a5
    80005d04:	02113c23          	sd	ra,56(sp)
    80005d08:	00050413          	mv	s0,a0
    80005d0c:	00058993          	mv	s3,a1
    80005d10:	00060a13          	mv	s4,a2
    80005d14:	00070a93          	mv	s5,a4
    80005d18:	a3dff0ef          	jal	ra,80005754 <_fwalk_reent+0x2fc>
    80005d1c:	09000793          	li	a5,144
    80005d20:	40a90933          	sub	s2,s2,a0
    80005d24:	1aa7da63          	bge	a5,a0,80005ed8 <_fwalk_reent+0xa80>
    80005d28:	000087b7          	lui	a5,0x8
    80005d2c:	ffe78793          	addi	a5,a5,-2 # 7ffe <_start-0x7fff801e>
    80005d30:	2327d863          	bge	a5,s2,80005f60 <_fwalk_reent+0xb08>
    80005d34:	200a8263          	beqz	s5,80005f38 <_fwalk_reent+0xae0>
    80005d38:	0044a503          	lw	a0,4(s1)
    80005d3c:	0004a783          	lw	a5,0(s1)
    80005d40:	06a78a63          	beq	a5,a0,80005db4 <_fwalk_reent+0x95c>
    80005d44:	01a48713          	addi	a4,s1,26
    80005d48:	03448793          	addi	a5,s1,52
    80005d4c:	00270713          	addi	a4,a4,2
    80005d50:	fe071f23          	sh	zero,-2(a4)
    80005d54:	fef71ce3          	bne	a4,a5,80005d4c <_fwalk_reent+0x8f4>
    80005d58:	03800793          	li	a5,56
    80005d5c:	36f50e63          	beq	a0,a5,800060d8 <_fwalk_reent+0xc80>
    80005d60:	18a7de63          	bge	a5,a0,80005efc <_fwalk_reent+0xaa4>
    80005d64:	04000793          	li	a5,64
    80005d68:	30f50c63          	beq	a0,a5,80006080 <_fwalk_reent+0xc28>
    80005d6c:	07100793          	li	a5,113
    80005d70:	32f51e63          	bne	a0,a5,800060ac <_fwalk_reent+0xc54>
    80005d74:	400087b7          	lui	a5,0x40008
    80005d78:	fff78793          	addi	a5,a5,-1 # 40007fff <_start-0x3fff801d>
    80005d7c:	00a00713          	li	a4,10
    80005d80:	00f4aa23          	sw	a5,20(s1)
    80005d84:	ffff87b7          	lui	a5,0xffff8
    80005d88:	00e4a423          	sw	a4,8(s1)
    80005d8c:	00f49c23          	sh	a5,24(s1)
    80005d90:	00e4a623          	sw	a4,12(s1)
    80005d94:	00a00793          	li	a5,10
    80005d98:	00008737          	lui	a4,0x8
    80005d9c:	00878793          	addi	a5,a5,8 # ffffffffffff8008 <t0.2038+0xffffffff7ffbb3c0>
    80005da0:	00179793          	slli	a5,a5,0x1
    80005da4:	00f487b3          	add	a5,s1,a5
    80005da8:	00e79523          	sh	a4,10(a5)
    80005dac:	00a4a023          	sw	a0,0(s1)
    80005db0:	1f205663          	blez	s2,80005f9c <_fwalk_reent+0xb44>
    80005db4:	0084a683          	lw	a3,8(s1)
    80005db8:	0144d603          	lhu	a2,20(s1)
    80005dbc:	08f00713          	li	a4,143
    80005dc0:	00169793          	slli	a5,a3,0x1
    80005dc4:	00f40833          	add	a6,s0,a5
    80005dc8:	00085883          	lhu	a7,0(a6) # ffffffffffff8000 <t0.2038+0xffffffff7ffbb3b8>
    80005dcc:	00c8f5b3          	and	a1,a7,a2
    80005dd0:	04a74863          	blt	a4,a0,80005e20 <_fwalk_reent+0x9c8>
    80005dd4:	00b00713          	li	a4,11
    80005dd8:	04d74463          	blt	a4,a3,80005e20 <_fwalk_reent+0x9c8>
    80005ddc:	40d7073b          	subw	a4,a4,a3
    80005de0:	02071713          	slli	a4,a4,0x20
    80005de4:	02075713          	srli	a4,a4,0x20
    80005de8:	00d70733          	add	a4,a4,a3
    80005dec:	00171693          	slli	a3,a4,0x1
    80005df0:	00278793          	addi	a5,a5,2
    80005df4:	00440713          	addi	a4,s0,4
    80005df8:	00f407b3          	add	a5,s0,a5
    80005dfc:	00e68733          	add	a4,a3,a4
    80005e00:	0007d683          	lhu	a3,0(a5)
    80005e04:	00068463          	beqz	a3,80005e0c <_fwalk_reent+0x9b4>
    80005e08:	0015e593          	ori	a1,a1,1
    80005e0c:	00079023          	sh	zero,0(a5)
    80005e10:	00278793          	addi	a5,a5,2
    80005e14:	fef716e3          	bne	a4,a5,80005e00 <_fwalk_reent+0x9a8>
    80005e18:	00085883          	lhu	a7,0(a6)
    80005e1c:	0144d603          	lhu	a2,20(s1)
    80005e20:	fff64613          	not	a2,a2
    80005e24:	01167633          	and	a2,a2,a7
    80005e28:	00c81023          	sh	a2,0(a6)
    80005e2c:	0164d783          	lhu	a5,22(s1)
    80005e30:	00b7f733          	and	a4,a5,a1
    80005e34:	06070063          	beqz	a4,80005e94 <_fwalk_reent+0xa3c>
    80005e38:	02b79263          	bne	a5,a1,80005e5c <_fwalk_reent+0xa04>
    80005e3c:	20099863          	bnez	s3,8000604c <_fwalk_reent+0xbf4>
    80005e40:	00c4a783          	lw	a5,12(s1)
    80005e44:	0184d703          	lhu	a4,24(s1)
    80005e48:	00179793          	slli	a5,a5,0x1
    80005e4c:	00f407b3          	add	a5,s0,a5
    80005e50:	0007d783          	lhu	a5,0(a5)
    80005e54:	00e7f7b3          	and	a5,a5,a4
    80005e58:	02078e63          	beqz	a5,80005e94 <_fwalk_reent+0xa3c>
    80005e5c:	03248613          	addi	a2,s1,50
    80005e60:	01840693          	addi	a3,s0,24
    80005e64:	01c48493          	addi	s1,s1,28
    80005e68:	00000713          	li	a4,0
    80005e6c:	00065783          	lhu	a5,0(a2)
    80005e70:	0006d583          	lhu	a1,0(a3)
    80005e74:	ffe68693          	addi	a3,a3,-2
    80005e78:	ffe60613          	addi	a2,a2,-2
    80005e7c:	00b787b3          	add	a5,a5,a1
    80005e80:	00e787b3          	add	a5,a5,a4
    80005e84:	0107d713          	srli	a4,a5,0x10
    80005e88:	00f69123          	sh	a5,2(a3)
    80005e8c:	00177713          	andi	a4,a4,1
    80005e90:	fc961ee3          	bne	a2,s1,80005e6c <_fwalk_reent+0xa14>
    80005e94:	17205663          	blez	s2,80006000 <_fwalk_reent+0xba8>
    80005e98:	00445783          	lhu	a5,4(s0)
    80005e9c:	12079e63          	bnez	a5,80005fd8 <_fwalk_reent+0xb80>
    80005ea0:	000087b7          	lui	a5,0x8
    80005ea4:	00041c23          	sh	zero,24(s0)
    80005ea8:	ffe78793          	addi	a5,a5,-2 # 7ffe <_start-0x7fff801e>
    80005eac:	0927c863          	blt	a5,s2,80005f3c <_fwalk_reent+0xae4>
    80005eb0:	01241123          	sh	s2,2(s0)
    80005eb4:	03813083          	ld	ra,56(sp)
    80005eb8:	03013403          	ld	s0,48(sp)
    80005ebc:	02813483          	ld	s1,40(sp)
    80005ec0:	02013903          	ld	s2,32(sp)
    80005ec4:	01813983          	ld	s3,24(sp)
    80005ec8:	01013a03          	ld	s4,16(sp)
    80005ecc:	00813a83          	ld	s5,8(sp)
    80005ed0:	04010113          	addi	sp,sp,64
    80005ed4:	00008067          	ret
    80005ed8:	0e095463          	bgez	s2,80005fc0 <_fwalk_reent+0xb68>
    80005edc:	f7000793          	li	a5,-144
    80005ee0:	08f95c63          	bge	s2,a5,80005f78 <_fwalk_reent+0xb20>
    80005ee4:	00240793          	addi	a5,s0,2
    80005ee8:	01a40413          	addi	s0,s0,26
    80005eec:	00278793          	addi	a5,a5,2
    80005ef0:	fe079f23          	sh	zero,-2(a5)
    80005ef4:	fe879ce3          	bne	a5,s0,80005eec <_fwalk_reent+0xa94>
    80005ef8:	fbdff06f          	j	80005eb4 <_fwalk_reent+0xa5c>
    80005efc:	01800793          	li	a5,24
    80005f00:	14f50a63          	beq	a0,a5,80006054 <_fwalk_reent+0xbfc>
    80005f04:	03500793          	li	a5,53
    80005f08:	1af51263          	bne	a0,a5,800060ac <_fwalk_reent+0xc54>
    80005f0c:	00001737          	lui	a4,0x1
    80005f10:	040007b7          	lui	a5,0x4000
    80005f14:	00600693          	li	a3,6
    80005f18:	7ff78793          	addi	a5,a5,2047 # 40007ff <_start-0x7bfff81d>
    80005f1c:	80070713          	addi	a4,a4,-2048 # 800 <_start-0x7ffff81c>
    80005f20:	00f4aa23          	sw	a5,20(s1)
    80005f24:	00d4a423          	sw	a3,8(s1)
    80005f28:	00e49c23          	sh	a4,24(s1)
    80005f2c:	00d4a623          	sw	a3,12(s1)
    80005f30:	00600793          	li	a5,6
    80005f34:	e69ff06f          	j	80005d9c <_fwalk_reent+0x944>
    80005f38:	00041c23          	sh	zero,24(s0)
    80005f3c:	ffff87b7          	lui	a5,0xffff8
    80005f40:	fff7c793          	not	a5,a5
    80005f44:	00f41123          	sh	a5,2(s0)
    80005f48:	00440793          	addi	a5,s0,4
    80005f4c:	01840413          	addi	s0,s0,24
    80005f50:	00079023          	sh	zero,0(a5) # ffffffffffff8000 <t0.2038+0xffffffff7ffbb3b8>
    80005f54:	00278793          	addi	a5,a5,2
    80005f58:	fef41ce3          	bne	s0,a5,80005f50 <_fwalk_reent+0xaf8>
    80005f5c:	f59ff06f          	j	80005eb4 <_fwalk_reent+0xa5c>
    80005f60:	00240793          	addi	a5,s0,2
    80005f64:	01a40413          	addi	s0,s0,26
    80005f68:	00278793          	addi	a5,a5,2
    80005f6c:	fe079f23          	sh	zero,-2(a5)
    80005f70:	fe879ce3          	bne	a5,s0,80005f68 <_fwalk_reent+0xb10>
    80005f74:	f41ff06f          	j	80005eb4 <_fwalk_reent+0xa5c>
    80005f78:	0009059b          	sext.w	a1,s2
    80005f7c:	00040513          	mv	a0,s0
    80005f80:	949ff0ef          	jal	ra,800058c8 <_fwalk_reent+0x470>
    80005f84:	00050463          	beqz	a0,80005f8c <_fwalk_reent+0xb34>
    80005f88:	00100993          	li	s3,1
    80005f8c:	0a0a8a63          	beqz	s5,80006040 <_fwalk_reent+0xbe8>
    80005f90:	0044a503          	lw	a0,4(s1)
    80005f94:	0004a783          	lw	a5,0(s1)
    80005f98:	daa796e3          	bne	a5,a0,80005d44 <_fwalk_reent+0x8ec>
    80005f9c:	09000793          	li	a5,144
    80005fa0:	08f50263          	beq	a0,a5,80006024 <_fwalk_reent+0xbcc>
    80005fa4:	01845783          	lhu	a5,24(s0)
    80005fa8:	00040513          	mv	a0,s0
    80005fac:	0017f793          	andi	a5,a5,1
    80005fb0:	0137e9b3          	or	s3,a5,s3
    80005fb4:	d78ff0ef          	jal	ra,8000552c <_fwalk_reent+0xd4>
    80005fb8:	0044a503          	lw	a0,4(s1)
    80005fbc:	df9ff06f          	j	80005db4 <_fwalk_reent+0x95c>
    80005fc0:	ee0a80e3          	beqz	s5,80005ea0 <_fwalk_reent+0xa48>
    80005fc4:	0044a503          	lw	a0,4(s1)
    80005fc8:	0004a783          	lw	a5,0(s1)
    80005fcc:	d6a79ce3          	bne	a5,a0,80005d44 <_fwalk_reent+0x8ec>
    80005fd0:	df2042e3          	bgtz	s2,80005db4 <_fwalk_reent+0x95c>
    80005fd4:	fc9ff06f          	j	80005f9c <_fwalk_reent+0xb44>
    80005fd8:	00040513          	mv	a0,s0
    80005fdc:	d50ff0ef          	jal	ra,8000552c <_fwalk_reent+0xd4>
    80005fe0:	000087b7          	lui	a5,0x8
    80005fe4:	00190913          	addi	s2,s2,1
    80005fe8:	00041c23          	sh	zero,24(s0)
    80005fec:	ffe78793          	addi	a5,a5,-2 # 7ffe <_start-0x7fff801e>
    80005ff0:	f527c6e3          	blt	a5,s2,80005f3c <_fwalk_reent+0xae4>
    80005ff4:	ea095ee3          	bgez	s2,80005eb0 <_fwalk_reent+0xa58>
    80005ff8:	00041123          	sh	zero,2(s0)
    80005ffc:	eb9ff06f          	j	80005eb4 <_fwalk_reent+0xa5c>
    80006000:	09000793          	li	a5,144
    80006004:	00f50663          	beq	a0,a5,80006010 <_fwalk_reent+0xbb8>
    80006008:	00040513          	mv	a0,s0
    8000600c:	d88ff0ef          	jal	ra,80005594 <_fwalk_reent+0x13c>
    80006010:	00445783          	lhu	a5,4(s0)
    80006014:	fc0792e3          	bnez	a5,80005fd8 <_fwalk_reent+0xb80>
    80006018:	00041c23          	sh	zero,24(s0)
    8000601c:	fc094ee3          	bltz	s2,80005ff8 <_fwalk_reent+0xba0>
    80006020:	e91ff06f          	j	80005eb0 <_fwalk_reent+0xa58>
    80006024:	0084a803          	lw	a6,8(s1)
    80006028:	0144d603          	lhu	a2,20(s1)
    8000602c:	00181813          	slli	a6,a6,0x1
    80006030:	01040833          	add	a6,s0,a6
    80006034:	00085883          	lhu	a7,0(a6)
    80006038:	011675b3          	and	a1,a2,a7
    8000603c:	de5ff06f          	j	80005e20 <_fwalk_reent+0x9c8>
    80006040:	00041c23          	sh	zero,24(s0)
    80006044:	00041123          	sh	zero,2(s0)
    80006048:	e6dff06f          	j	80005eb4 <_fwalk_reent+0xa5c>
    8000604c:	e00a08e3          	beqz	s4,80005e5c <_fwalk_reent+0xa04>
    80006050:	e45ff06f          	j	80005e94 <_fwalk_reent+0xa3c>
    80006054:	008007b7          	lui	a5,0x800
    80006058:	0ff78793          	addi	a5,a5,255 # 8000ff <_start-0x7f7fff1d>
    8000605c:	00400713          	li	a4,4
    80006060:	00f4aa23          	sw	a5,20(s1)
    80006064:	10000793          	li	a5,256
    80006068:	00e4a423          	sw	a4,8(s1)
    8000606c:	00f49c23          	sh	a5,24(s1)
    80006070:	00e4a623          	sw	a4,12(s1)
    80006074:	00400793          	li	a5,4
    80006078:	10000713          	li	a4,256
    8000607c:	d21ff06f          	j	80005d9c <_fwalk_reent+0x944>
    80006080:	00700793          	li	a5,7
    80006084:	00f4a423          	sw	a5,8(s1)
    80006088:	800107b7          	lui	a5,0x80010
    8000608c:	fff78793          	addi	a5,a5,-1 # ffffffff8000ffff <t0.2038+0xfffffffefffd33b7>
    80006090:	00f4aa23          	sw	a5,20(s1)
    80006094:	00100793          	li	a5,1
    80006098:	00f49c23          	sh	a5,24(s1)
    8000609c:	00600793          	li	a5,6
    800060a0:	00f4a623          	sw	a5,12(s1)
    800060a4:	00100713          	li	a4,1
    800060a8:	cf5ff06f          	j	80005d9c <_fwalk_reent+0x944>
    800060ac:	00c00793          	li	a5,12
    800060b0:	00f4a423          	sw	a5,8(s1)
    800060b4:	800107b7          	lui	a5,0x80010
    800060b8:	fff78793          	addi	a5,a5,-1 # ffffffff8000ffff <t0.2038+0xfffffffefffd33b7>
    800060bc:	00f4aa23          	sw	a5,20(s1)
    800060c0:	00100793          	li	a5,1
    800060c4:	00f49c23          	sh	a5,24(s1)
    800060c8:	00b00793          	li	a5,11
    800060cc:	00f4a623          	sw	a5,12(s1)
    800060d0:	00100713          	li	a4,1
    800060d4:	cc9ff06f          	j	80005d9c <_fwalk_reent+0x944>
    800060d8:	008007b7          	lui	a5,0x800
    800060dc:	0ff78793          	addi	a5,a5,255 # 8000ff <_start-0x7f7fff1d>
    800060e0:	00600713          	li	a4,6
    800060e4:	00f4aa23          	sw	a5,20(s1)
    800060e8:	10000793          	li	a5,256
    800060ec:	00e4a423          	sw	a4,8(s1)
    800060f0:	00f49c23          	sh	a5,24(s1)
    800060f4:	00e4a623          	sw	a4,12(s1)
    800060f8:	00600793          	li	a5,6
    800060fc:	10000713          	li	a4,256
    80006100:	c9dff06f          	j	80005d9c <_fwalk_reent+0x944>
    80006104:	fa010113          	addi	sp,sp,-96
    80006108:	05213023          	sd	s2,64(sp)
    8000610c:	03313c23          	sd	s3,56(sp)
    80006110:	00058913          	mv	s2,a1
    80006114:	00255983          	lhu	s3,2(a0)
    80006118:	04113c23          	sd	ra,88(sp)
    8000611c:	04813823          	sd	s0,80(sp)
    80006120:	04913423          	sd	s1,72(sp)
    80006124:	03413823          	sd	s4,48(sp)
    80006128:	00060493          	mv	s1,a2
    8000612c:	01713c23          	sd	s7,24(sp)
    80006130:	03513423          	sd	s5,40(sp)
    80006134:	03613023          	sd	s6,32(sp)
    80006138:	01813823          	sd	s8,16(sp)
    8000613c:	01913423          	sd	s9,8(sp)
    80006140:	01a13023          	sd	s10,0(sp)
    80006144:	00050b93          	mv	s7,a0
    80006148:	e0cff0ef          	jal	ra,80005754 <_fwalk_reent+0x2fc>
    8000614c:	00295403          	lhu	s0,2(s2)
    80006150:	00050793          	mv	a5,a0
    80006154:	00090513          	mv	a0,s2
    80006158:	40f989b3          	sub	s3,s3,a5
    8000615c:	03448a13          	addi	s4,s1,52
    80006160:	df4ff0ef          	jal	ra,80005754 <_fwalk_reent+0x2fc>
    80006164:	40a40433          	sub	s0,s0,a0
    80006168:	04e48713          	addi	a4,s1,78
    8000616c:	000a0793          	mv	a5,s4
    80006170:	00278793          	addi	a5,a5,2
    80006174:	fe079f23          	sh	zero,-2(a5)
    80006178:	fee79ce3          	bne	a5,a4,80006170 <_fwalk_reent+0xd18>
    8000617c:	09344863          	blt	s0,s3,8000620c <_fwalk_reent+0xdb4>
    80006180:	004b8b13          	addi	s6,s7,4
    80006184:	00490a93          	addi	s5,s2,4
    80006188:	01ab8c13          	addi	s8,s7,26
    8000618c:	00290d13          	addi	s10,s2,2
    80006190:	000a8713          	mv	a4,s5
    80006194:	000b0793          	mv	a5,s6
    80006198:	0007d603          	lhu	a2,0(a5)
    8000619c:	00075683          	lhu	a3,0(a4)
    800061a0:	00278793          	addi	a5,a5,2
    800061a4:	00270713          	addi	a4,a4,2
    800061a8:	0ad61a63          	bne	a2,a3,8000625c <_fwalk_reent+0xe04>
    800061ac:	ff8796e3          	bne	a5,s8,80006198 <_fwalk_reent+0xd40>
    800061b0:	018b8613          	addi	a2,s7,24
    800061b4:	01890713          	addi	a4,s2,24
    800061b8:	00000693          	li	a3,0
    800061bc:	00075783          	lhu	a5,0(a4)
    800061c0:	00065583          	lhu	a1,0(a2)
    800061c4:	ffe70713          	addi	a4,a4,-2
    800061c8:	40d787b3          	sub	a5,a5,a3
    800061cc:	40b787b3          	sub	a5,a5,a1
    800061d0:	0107d693          	srli	a3,a5,0x10
    800061d4:	00f71123          	sh	a5,2(a4)
    800061d8:	0016f693          	andi	a3,a3,1
    800061dc:	ffe60613          	addi	a2,a2,-2
    800061e0:	fced1ee3          	bne	s10,a4,800061bc <_fwalk_reent+0xd64>
    800061e4:	00100c93          	li	s9,1
    800061e8:	000a0513          	mv	a0,s4
    800061ec:	ba8ff0ef          	jal	ra,80005594 <_fwalk_reent+0x13c>
    800061f0:	04c4d783          	lhu	a5,76(s1)
    800061f4:	fff40413          	addi	s0,s0,-1
    800061f8:	00090513          	mv	a0,s2
    800061fc:	00fce7b3          	or	a5,s9,a5
    80006200:	04f49623          	sh	a5,76(s1)
    80006204:	b90ff0ef          	jal	ra,80005594 <_fwalk_reent+0x13c>
    80006208:	f93454e3          	bge	s0,s3,80006190 <_fwalk_reent+0xd38>
    8000620c:	00040693          	mv	a3,s0
    80006210:	05013403          	ld	s0,80(sp)
    80006214:	05813083          	ld	ra,88(sp)
    80006218:	03813983          	ld	s3,56(sp)
    8000621c:	03013a03          	ld	s4,48(sp)
    80006220:	02813a83          	ld	s5,40(sp)
    80006224:	02013b03          	ld	s6,32(sp)
    80006228:	01813b83          	ld	s7,24(sp)
    8000622c:	01013c03          	ld	s8,16(sp)
    80006230:	00813c83          	ld	s9,8(sp)
    80006234:	00013d03          	ld	s10,0(sp)
    80006238:	00048793          	mv	a5,s1
    8000623c:	00090513          	mv	a0,s2
    80006240:	04813483          	ld	s1,72(sp)
    80006244:	04013903          	ld	s2,64(sp)
    80006248:	00000713          	li	a4,0
    8000624c:	00000613          	li	a2,0
    80006250:	00000593          	li	a1,0
    80006254:	06010113          	addi	sp,sp,96
    80006258:	a89ff06f          	j	80005ce0 <_fwalk_reent+0x888>
    8000625c:	00000c93          	li	s9,0
    80006260:	f8c6e4e3          	bltu	a3,a2,800061e8 <_fwalk_reent+0xd90>
    80006264:	f4dff06f          	j	800061b0 <_fwalk_reent+0xd58>
    80006268:	f4010113          	addi	sp,sp,-192
    8000626c:	0a913423          	sd	s1,168(sp)
    80006270:	00050493          	mv	s1,a0
    80006274:	01255503          	lhu	a0,18(a0)
    80006278:	00008737          	lui	a4,0x8
    8000627c:	fff70713          	addi	a4,a4,-1 # 7fff <_start-0x7fff801d>
    80006280:	0a813823          	sd	s0,176(sp)
    80006284:	0b213023          	sd	s2,160(sp)
    80006288:	09413823          	sd	s4,144(sp)
    8000628c:	0a113c23          	sd	ra,184(sp)
    80006290:	09313c23          	sd	s3,152(sp)
    80006294:	09513423          	sd	s5,136(sp)
    80006298:	09613023          	sd	s6,128(sp)
    8000629c:	07713c23          	sd	s7,120(sp)
    800062a0:	07813823          	sd	s8,112(sp)
    800062a4:	07913423          	sd	s9,104(sp)
    800062a8:	00a77533          	and	a0,a4,a0
    800062ac:	00058913          	mv	s2,a1
    800062b0:	00060413          	mv	s0,a2
    800062b4:	00068a13          	mv	s4,a3
    800062b8:	00e51e63          	bne	a0,a4,800062d4 <_fwalk_reent+0xe7c>
    800062bc:	01248993          	addi	s3,s1,18
    800062c0:	00048713          	mv	a4,s1
    800062c4:	00075603          	lhu	a2,0(a4)
    800062c8:	00270713          	addi	a4,a4,2
    800062cc:	16061863          	bnez	a2,8000643c <_fwalk_reent+0xfe4>
    800062d0:	ff371ae3          	bne	a4,s3,800062c4 <_fwalk_reent+0xe6c>
    800062d4:	01295603          	lhu	a2,18(s2)
    800062d8:	000087b7          	lui	a5,0x8
    800062dc:	fff78793          	addi	a5,a5,-1 # 7fff <_start-0x7fff801d>
    800062e0:	00f675b3          	and	a1,a2,a5
    800062e4:	0af59c63          	bne	a1,a5,8000639c <_fwalk_reent+0xf44>
    800062e8:	01290693          	addi	a3,s2,18
    800062ec:	00090713          	mv	a4,s2
    800062f0:	00075783          	lhu	a5,0(a4)
    800062f4:	00270713          	addi	a4,a4,2
    800062f8:	22079463          	bnez	a5,80006520 <_fwalk_reent+0x10c8>
    800062fc:	fee69ae3          	bne	a3,a4,800062f0 <_fwalk_reent+0xe98>
    80006300:	000087b7          	lui	a5,0x8
    80006304:	fff78793          	addi	a5,a5,-1 # 7fff <_start-0x7fff801d>
    80006308:	08f50c63          	beq	a0,a5,800063a0 <_fwalk_reent+0xf48>
    8000630c:	00090793          	mv	a5,s2
    80006310:	0007d703          	lhu	a4,0(a5)
    80006314:	00278793          	addi	a5,a5,2
    80006318:	3e071a63          	bnez	a4,8000670c <_fwalk_reent+0x12b4>
    8000631c:	fef69ae3          	bne	a3,a5,80006310 <_fwalk_reent+0xeb8>
    80006320:	000235b7          	lui	a1,0x23
    80006324:	17058593          	addi	a1,a1,368 # 23170 <_start-0x7ffdceac>
    80006328:	00048513          	mv	a0,s1
    8000632c:	875ff0ef          	jal	ra,80005ba0 <_fwalk_reent+0x748>
    80006330:	20050663          	beqz	a0,8000653c <_fwalk_reent+0x10e4>
    80006334:	0124d503          	lhu	a0,18(s1)
    80006338:	01295603          	lhu	a2,18(s2)
    8000633c:	000087b7          	lui	a5,0x8
    80006340:	fff78793          	addi	a5,a5,-1 # 7fff <_start-0x7fff801d>
    80006344:	00f576b3          	and	a3,a0,a5
    80006348:	00f67733          	and	a4,a2,a5
    8000634c:	00068813          	mv	a6,a3
    80006350:	0007059b          	sext.w	a1,a4
    80006354:	12f69e63          	bne	a3,a5,80006490 <_fwalk_reent+0x1038>
    80006358:	01248993          	addi	s3,s1,18
    8000635c:	0007059b          	sext.w	a1,a4
    80006360:	00048793          	mv	a5,s1
    80006364:	0007d703          	lhu	a4,0(a5)
    80006368:	00278793          	addi	a5,a5,2
    8000636c:	10071e63          	bnez	a4,80006488 <_fwalk_reent+0x1030>
    80006370:	fef99ae3          	bne	s3,a5,80006364 <_fwalk_reent+0xf0c>
    80006374:	0004d783          	lhu	a5,0(s1)
    80006378:	00248493          	addi	s1,s1,2
    8000637c:	34079663          	bnez	a5,800066c8 <_fwalk_reent+0x1270>
    80006380:	ff349ae3          	bne	s1,s3,80006374 <_fwalk_reent+0xf1c>
    80006384:	00f55893          	srli	a7,a0,0xf
    80006388:	00008737          	lui	a4,0x8
    8000638c:	fff70713          	addi	a4,a4,-1 # 7fff <_start-0x7fff801d>
    80006390:	14e59863          	bne	a1,a4,800064e0 <_fwalk_reent+0x1088>
    80006394:	01290693          	addi	a3,s2,18
    80006398:	1380006f          	j	800064d0 <_fwalk_reent+0x1078>
    8000639c:	04f51863          	bne	a0,a5,800063ec <_fwalk_reent+0xf94>
    800063a0:	01248993          	addi	s3,s1,18
    800063a4:	00048793          	mv	a5,s1
    800063a8:	0007d703          	lhu	a4,0(a5)
    800063ac:	00278793          	addi	a5,a5,2
    800063b0:	32071063          	bnez	a4,800066d0 <_fwalk_reent+0x1278>
    800063b4:	fef99ae3          	bne	s3,a5,800063a8 <_fwalk_reent+0xf50>
    800063b8:	000235b7          	lui	a1,0x23
    800063bc:	17058593          	addi	a1,a1,368 # 23170 <_start-0x7ffdceac>
    800063c0:	00090513          	mv	a0,s2
    800063c4:	fdcff0ef          	jal	ra,80005ba0 <_fwalk_reent+0x748>
    800063c8:	16050a63          	beqz	a0,8000653c <_fwalk_reent+0x10e4>
    800063cc:	01295603          	lhu	a2,18(s2)
    800063d0:	000087b7          	lui	a5,0x8
    800063d4:	fff78793          	addi	a5,a5,-1 # 7fff <_start-0x7fff801d>
    800063d8:	00f675b3          	and	a1,a2,a5
    800063dc:	18f58663          	beq	a1,a5,80006568 <_fwalk_reent+0x1110>
    800063e0:	0124d503          	lhu	a0,18(s1)
    800063e4:	00f57733          	and	a4,a0,a5
    800063e8:	f6f70ce3          	beq	a4,a5,80006360 <_fwalk_reent+0xf08>
    800063ec:	00048513          	mv	a0,s1
    800063f0:	00010593          	mv	a1,sp
    800063f4:	ef4ff0ef          	jal	ra,80005ae8 <_fwalk_reent+0x690>
    800063f8:	02010593          	addi	a1,sp,32
    800063fc:	00090513          	mv	a0,s2
    80006400:	ee8ff0ef          	jal	ra,80005ae8 <_fwalk_reent+0x690>
    80006404:	00215483          	lhu	s1,2(sp)
    80006408:	02215983          	lhu	s3,34(sp)
    8000640c:	16049263          	bnez	s1,80006570 <_fwalk_reent+0x1118>
    80006410:	00410793          	addi	a5,sp,4
    80006414:	01810693          	addi	a3,sp,24
    80006418:	2cd78663          	beq	a5,a3,800066e4 <_fwalk_reent+0x128c>
    8000641c:	0007d703          	lhu	a4,0(a5)
    80006420:	00278793          	addi	a5,a5,2
    80006424:	fe070ae3          	beqz	a4,80006418 <_fwalk_reent+0xfc0>
    80006428:	00010513          	mv	a0,sp
    8000642c:	b28ff0ef          	jal	ra,80005754 <_fwalk_reent+0x2fc>
    80006430:	02215703          	lhu	a4,34(sp)
    80006434:	40a004b3          	neg	s1,a0
    80006438:	13c0006f          	j	80006574 <_fwalk_reent+0x111c>
    8000643c:	01448713          	addi	a4,s1,20
    80006440:	0004d783          	lhu	a5,0(s1)
    80006444:	00248493          	addi	s1,s1,2
    80006448:	00240413          	addi	s0,s0,2
    8000644c:	fef41f23          	sh	a5,-2(s0)
    80006450:	fee498e3          	bne	s1,a4,80006440 <_fwalk_reent+0xfe8>
    80006454:	0b813083          	ld	ra,184(sp)
    80006458:	0b013403          	ld	s0,176(sp)
    8000645c:	0a813483          	ld	s1,168(sp)
    80006460:	0a013903          	ld	s2,160(sp)
    80006464:	09813983          	ld	s3,152(sp)
    80006468:	09013a03          	ld	s4,144(sp)
    8000646c:	08813a83          	ld	s5,136(sp)
    80006470:	08013b03          	ld	s6,128(sp)
    80006474:	07813b83          	ld	s7,120(sp)
    80006478:	07013c03          	ld	s8,112(sp)
    8000647c:	06813c83          	ld	s9,104(sp)
    80006480:	0c010113          	addi	sp,sp,192
    80006484:	00008067          	ret
    80006488:	00008837          	lui	a6,0x8
    8000648c:	fff80813          	addi	a6,a6,-1 # 7fff <_start-0x7fff801d>
    80006490:	000087b7          	lui	a5,0x8
    80006494:	fff78793          	addi	a5,a5,-1 # 7fff <_start-0x7fff801d>
    80006498:	f4f59ae3          	bne	a1,a5,800063ec <_fwalk_reent+0xf94>
    8000649c:	01290693          	addi	a3,s2,18
    800064a0:	00090793          	mv	a5,s2
    800064a4:	0007d703          	lhu	a4,0(a5)
    800064a8:	00278793          	addi	a5,a5,2
    800064ac:	f40710e3          	bnez	a4,800063ec <_fwalk_reent+0xf94>
    800064b0:	fed79ae3          	bne	a5,a3,800064a4 <_fwalk_reent+0x104c>
    800064b4:	00008737          	lui	a4,0x8
    800064b8:	0008081b          	sext.w	a6,a6
    800064bc:	fff70713          	addi	a4,a4,-1 # 7fff <_start-0x7fff801d>
    800064c0:	00f55893          	srli	a7,a0,0xf
    800064c4:	01248993          	addi	s3,s1,18
    800064c8:	00080593          	mv	a1,a6
    800064cc:	eae804e3          	beq	a6,a4,80006374 <_fwalk_reent+0xf1c>
    800064d0:	00095703          	lhu	a4,0(s2)
    800064d4:	00290913          	addi	s2,s2,2
    800064d8:	1e071463          	bnez	a4,800066c0 <_fwalk_reent+0x1268>
    800064dc:	fed91ae3          	bne	s2,a3,800064d0 <_fwalk_reent+0x1078>
    800064e0:	00f65793          	srli	a5,a2,0xf
    800064e4:	411787b3          	sub	a5,a5,a7
    800064e8:	00f037b3          	snez	a5,a5
    800064ec:	00f79793          	slli	a5,a5,0xf
    800064f0:	00f41923          	sh	a5,18(s0)
    800064f4:	01240713          	addi	a4,s0,18
    800064f8:	00040793          	mv	a5,s0
    800064fc:	00278793          	addi	a5,a5,2
    80006500:	fe079f23          	sh	zero,-2(a5)
    80006504:	fee79ce3          	bne	a5,a4,800064fc <_fwalk_reent+0x10a4>
    80006508:	01245783          	lhu	a5,18(s0)
    8000650c:	00008737          	lui	a4,0x8
    80006510:	fff70713          	addi	a4,a4,-1 # 7fff <_start-0x7fff801d>
    80006514:	00e7e7b3          	or	a5,a5,a4
    80006518:	00f41923          	sh	a5,18(s0)
    8000651c:	f39ff06f          	j	80006454 <_fwalk_reent+0xffc>
    80006520:	01440713          	addi	a4,s0,20
    80006524:	00095783          	lhu	a5,0(s2)
    80006528:	00240413          	addi	s0,s0,2
    8000652c:	00290913          	addi	s2,s2,2
    80006530:	fef41f23          	sh	a5,-2(s0)
    80006534:	fee418e3          	bne	s0,a4,80006524 <_fwalk_reent+0x10cc>
    80006538:	f1dff06f          	j	80006454 <_fwalk_reent+0xffc>
    8000653c:	01040713          	addi	a4,s0,16
    80006540:	00040793          	mv	a5,s0
    80006544:	00278793          	addi	a5,a5,2
    80006548:	fe079f23          	sh	zero,-2(a5)
    8000654c:	fee79ce3          	bne	a5,a4,80006544 <_fwalk_reent+0x10ec>
    80006550:	ffffc7b7          	lui	a5,0xffffc
    80006554:	00f41823          	sh	a5,16(s0)
    80006558:	ffff87b7          	lui	a5,0xffff8
    8000655c:	fff7c793          	not	a5,a5
    80006560:	00f41923          	sh	a5,18(s0)
    80006564:	ef1ff06f          	j	80006454 <_fwalk_reent+0xffc>
    80006568:	01290693          	addi	a3,s2,18
    8000656c:	da1ff06f          	j	8000630c <_fwalk_reent+0xeb4>
    80006570:	00098713          	mv	a4,s3
    80006574:	00098913          	mv	s2,s3
    80006578:	02410793          	addi	a5,sp,36
    8000657c:	03810693          	addi	a3,sp,56
    80006580:	02071263          	bnez	a4,800065a4 <_fwalk_reent+0x114c>
    80006584:	16d78a63          	beq	a5,a3,800066f8 <_fwalk_reent+0x12a0>
    80006588:	0007d703          	lhu	a4,0(a5) # ffffffffffff8000 <t0.2038+0xffffffff7ffbb3b8>
    8000658c:	00278793          	addi	a5,a5,2
    80006590:	fe070ae3          	beqz	a4,80006584 <_fwalk_reent+0x112c>
    80006594:	02010513          	addi	a0,sp,32
    80006598:	9bcff0ef          	jal	ra,80005754 <_fwalk_reent+0x2fc>
    8000659c:	02215703          	lhu	a4,34(sp)
    800065a0:	40a98933          	sub	s2,s3,a0
    800065a4:	02015783          	lhu	a5,32(sp)
    800065a8:	038a0993          	addi	s3,s4,56
    800065ac:	02ea1b23          	sh	a4,54(s4)
    800065b0:	02fa1a23          	sh	a5,52(s4)
    800065b4:	04ea0713          	addi	a4,s4,78
    800065b8:	00098793          	mv	a5,s3
    800065bc:	00079023          	sh	zero,0(a5)
    800065c0:	00278793          	addi	a5,a5,2
    800065c4:	fef71ce3          	bne	a4,a5,800065bc <_fwalk_reent+0x1164>
    800065c8:	04ca0c13          	addi	s8,s4,76
    800065cc:	00000b93          	li	s7,0
    800065d0:	01810a93          	addi	s5,sp,24
    800065d4:	00410c93          	addi	s9,sp,4
    800065d8:	04210b13          	addi	s6,sp,66
    800065dc:	000ad503          	lhu	a0,0(s5)
    800065e0:	ffea8a93          	addi	s5,s5,-2
    800065e4:	08051c63          	bnez	a0,8000667c <_fwalk_reent+0x1224>
    800065e8:	04ca5783          	lhu	a5,76(s4)
    800065ec:	000c0713          	mv	a4,s8
    800065f0:	00fbebb3          	or	s7,s7,a5
    800065f4:	ffe75603          	lhu	a2,-2(a4)
    800065f8:	ffe70713          	addi	a4,a4,-2
    800065fc:	00c71123          	sh	a2,2(a4)
    80006600:	fee99ae3          	bne	s3,a4,800065f4 <_fwalk_reent+0x119c>
    80006604:	020a1c23          	sh	zero,56(s4)
    80006608:	fd9a9ae3          	bne	s5,s9,800065dc <_fwalk_reent+0x1184>
    8000660c:	034a0713          	addi	a4,s4,52
    80006610:	02010793          	addi	a5,sp,32
    80006614:	03a10613          	addi	a2,sp,58
    80006618:	00075683          	lhu	a3,0(a4)
    8000661c:	00278793          	addi	a5,a5,2
    80006620:	00270713          	addi	a4,a4,2
    80006624:	fed79f23          	sh	a3,-2(a5)
    80006628:	fef618e3          	bne	a2,a5,80006618 <_fwalk_reent+0x11c0>
    8000662c:	ffffc6b7          	lui	a3,0xffffc
    80006630:	012484b3          	add	s1,s1,s2
    80006634:	00268693          	addi	a3,a3,2 # ffffffffffffc002 <t0.2038+0xffffffff7ffbf3ba>
    80006638:	000b8593          	mv	a1,s7
    8000663c:	02010513          	addi	a0,sp,32
    80006640:	000a0793          	mv	a5,s4
    80006644:	04000713          	li	a4,64
    80006648:	00d486b3          	add	a3,s1,a3
    8000664c:	00000613          	li	a2,0
    80006650:	e90ff0ef          	jal	ra,80005ce0 <_fwalk_reent+0x888>
    80006654:	02015703          	lhu	a4,32(sp)
    80006658:	00015783          	lhu	a5,0(sp)
    8000665c:	00040593          	mv	a1,s0
    80006660:	02010513          	addi	a0,sp,32
    80006664:	40e787b3          	sub	a5,a5,a4
    80006668:	00f037b3          	snez	a5,a5
    8000666c:	40f007bb          	negw	a5,a5
    80006670:	02f11023          	sh	a5,32(sp)
    80006674:	824ff0ef          	jal	ra,80005698 <_fwalk_reent+0x240>
    80006678:	dddff06f          	j	80006454 <_fwalk_reent+0xffc>
    8000667c:	04010613          	addi	a2,sp,64
    80006680:	02010593          	addi	a1,sp,32
    80006684:	f7dfe0ef          	jal	ra,80005600 <_fwalk_reent+0x1a8>
    80006688:	000c0513          	mv	a0,s8
    8000668c:	00000593          	li	a1,0
    80006690:	05810613          	addi	a2,sp,88
    80006694:	00055783          	lhu	a5,0(a0)
    80006698:	00065703          	lhu	a4,0(a2)
    8000669c:	ffe50513          	addi	a0,a0,-2
    800066a0:	ffe60613          	addi	a2,a2,-2
    800066a4:	00f70733          	add	a4,a4,a5
    800066a8:	00b70733          	add	a4,a4,a1
    800066ac:	01075593          	srli	a1,a4,0x10
    800066b0:	00e51123          	sh	a4,2(a0)
    800066b4:	0015f593          	andi	a1,a1,1
    800066b8:	fd661ee3          	bne	a2,s6,80006694 <_fwalk_reent+0x123c>
    800066bc:	f2dff06f          	j	800065e8 <_fwalk_reent+0x1190>
    800066c0:	00000793          	li	a5,0
    800066c4:	e21ff06f          	j	800064e4 <_fwalk_reent+0x108c>
    800066c8:	00000893          	li	a7,0
    800066cc:	cbdff06f          	j	80006388 <_fwalk_reent+0xf30>
    800066d0:	000087b7          	lui	a5,0x8
    800066d4:	fff78793          	addi	a5,a5,-1 # 7fff <_start-0x7fff801d>
    800066d8:	e8f588e3          	beq	a1,a5,80006568 <_fwalk_reent+0x1110>
    800066dc:	0124d503          	lhu	a0,18(s1)
    800066e0:	c81ff06f          	j	80006360 <_fwalk_reent+0xf08>
    800066e4:	01440793          	addi	a5,s0,20
    800066e8:	00240413          	addi	s0,s0,2
    800066ec:	fe041f23          	sh	zero,-2(s0)
    800066f0:	fe879ce3          	bne	a5,s0,800066e8 <_fwalk_reent+0x1290>
    800066f4:	d61ff06f          	j	80006454 <_fwalk_reent+0xffc>
    800066f8:	01440793          	addi	a5,s0,20
    800066fc:	00240413          	addi	s0,s0,2
    80006700:	fe041f23          	sh	zero,-2(s0)
    80006704:	fe879ce3          	bne	a5,s0,800066fc <_fwalk_reent+0x12a4>
    80006708:	d4dff06f          	j	80006454 <_fwalk_reent+0xffc>
    8000670c:	0124d503          	lhu	a0,18(s1)
    80006710:	000087b7          	lui	a5,0x8
    80006714:	fff78793          	addi	a5,a5,-1 # 7fff <_start-0x7fff801d>
    80006718:	00f575b3          	and	a1,a0,a5
    8000671c:	01248993          	addi	s3,s1,18
    80006720:	00058813          	mv	a6,a1
    80006724:	d6f59ee3          	bne	a1,a5,800064a0 <_fwalk_reent+0x1048>
    80006728:	c39ff06f          	j	80006360 <_fwalk_reent+0xf08>
    8000672c:	01255783          	lhu	a5,18(a0)
    80006730:	f2010113          	addi	sp,sp,-224
    80006734:	0c813823          	sd	s0,208(sp)
    80006738:	fff7c793          	not	a5,a5
    8000673c:	0c913423          	sd	s1,200(sp)
    80006740:	0d213023          	sd	s2,192(sp)
    80006744:	0b313c23          	sd	s3,184(sp)
    80006748:	0c113c23          	sd	ra,216(sp)
    8000674c:	0b413823          	sd	s4,176(sp)
    80006750:	0b513423          	sd	s5,168(sp)
    80006754:	0b613023          	sd	s6,160(sp)
    80006758:	09713c23          	sd	s7,152(sp)
    8000675c:	09813823          	sd	s8,144(sp)
    80006760:	09913423          	sd	s9,136(sp)
    80006764:	09a13023          	sd	s10,128(sp)
    80006768:	07b13c23          	sd	s11,120(sp)
    8000676c:	03179713          	slli	a4,a5,0x31
    80006770:	00050493          	mv	s1,a0
    80006774:	00058913          	mv	s2,a1
    80006778:	00060413          	mv	s0,a2
    8000677c:	00068993          	mv	s3,a3
    80006780:	00071e63          	bnez	a4,8000679c <_fwalk_reent+0x1344>
    80006784:	01250693          	addi	a3,a0,18
    80006788:	00050793          	mv	a5,a0
    8000678c:	0007d703          	lhu	a4,0(a5)
    80006790:	00278793          	addi	a5,a5,2
    80006794:	30071663          	bnez	a4,80006aa0 <_fwalk_reent+0x1648>
    80006798:	fed79ae3          	bne	a5,a3,8000678c <_fwalk_reent+0x1334>
    8000679c:	01295783          	lhu	a5,18(s2)
    800067a0:	fff7c793          	not	a5,a5
    800067a4:	03179713          	slli	a4,a5,0x31
    800067a8:	00071e63          	bnez	a4,800067c4 <_fwalk_reent+0x136c>
    800067ac:	01290693          	addi	a3,s2,18
    800067b0:	00090793          	mv	a5,s2
    800067b4:	0007d703          	lhu	a4,0(a5)
    800067b8:	00278793          	addi	a5,a5,2
    800067bc:	30071063          	bnez	a4,80006abc <_fwalk_reent+0x1664>
    800067c0:	fed79ae3          	bne	a5,a3,800067b4 <_fwalk_reent+0x135c>
    800067c4:	00023a37          	lui	s4,0x23
    800067c8:	170a0593          	addi	a1,s4,368 # 23170 <_start-0x7ffdceac>
    800067cc:	00048513          	mv	a0,s1
    800067d0:	bd0ff0ef          	jal	ra,80005ba0 <_fwalk_reent+0x748>
    800067d4:	30050263          	beqz	a0,80006ad8 <_fwalk_reent+0x1680>
    800067d8:	0124d603          	lhu	a2,18(s1)
    800067dc:	01295583          	lhu	a1,18(s2)
    800067e0:	000087b7          	lui	a5,0x8
    800067e4:	fff78793          	addi	a5,a5,-1 # 7fff <_start-0x7fff801d>
    800067e8:	00f67533          	and	a0,a2,a5
    800067ec:	00f5f6b3          	and	a3,a1,a5
    800067f0:	0af51663          	bne	a0,a5,8000689c <_fwalk_reent+0x1444>
    800067f4:	01248813          	addi	a6,s1,18
    800067f8:	00048793          	mv	a5,s1
    800067fc:	0007d703          	lhu	a4,0(a5)
    80006800:	00278793          	addi	a5,a5,2
    80006804:	08071863          	bnez	a4,80006894 <_fwalk_reent+0x143c>
    80006808:	ff079ae3          	bne	a5,a6,800067fc <_fwalk_reent+0x13a4>
    8000680c:	000087b7          	lui	a5,0x8
    80006810:	fff78793          	addi	a5,a5,-1 # 7fff <_start-0x7fff801d>
    80006814:	2cf69e63          	bne	a3,a5,80006af0 <_fwalk_reent+0x1698>
    80006818:	01290693          	addi	a3,s2,18
    8000681c:	00090793          	mv	a5,s2
    80006820:	0007d703          	lhu	a4,0(a5)
    80006824:	00278793          	addi	a5,a5,2
    80006828:	4a071063          	bnez	a4,80006cc8 <_fwalk_reent+0x1870>
    8000682c:	fed79ae3          	bne	a5,a3,80006820 <_fwalk_reent+0x13c8>
    80006830:	01040713          	addi	a4,s0,16
    80006834:	00040793          	mv	a5,s0
    80006838:	00278793          	addi	a5,a5,2
    8000683c:	fe079f23          	sh	zero,-2(a5)
    80006840:	fee79ce3          	bne	a5,a4,80006838 <_fwalk_reent+0x13e0>
    80006844:	ffffc7b7          	lui	a5,0xffffc
    80006848:	00f41823          	sh	a5,16(s0)
    8000684c:	ffff87b7          	lui	a5,0xffff8
    80006850:	fff7c793          	not	a5,a5
    80006854:	00f41923          	sh	a5,18(s0)
    80006858:	0d813083          	ld	ra,216(sp)
    8000685c:	0d013403          	ld	s0,208(sp)
    80006860:	0c813483          	ld	s1,200(sp)
    80006864:	0c013903          	ld	s2,192(sp)
    80006868:	0b813983          	ld	s3,184(sp)
    8000686c:	0b013a03          	ld	s4,176(sp)
    80006870:	0a813a83          	ld	s5,168(sp)
    80006874:	0a013b03          	ld	s6,160(sp)
    80006878:	09813b83          	ld	s7,152(sp)
    8000687c:	09013c03          	ld	s8,144(sp)
    80006880:	08813c83          	ld	s9,136(sp)
    80006884:	08013d03          	ld	s10,128(sp)
    80006888:	07813d83          	ld	s11,120(sp)
    8000688c:	0e010113          	addi	sp,sp,224
    80006890:	00008067          	ret
    80006894:	000087b7          	lui	a5,0x8
    80006898:	fff78793          	addi	a5,a5,-1 # 7fff <_start-0x7fff801d>
    8000689c:	26f68463          	beq	a3,a5,80006b04 <_fwalk_reent+0x16ac>
    800068a0:	00048513          	mv	a0,s1
    800068a4:	01010593          	addi	a1,sp,16
    800068a8:	a40ff0ef          	jal	ra,80005ae8 <_fwalk_reent+0x690>
    800068ac:	03010593          	addi	a1,sp,48
    800068b0:	00090513          	mv	a0,s2
    800068b4:	a34ff0ef          	jal	ra,80005ae8 <_fwalk_reent+0x690>
    800068b8:	03215a83          	lhu	s5,50(sp)
    800068bc:	01215483          	lhu	s1,18(sp)
    800068c0:	2c0a8a63          	beqz	s5,80006b94 <_fwalk_reent+0x173c>
    800068c4:	01513423          	sd	s5,8(sp)
    800068c8:	00048613          	mv	a2,s1
    800068cc:	00913023          	sd	s1,0(sp)
    800068d0:	01410793          	addi	a5,sp,20
    800068d4:	02810693          	addi	a3,sp,40
    800068d8:	02061263          	bnez	a2,800068fc <_fwalk_reent+0x14a4>
    800068dc:	3ad78863          	beq	a5,a3,80006c8c <_fwalk_reent+0x1834>
    800068e0:	0007d703          	lhu	a4,0(a5)
    800068e4:	00278793          	addi	a5,a5,2
    800068e8:	fe070ae3          	beqz	a4,800068dc <_fwalk_reent+0x1484>
    800068ec:	01010513          	addi	a0,sp,16
    800068f0:	e65fe0ef          	jal	ra,80005754 <_fwalk_reent+0x2fc>
    800068f4:	40a487b3          	sub	a5,s1,a0
    800068f8:	00f13023          	sd	a5,0(sp)
    800068fc:	03015783          	lhu	a5,48(sp)
    80006900:	03215703          	lhu	a4,50(sp)
    80006904:	03898a93          	addi	s5,s3,56
    80006908:	02f99a23          	sh	a5,52(s3)
    8000690c:	02e99b23          	sh	a4,54(s3)
    80006910:	000a8793          	mv	a5,s5
    80006914:	04e98493          	addi	s1,s3,78
    80006918:	00278793          	addi	a5,a5,2
    8000691c:	fe079f23          	sh	zero,-2(a5)
    80006920:	fef49ce3          	bne	s1,a5,80006918 <_fwalk_reent+0x14c0>
    80006924:	03010513          	addi	a0,sp,48
    80006928:	c05fe0ef          	jal	ra,8000552c <_fwalk_reent+0xd4>
    8000692c:	01615b03          	lhu	s6,22(sp)
    80006930:	00010937          	lui	s2,0x10
    80006934:	04810c13          	addi	s8,sp,72
    80006938:	010b1a13          	slli	s4,s6,0x10
    8000693c:	416a0a33          	sub	s4,s4,s6
    80006940:	03210c93          	addi	s9,sp,50
    80006944:	fff90913          	addi	s2,s2,-1 # ffff <_start-0x7fff001d>
    80006948:	06a10d13          	addi	s10,sp,106
    8000694c:	05210d93          	addi	s11,sp,82
    80006950:	03415783          	lhu	a5,52(sp)
    80006954:	03615703          	lhu	a4,54(sp)
    80006958:	00090b93          	mv	s7,s2
    8000695c:	01079793          	slli	a5,a5,0x10
    80006960:	00e787b3          	add	a5,a5,a4
    80006964:	00fa6863          	bltu	s4,a5,80006974 <_fwalk_reent+0x151c>
    80006968:	0367d533          	divu	a0,a5,s6
    8000696c:	03051b93          	slli	s7,a0,0x30
    80006970:	030bdb93          	srli	s7,s7,0x30
    80006974:	05010613          	addi	a2,sp,80
    80006978:	01010593          	addi	a1,sp,16
    8000697c:	000b8513          	mv	a0,s7
    80006980:	c81fe0ef          	jal	ra,80005600 <_fwalk_reent+0x1a8>
    80006984:	03410713          	addi	a4,sp,52
    80006988:	05410793          	addi	a5,sp,84
    8000698c:	0007d603          	lhu	a2,0(a5)
    80006990:	00075683          	lhu	a3,0(a4)
    80006994:	00278793          	addi	a5,a5,2
    80006998:	00270713          	addi	a4,a4,2
    8000699c:	22d61463          	bne	a2,a3,80006bc4 <_fwalk_reent+0x176c>
    800069a0:	ffa796e3          	bne	a5,s10,8000698c <_fwalk_reent+0x1534>
    800069a4:	00000793          	li	a5,0
    800069a8:	06810693          	addi	a3,sp,104
    800069ac:	000c0613          	mv	a2,s8
    800069b0:	00065703          	lhu	a4,0(a2)
    800069b4:	0006d583          	lhu	a1,0(a3)
    800069b8:	ffe60613          	addi	a2,a2,-2
    800069bc:	40f70733          	sub	a4,a4,a5
    800069c0:	40b70733          	sub	a4,a4,a1
    800069c4:	01075793          	srli	a5,a4,0x10
    800069c8:	00e61123          	sh	a4,2(a2)
    800069cc:	0017f793          	andi	a5,a5,1
    800069d0:	ffe68693          	addi	a3,a3,-2
    800069d4:	fd961ee3          	bne	a2,s9,800069b0 <_fwalk_reent+0x1558>
    800069d8:	017a9023          	sh	s7,0(s5)
    800069dc:	03410793          	addi	a5,sp,52
    800069e0:	0027d703          	lhu	a4,2(a5)
    800069e4:	00278793          	addi	a5,a5,2
    800069e8:	fee79f23          	sh	a4,-2(a5)
    800069ec:	ff879ae3          	bne	a5,s8,800069e0 <_fwalk_reent+0x1588>
    800069f0:	04011423          	sh	zero,72(sp)
    800069f4:	002a8a93          	addi	s5,s5,2
    800069f8:	f5549ce3          	bne	s1,s5,80006950 <_fwalk_reent+0x14f8>
    800069fc:	00000713          	li	a4,0
    80006a00:	03410793          	addi	a5,sp,52
    80006a04:	04a10613          	addi	a2,sp,74
    80006a08:	0007d683          	lhu	a3,0(a5)
    80006a0c:	00278793          	addi	a5,a5,2
    80006a10:	00d76733          	or	a4,a4,a3
    80006a14:	fec79ae3          	bne	a5,a2,80006a08 <_fwalk_reent+0x15b0>
    80006a18:	0107179b          	slliw	a5,a4,0x10
    80006a1c:	4107d79b          	sraiw	a5,a5,0x10
    80006a20:	00078463          	beqz	a5,80006a28 <_fwalk_reent+0x15d0>
    80006a24:	00100713          	li	a4,1
    80006a28:	03071593          	slli	a1,a4,0x30
    80006a2c:	0305d593          	srli	a1,a1,0x30
    80006a30:	03498713          	addi	a4,s3,52
    80006a34:	03010793          	addi	a5,sp,48
    80006a38:	00075683          	lhu	a3,0(a4)
    80006a3c:	00278793          	addi	a5,a5,2
    80006a40:	00270713          	addi	a4,a4,2
    80006a44:	fed79f23          	sh	a3,-2(a5)
    80006a48:	fef618e3          	bne	a2,a5,80006a38 <_fwalk_reent+0x15e0>
    80006a4c:	00813783          	ld	a5,8(sp)
    80006a50:	00013703          	ld	a4,0(sp)
    80006a54:	000046b7          	lui	a3,0x4
    80006a58:	fff68693          	addi	a3,a3,-1 # 3fff <_start-0x7fffc01d>
    80006a5c:	40e78ab3          	sub	s5,a5,a4
    80006a60:	03010513          	addi	a0,sp,48
    80006a64:	00098793          	mv	a5,s3
    80006a68:	04000713          	li	a4,64
    80006a6c:	00da86b3          	add	a3,s5,a3
    80006a70:	00000613          	li	a2,0
    80006a74:	a6cff0ef          	jal	ra,80005ce0 <_fwalk_reent+0x888>
    80006a78:	03015703          	lhu	a4,48(sp)
    80006a7c:	01015783          	lhu	a5,16(sp)
    80006a80:	00040593          	mv	a1,s0
    80006a84:	03010513          	addi	a0,sp,48
    80006a88:	40e787b3          	sub	a5,a5,a4
    80006a8c:	00f037b3          	snez	a5,a5
    80006a90:	40f007bb          	negw	a5,a5
    80006a94:	02f11823          	sh	a5,48(sp)
    80006a98:	c01fe0ef          	jal	ra,80005698 <_fwalk_reent+0x240>
    80006a9c:	dbdff06f          	j	80006858 <_fwalk_reent+0x1400>
    80006aa0:	01448713          	addi	a4,s1,20
    80006aa4:	0004d783          	lhu	a5,0(s1)
    80006aa8:	00248493          	addi	s1,s1,2
    80006aac:	00240413          	addi	s0,s0,2
    80006ab0:	fef41f23          	sh	a5,-2(s0)
    80006ab4:	fee498e3          	bne	s1,a4,80006aa4 <_fwalk_reent+0x164c>
    80006ab8:	da1ff06f          	j	80006858 <_fwalk_reent+0x1400>
    80006abc:	01490713          	addi	a4,s2,20
    80006ac0:	00095783          	lhu	a5,0(s2)
    80006ac4:	00290913          	addi	s2,s2,2
    80006ac8:	00240413          	addi	s0,s0,2
    80006acc:	fef41f23          	sh	a5,-2(s0)
    80006ad0:	fee918e3          	bne	s2,a4,80006ac0 <_fwalk_reent+0x1668>
    80006ad4:	d85ff06f          	j	80006858 <_fwalk_reent+0x1400>
    80006ad8:	170a0593          	addi	a1,s4,368
    80006adc:	00090513          	mv	a0,s2
    80006ae0:	8c0ff0ef          	jal	ra,80005ba0 <_fwalk_reent+0x748>
    80006ae4:	ce051ae3          	bnez	a0,800067d8 <_fwalk_reent+0x1380>
    80006ae8:	d49ff06f          	j	80006830 <_fwalk_reent+0x13d8>
    80006aec:	da080ae3          	beqz	a6,800068a0 <_fwalk_reent+0x1448>
    80006af0:	01440793          	addi	a5,s0,20
    80006af4:	00240413          	addi	s0,s0,2
    80006af8:	fe041f23          	sh	zero,-2(s0)
    80006afc:	fef41ce3          	bne	s0,a5,80006af4 <_fwalk_reent+0x169c>
    80006b00:	d59ff06f          	j	80006858 <_fwalk_reent+0x1400>
    80006b04:	00000813          	li	a6,0
    80006b08:	01290693          	addi	a3,s2,18
    80006b0c:	00090793          	mv	a5,s2
    80006b10:	0007d703          	lhu	a4,0(a5)
    80006b14:	00278793          	addi	a5,a5,2
    80006b18:	fc071ae3          	bnez	a4,80006aec <_fwalk_reent+0x1694>
    80006b1c:	fed79ae3          	bne	a5,a3,80006b10 <_fwalk_reent+0x16b8>
    80006b20:	000087b7          	lui	a5,0x8
    80006b24:	fff78793          	addi	a5,a5,-1 # 7fff <_start-0x7fff801d>
    80006b28:	04f50a63          	beq	a0,a5,80006b7c <_fwalk_reent+0x1724>
    80006b2c:	00f65613          	srli	a2,a2,0xf
    80006b30:	00095783          	lhu	a5,0(s2)
    80006b34:	00290913          	addi	s2,s2,2
    80006b38:	18079063          	bnez	a5,80006cb8 <_fwalk_reent+0x1860>
    80006b3c:	fed91ae3          	bne	s2,a3,80006b30 <_fwalk_reent+0x16d8>
    80006b40:	00f5d593          	srli	a1,a1,0xf
    80006b44:	00c58463          	beq	a1,a2,80006b4c <_fwalk_reent+0x16f4>
    80006b48:	00008737          	lui	a4,0x8
    80006b4c:	00e41923          	sh	a4,18(s0)
    80006b50:	00040793          	mv	a5,s0
    80006b54:	01240713          	addi	a4,s0,18
    80006b58:	00278793          	addi	a5,a5,2
    80006b5c:	fe079f23          	sh	zero,-2(a5)
    80006b60:	fee79ce3          	bne	a5,a4,80006b58 <_fwalk_reent+0x1700>
    80006b64:	01245783          	lhu	a5,18(s0)
    80006b68:	00008737          	lui	a4,0x8
    80006b6c:	fff70713          	addi	a4,a4,-1 # 7fff <_start-0x7fff801d>
    80006b70:	00e7e7b3          	or	a5,a5,a4
    80006b74:	00f41923          	sh	a5,18(s0)
    80006b78:	ce1ff06f          	j	80006858 <_fwalk_reent+0x1400>
    80006b7c:	01248513          	addi	a0,s1,18
    80006b80:	0004d783          	lhu	a5,0(s1)
    80006b84:	00248493          	addi	s1,s1,2
    80006b88:	12079c63          	bnez	a5,80006cc0 <_fwalk_reent+0x1868>
    80006b8c:	fea49ae3          	bne	s1,a0,80006b80 <_fwalk_reent+0x1728>
    80006b90:	f9dff06f          	j	80006b2c <_fwalk_reent+0x16d4>
    80006b94:	03410793          	addi	a5,sp,52
    80006b98:	04810c13          	addi	s8,sp,72
    80006b9c:	0cfc0e63          	beq	s8,a5,80006c78 <_fwalk_reent+0x1820>
    80006ba0:	0007d703          	lhu	a4,0(a5)
    80006ba4:	00278793          	addi	a5,a5,2
    80006ba8:	fe070ae3          	beqz	a4,80006b9c <_fwalk_reent+0x1744>
    80006bac:	03010513          	addi	a0,sp,48
    80006bb0:	ba5fe0ef          	jal	ra,80005754 <_fwalk_reent+0x2fc>
    80006bb4:	40a007b3          	neg	a5,a0
    80006bb8:	01215603          	lhu	a2,18(sp)
    80006bbc:	00f13423          	sd	a5,8(sp)
    80006bc0:	d0dff06f          	j	800068cc <_fwalk_reent+0x1474>
    80006bc4:	dec6f0e3          	bgeu	a3,a2,800069a4 <_fwalk_reent+0x154c>
    80006bc8:	fffb879b          	addiw	a5,s7,-1
    80006bcc:	03079893          	slli	a7,a5,0x30
    80006bd0:	0308d893          	srli	a7,a7,0x30
    80006bd4:	00000693          	li	a3,0
    80006bd8:	02810613          	addi	a2,sp,40
    80006bdc:	06810713          	addi	a4,sp,104
    80006be0:	00075783          	lhu	a5,0(a4)
    80006be4:	00065583          	lhu	a1,0(a2)
    80006be8:	ffe70713          	addi	a4,a4,-2
    80006bec:	40d787b3          	sub	a5,a5,a3
    80006bf0:	40b787b3          	sub	a5,a5,a1
    80006bf4:	0107d693          	srli	a3,a5,0x10
    80006bf8:	00f71123          	sh	a5,2(a4)
    80006bfc:	0016f693          	andi	a3,a3,1
    80006c00:	ffe60613          	addi	a2,a2,-2
    80006c04:	fdb71ee3          	bne	a4,s11,80006be0 <_fwalk_reent+0x1788>
    80006c08:	03410713          	addi	a4,sp,52
    80006c0c:	05410793          	addi	a5,sp,84
    80006c10:	0007d603          	lhu	a2,0(a5)
    80006c14:	00075683          	lhu	a3,0(a4)
    80006c18:	00278793          	addi	a5,a5,2
    80006c1c:	00270713          	addi	a4,a4,2
    80006c20:	00d61863          	bne	a2,a3,80006c30 <_fwalk_reent+0x17d8>
    80006c24:	ffa796e3          	bne	a5,s10,80006c10 <_fwalk_reent+0x17b8>
    80006c28:	00088b93          	mv	s7,a7
    80006c2c:	d79ff06f          	j	800069a4 <_fwalk_reent+0x154c>
    80006c30:	fec6fce3          	bgeu	a3,a2,80006c28 <_fwalk_reent+0x17d0>
    80006c34:	ffeb851b          	addiw	a0,s7,-2
    80006c38:	03051b93          	slli	s7,a0,0x30
    80006c3c:	030bdb93          	srli	s7,s7,0x30
    80006c40:	00000693          	li	a3,0
    80006c44:	02810613          	addi	a2,sp,40
    80006c48:	06810713          	addi	a4,sp,104
    80006c4c:	00075783          	lhu	a5,0(a4)
    80006c50:	00065583          	lhu	a1,0(a2)
    80006c54:	ffe70713          	addi	a4,a4,-2
    80006c58:	40d787b3          	sub	a5,a5,a3
    80006c5c:	40b787b3          	sub	a5,a5,a1
    80006c60:	0107d693          	srli	a3,a5,0x10
    80006c64:	00f71123          	sh	a5,2(a4)
    80006c68:	0016f693          	andi	a3,a3,1
    80006c6c:	ffe60613          	addi	a2,a2,-2
    80006c70:	fdb71ee3          	bne	a4,s11,80006c4c <_fwalk_reent+0x17f4>
    80006c74:	d31ff06f          	j	800069a4 <_fwalk_reent+0x154c>
    80006c78:	01440793          	addi	a5,s0,20
    80006c7c:	00240413          	addi	s0,s0,2
    80006c80:	fe041f23          	sh	zero,-2(s0)
    80006c84:	fef41ce3          	bne	s0,a5,80006c7c <_fwalk_reent+0x1824>
    80006c88:	bd1ff06f          	j	80006858 <_fwalk_reent+0x1400>
    80006c8c:	01015703          	lhu	a4,16(sp)
    80006c90:	03015783          	lhu	a5,48(sp)
    80006c94:	00f70463          	beq	a4,a5,80006c9c <_fwalk_reent+0x1844>
    80006c98:	00008637          	lui	a2,0x8
    80006c9c:	00c41923          	sh	a2,18(s0)
    80006ca0:	01240713          	addi	a4,s0,18
    80006ca4:	00040793          	mv	a5,s0
    80006ca8:	00278793          	addi	a5,a5,2
    80006cac:	fe079f23          	sh	zero,-2(a5)
    80006cb0:	fef71ce3          	bne	a4,a5,80006ca8 <_fwalk_reent+0x1850>
    80006cb4:	eb1ff06f          	j	80006b64 <_fwalk_reent+0x170c>
    80006cb8:	00000593          	li	a1,0
    80006cbc:	e89ff06f          	j	80006b44 <_fwalk_reent+0x16ec>
    80006cc0:	00000613          	li	a2,0
    80006cc4:	e6dff06f          	j	80006b30 <_fwalk_reent+0x16d8>
    80006cc8:	00100813          	li	a6,1
    80006ccc:	e41ff06f          	j	80006b0c <_fwalk_reent+0x16b4>
    80006cd0:	fd010113          	addi	sp,sp,-48
    80006cd4:	02813023          	sd	s0,32(sp)
    80006cd8:	02113423          	sd	ra,40(sp)
    80006cdc:	00058413          	mv	s0,a1
    80006ce0:	00010793          	mv	a5,sp
    80006ce4:	01a10713          	addi	a4,sp,26
    80006ce8:	00278793          	addi	a5,a5,2
    80006cec:	fe079f23          	sh	zero,-2(a5)
    80006cf0:	fee79ce3          	bne	a5,a4,80006ce8 <_fwalk_reent+0x1890>
    80006cf4:	00e55783          	lhu	a5,14(a0)
    80006cf8:	00f7d713          	srli	a4,a5,0xf
    80006cfc:	06071c63          	bnez	a4,80006d74 <_fwalk_reent+0x191c>
    80006d00:	00008737          	lui	a4,0x8
    80006d04:	fff70713          	addi	a4,a4,-1 # 7fff <_start-0x7fff801d>
    80006d08:	00e7f6b3          	and	a3,a5,a4
    80006d0c:	00011023          	sh	zero,0(sp)
    80006d10:	00068613          	mv	a2,a3
    80006d14:	06e68e63          	beq	a3,a4,80006d90 <_fwalk_reent+0x1938>
    80006d18:	00e50793          	addi	a5,a0,14
    80006d1c:	00d11123          	sh	a3,2(sp)
    80006d20:	00610713          	addi	a4,sp,6
    80006d24:	ffe7d683          	lhu	a3,-2(a5)
    80006d28:	ffe78793          	addi	a5,a5,-2
    80006d2c:	00270713          	addi	a4,a4,2
    80006d30:	fed71f23          	sh	a3,-2(a4)
    80006d34:	fef518e3          	bne	a0,a5,80006d24 <_fwalk_reent+0x18cc>
    80006d38:	02061263          	bnez	a2,80006d5c <_fwalk_reent+0x1904>
    80006d3c:	00011223          	sh	zero,4(sp)
    80006d40:	00040593          	mv	a1,s0
    80006d44:	00010513          	mv	a0,sp
    80006d48:	951fe0ef          	jal	ra,80005698 <_fwalk_reent+0x240>
    80006d4c:	02813083          	ld	ra,40(sp)
    80006d50:	02013403          	ld	s0,32(sp)
    80006d54:	03010113          	addi	sp,sp,48
    80006d58:	00008067          	ret
    80006d5c:	00100793          	li	a5,1
    80006d60:	fff00593          	li	a1,-1
    80006d64:	00010513          	mv	a0,sp
    80006d68:	00f11223          	sh	a5,4(sp)
    80006d6c:	b5dfe0ef          	jal	ra,800058c8 <_fwalk_reent+0x470>
    80006d70:	fd1ff06f          	j	80006d40 <_fwalk_reent+0x18e8>
    80006d74:	fff00713          	li	a4,-1
    80006d78:	00e11023          	sh	a4,0(sp)
    80006d7c:	00008737          	lui	a4,0x8
    80006d80:	fff70713          	addi	a4,a4,-1 # 7fff <_start-0x7fff801d>
    80006d84:	00e7f6b3          	and	a3,a5,a4
    80006d88:	00068613          	mv	a2,a3
    80006d8c:	f8e696e3          	bne	a3,a4,80006d18 <_fwalk_reent+0x18c0>
    80006d90:	00050793          	mv	a5,a0
    80006d94:	00e50693          	addi	a3,a0,14
    80006d98:	0007d703          	lhu	a4,0(a5)
    80006d9c:	00278793          	addi	a5,a5,2
    80006da0:	06071c63          	bnez	a4,80006e18 <_fwalk_reent+0x19c0>
    80006da4:	fef69ae3          	bne	a3,a5,80006d98 <_fwalk_reent+0x1940>
    80006da8:	01440713          	addi	a4,s0,20
    80006dac:	00040793          	mv	a5,s0
    80006db0:	00278793          	addi	a5,a5,2
    80006db4:	fe079f23          	sh	zero,-2(a5)
    80006db8:	fee79ce3          	bne	a5,a4,80006db0 <_fwalk_reent+0x1958>
    80006dbc:	01240713          	addi	a4,s0,18
    80006dc0:	00040793          	mv	a5,s0
    80006dc4:	00278793          	addi	a5,a5,2
    80006dc8:	fe079f23          	sh	zero,-2(a5)
    80006dcc:	fef71ce3          	bne	a4,a5,80006dc4 <_fwalk_reent+0x196c>
    80006dd0:	01245783          	lhu	a5,18(s0)
    80006dd4:	000086b7          	lui	a3,0x8
    80006dd8:	fff68693          	addi	a3,a3,-1 # 7fff <_start-0x7fff801d>
    80006ddc:	00d7e7b3          	or	a5,a5,a3
    80006de0:	03079793          	slli	a5,a5,0x30
    80006de4:	0307d793          	srli	a5,a5,0x30
    80006de8:	00f41923          	sh	a5,18(s0)
    80006dec:	00e51683          	lh	a3,14(a0)
    80006df0:	f406dee3          	bgez	a3,80006d4c <_fwalk_reent+0x18f4>
    80006df4:	00040693          	mv	a3,s0
    80006df8:	0006d603          	lhu	a2,0(a3)
    80006dfc:	00268693          	addi	a3,a3,2
    80006e00:	f40616e3          	bnez	a2,80006d4c <_fwalk_reent+0x18f4>
    80006e04:	fed71ae3          	bne	a4,a3,80006df8 <_fwalk_reent+0x19a0>
    80006e08:	ffff8737          	lui	a4,0xffff8
    80006e0c:	00e7c7b3          	xor	a5,a5,a4
    80006e10:	00f41923          	sh	a5,18(s0)
    80006e14:	f39ff06f          	j	80006d4c <_fwalk_reent+0x18f4>
    80006e18:	01040713          	addi	a4,s0,16
    80006e1c:	00040793          	mv	a5,s0
    80006e20:	00278793          	addi	a5,a5,2
    80006e24:	fe079f23          	sh	zero,-2(a5)
    80006e28:	fee79ce3          	bne	a5,a4,80006e20 <_fwalk_reent+0x19c8>
    80006e2c:	ffffc7b7          	lui	a5,0xffffc
    80006e30:	00f41823          	sh	a5,16(s0)
    80006e34:	ffff87b7          	lui	a5,0xffff8
    80006e38:	fff7c793          	not	a5,a5
    80006e3c:	00f41923          	sh	a5,18(s0)
    80006e40:	f0dff06f          	j	80006d4c <_fwalk_reent+0x18f4>

0000000080006e44 <_ldtoa_r>:
    80006e44:	d9010113          	addi	sp,sp,-624
    80006e48:	06c13423          	sd	a2,104(sp)
    80006e4c:	06053303          	ld	t1,96(a0)
    80006e50:	fff00613          	li	a2,-1
    80006e54:	1ac12823          	sw	a2,432(sp)
    80006e58:	09000613          	li	a2,144
    80006e5c:	26813023          	sd	s0,608(sp)
    80006e60:	25313423          	sd	s3,584(sp)
    80006e64:	26113423          	sd	ra,616(sp)
    80006e68:	24913c23          	sd	s1,600(sp)
    80006e6c:	25213823          	sd	s2,592(sp)
    80006e70:	25413023          	sd	s4,576(sp)
    80006e74:	23513c23          	sd	s5,568(sp)
    80006e78:	23613823          	sd	s6,560(sp)
    80006e7c:	23713423          	sd	s7,552(sp)
    80006e80:	23813023          	sd	s8,544(sp)
    80006e84:	21913c23          	sd	s9,536(sp)
    80006e88:	21a13823          	sd	s10,528(sp)
    80006e8c:	21b13423          	sd	s11,520(sp)
    80006e90:	06b13023          	sd	a1,96(sp)
    80006e94:	1ac12a23          	sw	a2,436(sp)
    80006e98:	00d13423          	sd	a3,8(sp)
    80006e9c:	00e13c23          	sd	a4,24(sp)
    80006ea0:	02f13023          	sd	a5,32(sp)
    80006ea4:	03113823          	sd	a7,48(sp)
    80006ea8:	00050993          	mv	s3,a0
    80006eac:	00080413          	mv	s0,a6
    80006eb0:	02030263          	beqz	t1,80006ed4 <_ldtoa_r+0x90>
    80006eb4:	06852703          	lw	a4,104(a0)
    80006eb8:	00100793          	li	a5,1
    80006ebc:	00030593          	mv	a1,t1
    80006ec0:	00e797bb          	sllw	a5,a5,a4
    80006ec4:	00e32423          	sw	a4,8(t1)
    80006ec8:	00f32623          	sw	a5,12(t1)
    80006ecc:	0d0020ef          	jal	ra,80008f9c <_Bfree>
    80006ed0:	0609b023          	sd	zero,96(s3)
    80006ed4:	09010593          	addi	a1,sp,144
    80006ed8:	06010513          	addi	a0,sp,96
    80006edc:	df5ff0ef          	jal	ra,80006cd0 <_fwalk_reent+0x1878>
    80006ee0:	0a215683          	lhu	a3,162(sp)
    80006ee4:	000087b7          	lui	a5,0x8
    80006ee8:	fff78793          	addi	a5,a5,-1 # 7fff <_start-0x7fff801d>
    80006eec:	00f6f5b3          	and	a1,a3,a5
    80006ef0:	00f59e63          	bne	a1,a5,80006f0c <_ldtoa_r+0xc8>
    80006ef4:	09010793          	addi	a5,sp,144
    80006ef8:	0a210613          	addi	a2,sp,162
    80006efc:	0007d703          	lhu	a4,0(a5)
    80006f00:	00278793          	addi	a5,a5,2
    80006f04:	3a0716e3          	bnez	a4,80007ab0 <_ldtoa_r+0xc6c>
    80006f08:	fec79ae3          	bne	a5,a2,80006efc <_ldtoa_r+0xb8>
    80006f0c:	00f6d693          	srli	a3,a3,0xf
    80006f10:	00813703          	ld	a4,8(sp)
    80006f14:	00d42023          	sw	a3,0(s0)
    80006f18:	00300793          	li	a5,3
    80006f1c:	06f70ce3          	beq	a4,a5,80007794 <_ldtoa_r+0x950>
    80006f20:	01400793          	li	a5,20
    80006f24:	00f13823          	sd	a5,16(sp)
    80006f28:	380718e3          	bnez	a4,80007ab8 <_ldtoa_r+0xc74>
    80006f2c:	1b412703          	lw	a4,436(sp)
    80006f30:	000087b7          	lui	a5,0x8
    80006f34:	fff78793          	addi	a5,a5,-1 # 7fff <_start-0x7fff801d>
    80006f38:	02e13423          	sd	a4,40(sp)
    80006f3c:	00f59e63          	bne	a1,a5,80006f58 <_ldtoa_r+0x114>
    80006f40:	09010793          	addi	a5,sp,144
    80006f44:	0a210693          	addi	a3,sp,162
    80006f48:	0007d703          	lhu	a4,0(a5)
    80006f4c:	00278793          	addi	a5,a5,2
    80006f50:	0a071ee3          	bnez	a4,8000780c <_ldtoa_r+0x9c8>
    80006f54:	fed79ae3          	bne	a5,a3,80006f48 <_ldtoa_r+0x104>
    80006f58:	09000793          	li	a5,144
    80006f5c:	1af12a23          	sw	a5,436(sp)
    80006f60:	0b010713          	addi	a4,sp,176
    80006f64:	09010793          	addi	a5,sp,144
    80006f68:	0a410613          	addi	a2,sp,164
    80006f6c:	0007d683          	lhu	a3,0(a5)
    80006f70:	00278793          	addi	a5,a5,2
    80006f74:	00270713          	addi	a4,a4,2 # ffffffffffff8002 <t0.2038+0xffffffff7ffbb3ba>
    80006f78:	fed71f23          	sh	a3,-2(a4)
    80006f7c:	fec798e3          	bne	a5,a2,80006f6c <_ldtoa_r+0x128>
    80006f80:	0c215603          	lhu	a2,194(sp)
    80006f84:	00000c93          	li	s9,0
    80006f88:	00f65793          	srli	a5,a2,0xf
    80006f8c:	54079263          	bnez	a5,800074d0 <_ldtoa_r+0x68c>
    80006f90:	00023b37          	lui	s6,0x23
    80006f94:	170b0c13          	addi	s8,s6,368 # 23170 <_start-0x7ffdceac>
    80006f98:	018c0b93          	addi	s7,s8,24
    80006f9c:	00000693          	li	a3,0
    80006fa0:	0d010793          	addi	a5,sp,208
    80006fa4:	000b8713          	mv	a4,s7
    80006fa8:	0e410d93          	addi	s11,sp,228
    80006fac:	0080006f          	j	80006fb4 <_ldtoa_r+0x170>
    80006fb0:	00075683          	lhu	a3,0(a4)
    80006fb4:	00278793          	addi	a5,a5,2
    80006fb8:	fed79f23          	sh	a3,-2(a5)
    80006fbc:	00270713          	addi	a4,a4,2
    80006fc0:	ffb798e3          	bne	a5,s11,80006fb0 <_ldtoa_r+0x16c>
    80006fc4:	14060463          	beqz	a2,8000710c <_ldtoa_r+0x2c8>
    80006fc8:	000087b7          	lui	a5,0x8
    80006fcc:	fff78793          	addi	a5,a5,-1 # 7fff <_start-0x7fff801d>
    80006fd0:	4af600e3          	beq	a2,a5,80007c70 <_ldtoa_r+0xe2c>
    80006fd4:	0c011783          	lh	a5,192(sp)
    80006fd8:	5007dee3          	bgez	a5,80007cf4 <_ldtoa_r+0xeb0>
    80006fdc:	0b010593          	addi	a1,sp,176
    80006fe0:	000b8513          	mv	a0,s7
    80006fe4:	bbdfe0ef          	jal	ra,80005ba0 <_fwalk_reent+0x748>
    80006fe8:	12050e63          	beqz	a0,80007124 <_ldtoa_r+0x2e0>
    80006fec:	040540e3          	bltz	a0,8000782c <_ldtoa_r+0x9e8>
    80006ff0:	0c215783          	lhu	a5,194(sp)
    80006ff4:	5a0790e3          	bnez	a5,80007d94 <_ldtoa_r+0xf50>
    80006ff8:	0c011783          	lh	a5,192(sp)
    80006ffc:	00000493          	li	s1,0
    80007000:	1b010913          	addi	s2,sp,432
    80007004:	0207c463          	bltz	a5,8000702c <_ldtoa_r+0x1e8>
    80007008:	120c0413          	addi	s0,s8,288
    8000700c:	0b010613          	addi	a2,sp,176
    80007010:	00090693          	mv	a3,s2
    80007014:	00060593          	mv	a1,a2
    80007018:	00040513          	mv	a0,s0
    8000701c:	a4cff0ef          	jal	ra,80006268 <_fwalk_reent+0xe10>
    80007020:	0c011783          	lh	a5,192(sp)
    80007024:	fff4849b          	addiw	s1,s1,-1
    80007028:	fe07d2e3          	bgez	a5,8000700c <_ldtoa_r+0x1c8>
    8000702c:	11010413          	addi	s0,sp,272
    80007030:	12810a93          	addi	s5,sp,296
    80007034:	00040713          	mv	a4,s0
    80007038:	0b010793          	addi	a5,sp,176
    8000703c:	0c410613          	addi	a2,sp,196
    80007040:	0007d683          	lhu	a3,0(a5)
    80007044:	00278793          	addi	a5,a5,2
    80007048:	00270713          	addi	a4,a4,2
    8000704c:	fed71f23          	sh	a3,-2(a4)
    80007050:	fec798e3          	bne	a5,a2,80007040 <_ldtoa_r+0x1fc>
    80007054:	00000693          	li	a3,0
    80007058:	0d010793          	addi	a5,sp,208
    8000705c:	000b8713          	mv	a4,s7
    80007060:	0080006f          	j	80007068 <_ldtoa_r+0x224>
    80007064:	00075683          	lhu	a3,0(a4)
    80007068:	00278793          	addi	a5,a5,2
    8000706c:	fed79f23          	sh	a3,-2(a5)
    80007070:	00270713          	addi	a4,a4,2
    80007074:	ffb798e3          	bne	a5,s11,80007064 <_ldtoa_r+0x220>
    80007078:	030c0d13          	addi	s10,s8,48
    8000707c:	138c0d93          	addi	s11,s8,312
    80007080:	fffffa37          	lui	s4,0xfffff
    80007084:	120c0c13          	addi	s8,s8,288
    80007088:	00c0006f          	j	80007094 <_ldtoa_r+0x250>
    8000708c:	014d8d93          	addi	s11,s11,20
    80007090:	014d0d13          	addi	s10,s10,20
    80007094:	00040593          	mv	a1,s0
    80007098:	000b8513          	mv	a0,s7
    8000709c:	b05fe0ef          	jal	ra,80005ba0 <_fwalk_reent+0x748>
    800070a0:	04a05863          	blez	a0,800070f0 <_ldtoa_r+0x2ac>
    800070a4:	00040593          	mv	a1,s0
    800070a8:	000d8513          	mv	a0,s11
    800070ac:	af5fe0ef          	jal	ra,80005ba0 <_fwalk_reent+0x748>
    800070b0:	02054863          	bltz	a0,800070e0 <_ldtoa_r+0x29c>
    800070b4:	00090693          	mv	a3,s2
    800070b8:	00040613          	mv	a2,s0
    800070bc:	00040593          	mv	a1,s0
    800070c0:	000d0513          	mv	a0,s10
    800070c4:	9a4ff0ef          	jal	ra,80006268 <_fwalk_reent+0xe10>
    800070c8:	0d010613          	addi	a2,sp,208
    800070cc:	00090693          	mv	a3,s2
    800070d0:	00060593          	mv	a1,a2
    800070d4:	000d0513          	mv	a0,s10
    800070d8:	990ff0ef          	jal	ra,80006268 <_fwalk_reent+0xe10>
    800070dc:	009a04bb          	addw	s1,s4,s1
    800070e0:	01fa579b          	srliw	a5,s4,0x1f
    800070e4:	014787bb          	addw	a5,a5,s4
    800070e8:	4017da1b          	sraiw	s4,a5,0x1
    800070ec:	fb8d10e3          	bne	s10,s8,8000708c <_ldtoa_r+0x248>
    800070f0:	0d010613          	addi	a2,sp,208
    800070f4:	00090693          	mv	a3,s2
    800070f8:	000b8593          	mv	a1,s7
    800070fc:	00060513          	mv	a0,a2
    80007100:	e2cff0ef          	jal	ra,8000672c <_fwalk_reent+0x12d4>
    80007104:	17010a13          	addi	s4,sp,368
    80007108:	0300006f          	j	80007138 <_ldtoa_r+0x2f4>
    8000710c:	0b010793          	addi	a5,sp,176
    80007110:	0c210693          	addi	a3,sp,194
    80007114:	0007d703          	lhu	a4,0(a5)
    80007118:	ec0712e3          	bnez	a4,80006fdc <_ldtoa_r+0x198>
    8000711c:	00278793          	addi	a5,a5,2
    80007120:	fef69ae3          	bne	a3,a5,80007114 <_ldtoa_r+0x2d0>
    80007124:	00000493          	li	s1,0
    80007128:	17010a13          	addi	s4,sp,368
    8000712c:	1b010913          	addi	s2,sp,432
    80007130:	11010413          	addi	s0,sp,272
    80007134:	12810a93          	addi	s5,sp,296
    80007138:	00040593          	mv	a1,s0
    8000713c:	0d010513          	addi	a0,sp,208
    80007140:	9a9fe0ef          	jal	ra,80005ae8 <_fwalk_reent+0x690>
    80007144:	0d010713          	addi	a4,sp,208
    80007148:	00040793          	mv	a5,s0
    8000714c:	0007d683          	lhu	a3,0(a5)
    80007150:	00278793          	addi	a5,a5,2
    80007154:	00270713          	addi	a4,a4,2
    80007158:	fed71f23          	sh	a3,-2(a4)
    8000715c:	ff5798e3          	bne	a5,s5,8000714c <_ldtoa_r+0x308>
    80007160:	00040593          	mv	a1,s0
    80007164:	0b010513          	addi	a0,sp,176
    80007168:	0e011423          	sh	zero,232(sp)
    8000716c:	97dfe0ef          	jal	ra,80005ae8 <_fwalk_reent+0x690>
    80007170:	0b010793          	addi	a5,sp,176
    80007174:	00045703          	lhu	a4,0(s0)
    80007178:	00240413          	addi	s0,s0,2
    8000717c:	00278793          	addi	a5,a5,2
    80007180:	fee79f23          	sh	a4,-2(a5)
    80007184:	ff5418e3          	bne	s0,s5,80007174 <_ldtoa_r+0x330>
    80007188:	00090613          	mv	a2,s2
    8000718c:	0b010593          	addi	a1,sp,176
    80007190:	0d010513          	addi	a0,sp,208
    80007194:	0c011423          	sh	zero,200(sp)
    80007198:	f6dfe0ef          	jal	ra,80006104 <_fwalk_reent+0xcac>
    8000719c:	1fc15b83          	lhu	s7,508(sp)
    800071a0:	160b9663          	bnez	s7,8000730c <_ldtoa_r+0x4c8>
    800071a4:	0c810c13          	addi	s8,sp,200
    800071a8:	0b210d13          	addi	s10,sp,178
    800071ac:	0f210413          	addi	s0,sp,242
    800071b0:	170b0593          	addi	a1,s6,368
    800071b4:	0b010513          	addi	a0,sp,176
    800071b8:	9e9fe0ef          	jal	ra,80005ba0 <_fwalk_reent+0x748>
    800071bc:	14050863          	beqz	a0,8000730c <_ldtoa_r+0x4c8>
    800071c0:	00000713          	li	a4,0
    800071c4:	000c0693          	mv	a3,s8
    800071c8:	0006d783          	lhu	a5,0(a3)
    800071cc:	00f7d613          	srli	a2,a5,0xf
    800071d0:	00060463          	beqz	a2,800071d8 <_ldtoa_r+0x394>
    800071d4:	00176713          	ori	a4,a4,1
    800071d8:	0017979b          	slliw	a5,a5,0x1
    800071dc:	03079793          	slli	a5,a5,0x30
    800071e0:	00277613          	andi	a2,a4,2
    800071e4:	0307d793          	srli	a5,a5,0x30
    800071e8:	00060463          	beqz	a2,800071f0 <_ldtoa_r+0x3ac>
    800071ec:	0017e793          	ori	a5,a5,1
    800071f0:	0017171b          	slliw	a4,a4,0x1
    800071f4:	00f69023          	sh	a5,0(a3)
    800071f8:	03071713          	slli	a4,a4,0x30
    800071fc:	ffe68693          	addi	a3,a3,-2
    80007200:	03075713          	srli	a4,a4,0x30
    80007204:	fda692e3          	bne	a3,s10,800071c8 <_ldtoa_r+0x384>
    80007208:	0f010713          	addi	a4,sp,240
    8000720c:	0b010793          	addi	a5,sp,176
    80007210:	0007d683          	lhu	a3,0(a5)
    80007214:	00278793          	addi	a5,a5,2
    80007218:	00270713          	addi	a4,a4,2
    8000721c:	fed71f23          	sh	a3,-2(a4)
    80007220:	ff8798e3          	bne	a5,s8,80007210 <_ldtoa_r+0x3cc>
    80007224:	10011423          	sh	zero,264(sp)
    80007228:	00000713          	li	a4,0
    8000722c:	10810693          	addi	a3,sp,264
    80007230:	0006d783          	lhu	a5,0(a3)
    80007234:	00f7d613          	srli	a2,a5,0xf
    80007238:	00060463          	beqz	a2,80007240 <_ldtoa_r+0x3fc>
    8000723c:	00176713          	ori	a4,a4,1
    80007240:	0017979b          	slliw	a5,a5,0x1
    80007244:	03079793          	slli	a5,a5,0x30
    80007248:	00277613          	andi	a2,a4,2
    8000724c:	0307d793          	srli	a5,a5,0x30
    80007250:	00060463          	beqz	a2,80007258 <_ldtoa_r+0x414>
    80007254:	0017e793          	ori	a5,a5,1
    80007258:	0017171b          	slliw	a4,a4,0x1
    8000725c:	00f69023          	sh	a5,0(a3)
    80007260:	03071713          	slli	a4,a4,0x30
    80007264:	ffe68693          	addi	a3,a3,-2
    80007268:	03075713          	srli	a4,a4,0x30
    8000726c:	fc8692e3          	bne	a3,s0,80007230 <_ldtoa_r+0x3ec>
    80007270:	00000713          	li	a4,0
    80007274:	10810693          	addi	a3,sp,264
    80007278:	0006d783          	lhu	a5,0(a3)
    8000727c:	00f7d613          	srli	a2,a5,0xf
    80007280:	00060463          	beqz	a2,80007288 <_ldtoa_r+0x444>
    80007284:	00176713          	ori	a4,a4,1
    80007288:	0017979b          	slliw	a5,a5,0x1
    8000728c:	03079793          	slli	a5,a5,0x30
    80007290:	00277613          	andi	a2,a4,2
    80007294:	0307d793          	srli	a5,a5,0x30
    80007298:	00060463          	beqz	a2,800072a0 <_ldtoa_r+0x45c>
    8000729c:	0017e793          	ori	a5,a5,1
    800072a0:	0017171b          	slliw	a4,a4,0x1
    800072a4:	00f69023          	sh	a5,0(a3)
    800072a8:	03071713          	slli	a4,a4,0x30
    800072ac:	ffe68693          	addi	a3,a3,-2
    800072b0:	03075713          	srli	a4,a4,0x30
    800072b4:	fc8692e3          	bne	a3,s0,80007278 <_ldtoa_r+0x434>
    800072b8:	00000613          	li	a2,0
    800072bc:	000c0693          	mv	a3,s8
    800072c0:	10810713          	addi	a4,sp,264
    800072c4:	0006d583          	lhu	a1,0(a3)
    800072c8:	00075783          	lhu	a5,0(a4)
    800072cc:	ffe68693          	addi	a3,a3,-2
    800072d0:	ffe70713          	addi	a4,a4,-2
    800072d4:	00b787b3          	add	a5,a5,a1
    800072d8:	00c787b3          	add	a5,a5,a2
    800072dc:	0107d613          	srli	a2,a5,0x10
    800072e0:	00f69123          	sh	a5,2(a3)
    800072e4:	00167613          	andi	a2,a2,1
    800072e8:	fc871ee3          	bne	a4,s0,800072c4 <_ldtoa_r+0x480>
    800072ec:	00090613          	mv	a2,s2
    800072f0:	0b010593          	addi	a1,sp,176
    800072f4:	0d010513          	addi	a0,sp,208
    800072f8:	e0dfe0ef          	jal	ra,80006104 <_fwalk_reent+0xcac>
    800072fc:	1fc15783          	lhu	a5,508(sp)
    80007300:	fff4849b          	addiw	s1,s1,-1
    80007304:	ea0786e3          	beqz	a5,800071b0 <_ldtoa_r+0x36c>
    80007308:	00078b93          	mv	s7,a5
    8000730c:	02d00793          	li	a5,45
    80007310:	000c9463          	bnez	s9,80007318 <_ldtoa_r+0x4d4>
    80007314:	02000793          	li	a5,32
    80007318:	00813683          	ld	a3,8(sp)
    8000731c:	16f10823          	sb	a5,368(sp)
    80007320:	00300713          	li	a4,3
    80007324:	01013783          	ld	a5,16(sp)
    80007328:	00e69463          	bne	a3,a4,80007330 <_ldtoa_r+0x4ec>
    8000732c:	009787bb          	addw	a5,a5,s1
    80007330:	02a00713          	li	a4,42
    80007334:	0007841b          	sext.w	s0,a5
    80007338:	00f75463          	bge	a4,a5,80007340 <_ldtoa_r+0x4fc>
    8000733c:	02a00413          	li	s0,42
    80007340:	00a00713          	li	a4,10
    80007344:	48eb8e63          	beq	s7,a4,800077e0 <_ldtoa_r+0x99c>
    80007348:	030b8b9b          	addiw	s7,s7,48
    8000734c:	02e00713          	li	a4,46
    80007350:	177108a3          	sb	s7,369(sp)
    80007354:	16e10923          	sb	a4,370(sp)
    80007358:	1807c863          	bltz	a5,800074e8 <_ldtoa_r+0x6a4>
    8000735c:	17310c93          	addi	s9,sp,371
    80007360:	00000a93          	li	s5,0
    80007364:	0f010d13          	addi	s10,sp,240
    80007368:	0c810c13          	addi	s8,sp,200
    8000736c:	0b210d93          	addi	s11,sp,178
    80007370:	0f210b93          	addi	s7,sp,242
    80007374:	00000713          	li	a4,0
    80007378:	000c0693          	mv	a3,s8
    8000737c:	0006d783          	lhu	a5,0(a3)
    80007380:	00f7d613          	srli	a2,a5,0xf
    80007384:	00060463          	beqz	a2,8000738c <_ldtoa_r+0x548>
    80007388:	00176713          	ori	a4,a4,1
    8000738c:	0017979b          	slliw	a5,a5,0x1
    80007390:	03079793          	slli	a5,a5,0x30
    80007394:	00277613          	andi	a2,a4,2
    80007398:	0307d793          	srli	a5,a5,0x30
    8000739c:	00060463          	beqz	a2,800073a4 <_ldtoa_r+0x560>
    800073a0:	0017e793          	ori	a5,a5,1
    800073a4:	0017171b          	slliw	a4,a4,0x1
    800073a8:	00f69023          	sh	a5,0(a3)
    800073ac:	03071713          	slli	a4,a4,0x30
    800073b0:	ffe68693          	addi	a3,a3,-2
    800073b4:	03075713          	srli	a4,a4,0x30
    800073b8:	fdb692e3          	bne	a3,s11,8000737c <_ldtoa_r+0x538>
    800073bc:	000d0713          	mv	a4,s10
    800073c0:	0b010793          	addi	a5,sp,176
    800073c4:	0007d683          	lhu	a3,0(a5)
    800073c8:	00278793          	addi	a5,a5,2
    800073cc:	00270713          	addi	a4,a4,2
    800073d0:	fed71f23          	sh	a3,-2(a4)
    800073d4:	ff8798e3          	bne	a5,s8,800073c4 <_ldtoa_r+0x580>
    800073d8:	10011423          	sh	zero,264(sp)
    800073dc:	00000713          	li	a4,0
    800073e0:	10810693          	addi	a3,sp,264
    800073e4:	0006d783          	lhu	a5,0(a3)
    800073e8:	00f7d613          	srli	a2,a5,0xf
    800073ec:	00060463          	beqz	a2,800073f4 <_ldtoa_r+0x5b0>
    800073f0:	00176713          	ori	a4,a4,1
    800073f4:	0017979b          	slliw	a5,a5,0x1
    800073f8:	03079793          	slli	a5,a5,0x30
    800073fc:	00277613          	andi	a2,a4,2
    80007400:	0307d793          	srli	a5,a5,0x30
    80007404:	00060463          	beqz	a2,8000740c <_ldtoa_r+0x5c8>
    80007408:	0017e793          	ori	a5,a5,1
    8000740c:	0017171b          	slliw	a4,a4,0x1
    80007410:	00f69023          	sh	a5,0(a3)
    80007414:	03071713          	slli	a4,a4,0x30
    80007418:	ffe68693          	addi	a3,a3,-2
    8000741c:	03075713          	srli	a4,a4,0x30
    80007420:	fd7692e3          	bne	a3,s7,800073e4 <_ldtoa_r+0x5a0>
    80007424:	00000713          	li	a4,0
    80007428:	10810693          	addi	a3,sp,264
    8000742c:	0006d783          	lhu	a5,0(a3)
    80007430:	00f7d613          	srli	a2,a5,0xf
    80007434:	00060463          	beqz	a2,8000743c <_ldtoa_r+0x5f8>
    80007438:	00176713          	ori	a4,a4,1
    8000743c:	0017979b          	slliw	a5,a5,0x1
    80007440:	03079793          	slli	a5,a5,0x30
    80007444:	00277613          	andi	a2,a4,2
    80007448:	0307d793          	srli	a5,a5,0x30
    8000744c:	00060463          	beqz	a2,80007454 <_ldtoa_r+0x610>
    80007450:	0017e793          	ori	a5,a5,1
    80007454:	0017171b          	slliw	a4,a4,0x1
    80007458:	00f69023          	sh	a5,0(a3)
    8000745c:	03071713          	slli	a4,a4,0x30
    80007460:	ffe68693          	addi	a3,a3,-2
    80007464:	03075713          	srli	a4,a4,0x30
    80007468:	fd7692e3          	bne	a3,s7,8000742c <_ldtoa_r+0x5e8>
    8000746c:	00000613          	li	a2,0
    80007470:	000c0693          	mv	a3,s8
    80007474:	10810713          	addi	a4,sp,264
    80007478:	0006d583          	lhu	a1,0(a3)
    8000747c:	00075783          	lhu	a5,0(a4)
    80007480:	ffe68693          	addi	a3,a3,-2
    80007484:	ffe70713          	addi	a4,a4,-2
    80007488:	00b787b3          	add	a5,a5,a1
    8000748c:	00c787b3          	add	a5,a5,a2
    80007490:	0107d613          	srli	a2,a5,0x10
    80007494:	00f69123          	sh	a5,2(a3)
    80007498:	00167613          	andi	a2,a2,1
    8000749c:	fd771ee3          	bne	a4,s7,80007478 <_ldtoa_r+0x634>
    800074a0:	00090613          	mv	a2,s2
    800074a4:	0b010593          	addi	a1,sp,176
    800074a8:	0d010513          	addi	a0,sp,208
    800074ac:	c59fe0ef          	jal	ra,80006104 <_fwalk_reent+0xcac>
    800074b0:	1fc15603          	lhu	a2,508(sp)
    800074b4:	001c8793          	addi	a5,s9,1
    800074b8:	001a8a9b          	addiw	s5,s5,1
    800074bc:	0306071b          	addiw	a4,a2,48
    800074c0:	fee78fa3          	sb	a4,-1(a5)
    800074c4:	03544863          	blt	s0,s5,800074f4 <_ldtoa_r+0x6b0>
    800074c8:	00078c93          	mv	s9,a5
    800074cc:	ea9ff06f          	j	80007374 <_ldtoa_r+0x530>
    800074d0:	03161613          	slli	a2,a2,0x31
    800074d4:	03165613          	srli	a2,a2,0x31
    800074d8:	000107b7          	lui	a5,0x10
    800074dc:	0cc11123          	sh	a2,194(sp)
    800074e0:	fff78c93          	addi	s9,a5,-1 # ffff <_start-0x7fff001d>
    800074e4:	aadff06f          	j	80006f90 <_ldtoa_r+0x14c>
    800074e8:	1fc15603          	lhu	a2,508(sp)
    800074ec:	17210c93          	addi	s9,sp,370
    800074f0:	17310793          	addi	a5,sp,371
    800074f4:	00400713          	li	a4,4
    800074f8:	04c75e63          	bge	a4,a2,80007554 <_ldtoa_r+0x710>
    800074fc:	00500713          	li	a4,5
    80007500:	00e60ae3          	beq	a2,a4,80007d14 <_ldtoa_r+0xed0>
    80007504:	ffe7c703          	lbu	a4,-2(a5)
    80007508:	ffe78613          	addi	a2,a5,-2
    8000750c:	07f77593          	andi	a1,a4,127
    80007510:	00058713          	mv	a4,a1
    80007514:	02044a63          	bltz	s0,80007548 <_ldtoa_r+0x704>
    80007518:	02e00513          	li	a0,46
    8000751c:	03800813          	li	a6,56
    80007520:	03000893          	li	a7,48
    80007524:	00070793          	mv	a5,a4
    80007528:	76a58a63          	beq	a1,a0,80007c9c <_ldtoa_r+0xe58>
    8000752c:	78f85663          	bge	a6,a5,80007cb8 <_ldtoa_r+0xe74>
    80007530:	fff64783          	lbu	a5,-1(a2) # 7fff <_start-0x7fff801d>
    80007534:	01160023          	sb	a7,0(a2)
    80007538:	fff60613          	addi	a2,a2,-1
    8000753c:	07f7f593          	andi	a1,a5,127
    80007540:	00058793          	mv	a5,a1
    80007544:	fe5ff06f          	j	80007528 <_ldtoa_r+0x6e4>
    80007548:	03100713          	li	a4,49
    8000754c:	fee78f23          	sb	a4,-2(a5)
    80007550:	0014849b          	addiw	s1,s1,1
    80007554:	000235b7          	lui	a1,0x23
    80007558:	00048613          	mv	a2,s1
    8000755c:	0e858593          	addi	a1,a1,232 # 230e8 <_start-0x7ffdcf34>
    80007560:	000c8513          	mv	a0,s9
    80007564:	360030ef          	jal	ra,8000a8c4 <sprintf>
    80007568:	0a215783          	lhu	a5,162(sp)
    8000756c:	02813703          	ld	a4,40(sp)
    80007570:	1c912023          	sw	s1,448(sp)
    80007574:	fff7c793          	not	a5,a5
    80007578:	1ae12a23          	sw	a4,436(sp)
    8000757c:	03179713          	slli	a4,a5,0x31
    80007580:	18070a63          	beqz	a4,80007714 <_ldtoa_r+0x8d0>
    80007584:	02013683          	ld	a3,32(sp)
    80007588:	17014703          	lbu	a4,368(sp)
    8000758c:	0014879b          	addiw	a5,s1,1
    80007590:	00f6a023          	sw	a5,0(a3)
    80007594:	000a0793          	mv	a5,s4
    80007598:	02070a63          	beqz	a4,800075cc <_ldtoa_r+0x788>
    8000759c:	02e00693          	li	a3,46
    800075a0:	20d70a63          	beq	a4,a3,800077b4 <_ldtoa_r+0x970>
    800075a4:	0017c703          	lbu	a4,1(a5)
    800075a8:	00178793          	addi	a5,a5,1
    800075ac:	fe071ae3          	bnez	a4,800075a0 <_ldtoa_r+0x75c>
    800075b0:	04500693          	li	a3,69
    800075b4:	00fa6663          	bltu	s4,a5,800075c0 <_ldtoa_r+0x77c>
    800075b8:	0140006f          	j	800075cc <_ldtoa_r+0x788>
    800075bc:	01478863          	beq	a5,s4,800075cc <_ldtoa_r+0x788>
    800075c0:	fff7c703          	lbu	a4,-1(a5)
    800075c4:	fff78793          	addi	a5,a5,-1
    800075c8:	fed71ae3          	bne	a4,a3,800075bc <_ldtoa_r+0x778>
    800075cc:	00078023          	sb	zero,0(a5)
    800075d0:	000a0793          	mv	a5,s4
    800075d4:	02000693          	li	a3,32
    800075d8:	02d00613          	li	a2,45
    800075dc:	0007c703          	lbu	a4,0(a5)
    800075e0:	00d70463          	beq	a4,a3,800075e8 <_ldtoa_r+0x7a4>
    800075e4:	00c71663          	bne	a4,a2,800075f0 <_ldtoa_r+0x7ac>
    800075e8:	00178793          	addi	a5,a5,1
    800075ec:	ff1ff06f          	j	800075dc <_ldtoa_r+0x798>
    800075f0:	000a0413          	mv	s0,s4
    800075f4:	00c0006f          	j	80007600 <_ldtoa_r+0x7bc>
    800075f8:	0007c703          	lbu	a4,0(a5)
    800075fc:	00068413          	mv	s0,a3
    80007600:	00e40023          	sb	a4,0(s0)
    80007604:	00140693          	addi	a3,s0,1
    80007608:	00178793          	addi	a5,a5,1
    8000760c:	fe0716e3          	bnez	a4,800075f8 <_ldtoa_r+0x7b4>
    80007610:	00813703          	ld	a4,8(sp)
    80007614:	00200793          	li	a5,2
    80007618:	fff44683          	lbu	a3,-1(s0)
    8000761c:	12f70263          	beq	a4,a5,80007740 <_ldtoa_r+0x8fc>
    80007620:	01013703          	ld	a4,16(sp)
    80007624:	00070793          	mv	a5,a4
    80007628:	00975463          	bge	a4,s1,80007630 <_ldtoa_r+0x7ec>
    8000762c:	00048793          	mv	a5,s1
    80007630:	03000613          	li	a2,48
    80007634:	0007871b          	sext.w	a4,a5
    80007638:	02c69663          	bne	a3,a2,80007664 <_ldtoa_r+0x820>
    8000763c:	414407b3          	sub	a5,s0,s4
    80007640:	02f75263          	bge	a4,a5,80007664 <_ldtoa_r+0x820>
    80007644:	03000693          	li	a3,48
    80007648:	00c0006f          	j	80007654 <_ldtoa_r+0x810>
    8000764c:	414407b3          	sub	a5,s0,s4
    80007650:	00f75a63          	bge	a4,a5,80007664 <_ldtoa_r+0x820>
    80007654:	ffe44783          	lbu	a5,-2(s0)
    80007658:	fe040fa3          	sb	zero,-1(s0)
    8000765c:	fff40413          	addi	s0,s0,-1
    80007660:	fed786e3          	beq	a5,a3,8000764c <_ldtoa_r+0x808>
    80007664:	00813703          	ld	a4,8(sp)
    80007668:	00300793          	li	a5,3
    8000766c:	0ef70663          	beq	a4,a5,80007758 <_ldtoa_r+0x914>
    80007670:	01813783          	ld	a5,24(sp)
    80007674:	0609a423          	sw	zero,104(s3)
    80007678:	0097861b          	addiw	a2,a5,9
    8000767c:	01f00793          	li	a5,31
    80007680:	10c7f663          	bgeu	a5,a2,8000778c <_ldtoa_r+0x948>
    80007684:	00100713          	li	a4,1
    80007688:	00400793          	li	a5,4
    8000768c:	0017979b          	slliw	a5,a5,0x1
    80007690:	01c78693          	addi	a3,a5,28
    80007694:	0007059b          	sext.w	a1,a4
    80007698:	0017071b          	addiw	a4,a4,1
    8000769c:	fed678e3          	bgeu	a2,a3,8000768c <_ldtoa_r+0x848>
    800076a0:	06b9a423          	sw	a1,104(s3)
    800076a4:	00098513          	mv	a0,s3
    800076a8:	04d010ef          	jal	ra,80008ef4 <_Balloc>
    800076ac:	00050493          	mv	s1,a0
    800076b0:	06050ce3          	beqz	a0,80007f28 <_ldtoa_r+0x10e4>
    800076b4:	06a9b023          	sd	a0,96(s3)
    800076b8:	000a0593          	mv	a1,s4
    800076bc:	3dc030ef          	jal	ra,8000aa98 <strcpy>
    800076c0:	03013703          	ld	a4,48(sp)
    800076c4:	00070863          	beqz	a4,800076d4 <_ldtoa_r+0x890>
    800076c8:	414407b3          	sub	a5,s0,s4
    800076cc:	00f487b3          	add	a5,s1,a5
    800076d0:	00f73023          	sd	a5,0(a4)
    800076d4:	26813083          	ld	ra,616(sp)
    800076d8:	26013403          	ld	s0,608(sp)
    800076dc:	25013903          	ld	s2,592(sp)
    800076e0:	24813983          	ld	s3,584(sp)
    800076e4:	24013a03          	ld	s4,576(sp)
    800076e8:	23813a83          	ld	s5,568(sp)
    800076ec:	23013b03          	ld	s6,560(sp)
    800076f0:	22813b83          	ld	s7,552(sp)
    800076f4:	22013c03          	ld	s8,544(sp)
    800076f8:	21813c83          	ld	s9,536(sp)
    800076fc:	21013d03          	ld	s10,528(sp)
    80007700:	20813d83          	ld	s11,520(sp)
    80007704:	00048513          	mv	a0,s1
    80007708:	25813483          	ld	s1,600(sp)
    8000770c:	27010113          	addi	sp,sp,624
    80007710:	00008067          	ret
    80007714:	09010793          	addi	a5,sp,144
    80007718:	0a210693          	addi	a3,sp,162
    8000771c:	0007d703          	lhu	a4,0(a5)
    80007720:	00278793          	addi	a5,a5,2
    80007724:	5a071063          	bnez	a4,80007cc4 <_ldtoa_r+0xe80>
    80007728:	fed79ae3          	bne	a5,a3,8000771c <_ldtoa_r+0x8d8>
    8000772c:	02013703          	ld	a4,32(sp)
    80007730:	000027b7          	lui	a5,0x2
    80007734:	70f78793          	addi	a5,a5,1807 # 270f <_start-0x7fffd90d>
    80007738:	00f72023          	sw	a5,0(a4)
    8000773c:	e95ff06f          	j	800075d0 <_ldtoa_r+0x78c>
    80007740:	03000793          	li	a5,48
    80007744:	f2f696e3          	bne	a3,a5,80007670 <_ldtoa_r+0x82c>
    80007748:	414407b3          	sub	a5,s0,s4
    8000774c:	00100713          	li	a4,1
    80007750:	eef74ae3          	blt	a4,a5,80007644 <_ldtoa_r+0x800>
    80007754:	f1dff06f          	j	80007670 <_ldtoa_r+0x82c>
    80007758:	01013783          	ld	a5,16(sp)
    8000775c:	009784bb          	addw	s1,a5,s1
    80007760:	4e04c263          	bltz	s1,80007c44 <_ldtoa_r+0xe00>
    80007764:	02013783          	ld	a5,32(sp)
    80007768:	01813703          	ld	a4,24(sp)
    8000776c:	0007a783          	lw	a5,0(a5)
    80007770:	00e787bb          	addw	a5,a5,a4
    80007774:	00f13c23          	sd	a5,24(sp)
    80007778:	01813783          	ld	a5,24(sp)
    8000777c:	0609a423          	sw	zero,104(s3)
    80007780:	0037861b          	addiw	a2,a5,3
    80007784:	01f00793          	li	a5,31
    80007788:	eec7eee3          	bltu	a5,a2,80007684 <_ldtoa_r+0x840>
    8000778c:	00000593          	li	a1,0
    80007790:	f15ff06f          	j	800076a4 <_ldtoa_r+0x860>
    80007794:	01813783          	ld	a5,24(sp)
    80007798:	02a00713          	li	a4,42
    8000779c:	00078c93          	mv	s9,a5
    800077a0:	00f75463          	bge	a4,a5,800077a8 <_ldtoa_r+0x964>
    800077a4:	02a00c93          	li	s9,42
    800077a8:	000c879b          	sext.w	a5,s9
    800077ac:	00f13823          	sd	a5,16(sp)
    800077b0:	f7cff06f          	j	80006f2c <_ldtoa_r+0xe8>
    800077b4:	0007c703          	lbu	a4,0(a5)
    800077b8:	de070ce3          	beqz	a4,800075b0 <_ldtoa_r+0x76c>
    800077bc:	0017c703          	lbu	a4,1(a5)
    800077c0:	00178793          	addi	a5,a5,1
    800077c4:	fee78fa3          	sb	a4,-1(a5)
    800077c8:	de0704e3          	beqz	a4,800075b0 <_ldtoa_r+0x76c>
    800077cc:	0017c703          	lbu	a4,1(a5)
    800077d0:	00178793          	addi	a5,a5,1
    800077d4:	fee78fa3          	sb	a4,-1(a5)
    800077d8:	fe0712e3          	bnez	a4,800077bc <_ldtoa_r+0x978>
    800077dc:	dd5ff06f          	j	800075b0 <_ldtoa_r+0x76c>
    800077e0:	03100713          	li	a4,49
    800077e4:	16e108a3          	sb	a4,369(sp)
    800077e8:	02e00713          	li	a4,46
    800077ec:	16e10923          	sb	a4,370(sp)
    800077f0:	0014849b          	addiw	s1,s1,1
    800077f4:	2af05863          	blez	a5,80007aa4 <_ldtoa_r+0xc60>
    800077f8:	03000793          	li	a5,48
    800077fc:	16f109a3          	sb	a5,371(sp)
    80007800:	fff4041b          	addiw	s0,s0,-1
    80007804:	17410c93          	addi	s9,sp,372
    80007808:	b59ff06f          	j	80007360 <_ldtoa_r+0x51c>
    8000780c:	17010a13          	addi	s4,sp,368
    80007810:	000235b7          	lui	a1,0x23
    80007814:	16858593          	addi	a1,a1,360 # 23168 <_start-0x7ffdceb4>
    80007818:	000a0513          	mv	a0,s4
    8000781c:	000024b7          	lui	s1,0x2
    80007820:	0a4030ef          	jal	ra,8000a8c4 <sprintf>
    80007824:	70f48493          	addi	s1,s1,1807 # 270f <_start-0x7fffd90d>
    80007828:	d41ff06f          	j	80007568 <_ldtoa_r+0x724>
    8000782c:	0f010d13          	addi	s10,sp,240
    80007830:	000d0713          	mv	a4,s10
    80007834:	0b010793          	addi	a5,sp,176
    80007838:	0c410613          	addi	a2,sp,196
    8000783c:	0007d683          	lhu	a3,0(a5)
    80007840:	00278793          	addi	a5,a5,2
    80007844:	00270713          	addi	a4,a4,2
    80007848:	fed71f23          	sh	a3,-2(a4)
    8000784c:	fec798e3          	bne	a5,a2,8000783c <_ldtoa_r+0x9f8>
    80007850:	000047b7          	lui	a5,0x4
    80007854:	08e78793          	addi	a5,a5,142 # 408e <_start-0x7fffbf8e>
    80007858:	10f11123          	sh	a5,258(sp)
    8000785c:	000087b7          	lui	a5,0x8
    80007860:	fff78793          	addi	a5,a5,-1 # 7fff <_start-0x7fff801d>
    80007864:	02f13c23          	sd	a5,56(sp)
    80007868:	ffffc7b7          	lui	a5,0xffffc
    8000786c:	11010413          	addi	s0,sp,272
    80007870:	01000713          	li	a4,16
    80007874:	0d0c0313          	addi	t1,s8,208
    80007878:	0027879b          	addiw	a5,a5,2
    8000787c:	05913423          	sd	s9,72(sp)
    80007880:	05313823          	sd	s3,80(sp)
    80007884:	00040c93          	mv	s9,s0
    80007888:	00000493          	li	s1,0
    8000788c:	17010a13          	addi	s4,sp,368
    80007890:	1b010913          	addi	s2,sp,432
    80007894:	0e210a93          	addi	s5,sp,226
    80007898:	04f12223          	sw	a5,68(sp)
    8000789c:	00030993          	mv	s3,t1
    800078a0:	00070413          	mv	s0,a4
    800078a4:	00090693          	mv	a3,s2
    800078a8:	0d010613          	addi	a2,sp,208
    800078ac:	000d0593          	mv	a1,s10
    800078b0:	00098513          	mv	a0,s3
    800078b4:	e79fe0ef          	jal	ra,8000672c <_fwalk_reent+0x12d4>
    800078b8:	07810713          	addi	a4,sp,120
    800078bc:	0d010793          	addi	a5,sp,208
    800078c0:	0007d683          	lhu	a3,0(a5) # ffffffffffffc000 <t0.2038+0xffffffff7ffbf3b8>
    800078c4:	00278793          	addi	a5,a5,2
    800078c8:	00270713          	addi	a4,a4,2
    800078cc:	fed71f23          	sh	a3,-2(a4)
    800078d0:	ffb798e3          	bne	a5,s11,800078c0 <_ldtoa_r+0xa7c>
    800078d4:	03813783          	ld	a5,56(sp)
    800078d8:	08a15503          	lhu	a0,138(sp)
    800078dc:	00f575b3          	and	a1,a0,a5
    800078e0:	04412783          	lw	a5,68(sp)
    800078e4:	00f587bb          	addw	a5,a1,a5
    800078e8:	00078893          	mv	a7,a5
    800078ec:	36f05663          	blez	a5,80007c58 <_ldtoa_r+0xe14>
    800078f0:	09000593          	li	a1,144
    800078f4:	40f585bb          	subw	a1,a1,a5
    800078f8:	000c8713          	mv	a4,s9
    800078fc:	07810793          	addi	a5,sp,120
    80007900:	08c10613          	addi	a2,sp,140
    80007904:	0007d683          	lhu	a3,0(a5)
    80007908:	00278793          	addi	a5,a5,2
    8000790c:	00270713          	addi	a4,a4,2
    80007910:	fed71f23          	sh	a3,-2(a4)
    80007914:	fec798e3          	bne	a5,a2,80007904 <_ldtoa_r+0xac0>
    80007918:	06b05463          	blez	a1,80007980 <_ldtoa_r+0xb3c>
    8000791c:	00f00793          	li	a5,15
    80007920:	000c8713          	mv	a4,s9
    80007924:	02b7de63          	bge	a5,a1,80007960 <_ldtoa_r+0xb1c>
    80007928:	08000693          	li	a3,128
    8000792c:	411686bb          	subw	a3,a3,a7
    80007930:	0046d69b          	srliw	a3,a3,0x4
    80007934:	0016871b          	addiw	a4,a3,1
    80007938:	00171713          	slli	a4,a4,0x1
    8000793c:	00ec8733          	add	a4,s9,a4
    80007940:	000c8793          	mv	a5,s9
    80007944:	00278793          	addi	a5,a5,2
    80007948:	fe079f23          	sh	zero,-2(a5)
    8000794c:	fef71ce3          	bne	a4,a5,80007944 <_ldtoa_r+0xb00>
    80007950:	08000593          	li	a1,128
    80007954:	411585bb          	subw	a1,a1,a7
    80007958:	0046969b          	slliw	a3,a3,0x4
    8000795c:	40d585bb          	subw	a1,a1,a3
    80007960:	00159793          	slli	a5,a1,0x1
    80007964:	00fc07b3          	add	a5,s8,a5
    80007968:	00075683          	lhu	a3,0(a4)
    8000796c:	2407d783          	lhu	a5,576(a5)
    80007970:	00f6f7b3          	and	a5,a3,a5
    80007974:	00f71023          	sh	a5,0(a4)
    80007978:	00f55513          	srli	a0,a0,0xf
    8000797c:	14051463          	bnez	a0,80007ac4 <_ldtoa_r+0xc80>
    80007980:	0d010793          	addi	a5,sp,208
    80007984:	000c8713          	mv	a4,s9
    80007988:	0007d603          	lhu	a2,0(a5)
    8000798c:	00075683          	lhu	a3,0(a4)
    80007990:	02d61863          	bne	a2,a3,800079c0 <_ldtoa_r+0xb7c>
    80007994:	00278793          	addi	a5,a5,2
    80007998:	00270713          	addi	a4,a4,2
    8000799c:	fefa96e3          	bne	s5,a5,80007988 <_ldtoa_r+0xb44>
    800079a0:	000d0713          	mv	a4,s10
    800079a4:	0d010793          	addi	a5,sp,208
    800079a8:	0007d683          	lhu	a3,0(a5)
    800079ac:	00278793          	addi	a5,a5,2
    800079b0:	00270713          	addi	a4,a4,2
    800079b4:	fed71f23          	sh	a3,-2(a4)
    800079b8:	ffb798e3          	bne	a5,s11,800079a8 <_ldtoa_r+0xb64>
    800079bc:	009404bb          	addw	s1,s0,s1
    800079c0:	01498993          	addi	s3,s3,20
    800079c4:	134c0793          	addi	a5,s8,308
    800079c8:	00145413          	srli	s0,s0,0x1
    800079cc:	ecf99ce3          	bne	s3,a5,800078a4 <_ldtoa_r+0xa60>
    800079d0:	10215783          	lhu	a5,258(sp)
    800079d4:	0c215703          	lhu	a4,194(sp)
    800079d8:	000c8413          	mv	s0,s9
    800079dc:	05013983          	ld	s3,80(sp)
    800079e0:	00e787bb          	addw	a5,a5,a4
    800079e4:	ffffc737          	lui	a4,0xffffc
    800079e8:	f727071b          	addiw	a4,a4,-142
    800079ec:	04813c83          	ld	s9,72(sp)
    800079f0:	00e787bb          	addw	a5,a5,a4
    800079f4:	10f11123          	sh	a5,258(sp)
    800079f8:	0b010713          	addi	a4,sp,176
    800079fc:	000d0793          	mv	a5,s10
    80007a00:	10410613          	addi	a2,sp,260
    80007a04:	0007d683          	lhu	a3,0(a5)
    80007a08:	00278793          	addi	a5,a5,2
    80007a0c:	00270713          	addi	a4,a4,2 # ffffffffffffc002 <t0.2038+0xffffffff7ffbf3ba>
    80007a10:	fed71f23          	sh	a3,-2(a4)
    80007a14:	fec798e3          	bne	a5,a2,80007a04 <_ldtoa_r+0xbc0>
    80007a18:	00000713          	li	a4,0
    80007a1c:	0d010793          	addi	a5,sp,208
    80007a20:	0080006f          	j	80007a28 <_ldtoa_r+0xbe4>
    80007a24:	000bd703          	lhu	a4,0(s7)
    80007a28:	00278793          	addi	a5,a5,2
    80007a2c:	fee79f23          	sh	a4,-2(a5)
    80007a30:	002b8b93          	addi	s7,s7,2
    80007a34:	ffb798e3          	bne	a5,s11,80007a24 <_ldtoa_r+0xbe0>
    80007a38:	030c0d93          	addi	s11,s8,48
    80007a3c:	00001bb7          	lui	s7,0x1
    80007a40:	120c0c13          	addi	s8,s8,288
    80007a44:	0100006f          	j	80007a54 <_ldtoa_r+0xc10>
    80007a48:	001bdb93          	srli	s7,s7,0x1
    80007a4c:	258d8463          	beq	s11,s8,80007c94 <_ldtoa_r+0xe50>
    80007a50:	014d8d93          	addi	s11,s11,20
    80007a54:	000d0593          	mv	a1,s10
    80007a58:	000c0513          	mv	a0,s8
    80007a5c:	944fe0ef          	jal	ra,80005ba0 <_fwalk_reent+0x748>
    80007a60:	22a04a63          	bgtz	a0,80007c94 <_ldtoa_r+0xe50>
    80007a64:	000d0593          	mv	a1,s10
    80007a68:	000d8513          	mv	a0,s11
    80007a6c:	934fe0ef          	jal	ra,80005ba0 <_fwalk_reent+0x748>
    80007a70:	fca04ce3          	bgtz	a0,80007a48 <_ldtoa_r+0xc04>
    80007a74:	00090693          	mv	a3,s2
    80007a78:	000d0613          	mv	a2,s10
    80007a7c:	000d0593          	mv	a1,s10
    80007a80:	000d8513          	mv	a0,s11
    80007a84:	ca9fe0ef          	jal	ra,8000672c <_fwalk_reent+0x12d4>
    80007a88:	0d010613          	addi	a2,sp,208
    80007a8c:	00090693          	mv	a3,s2
    80007a90:	00060593          	mv	a1,a2
    80007a94:	000d8513          	mv	a0,s11
    80007a98:	fd0fe0ef          	jal	ra,80006268 <_fwalk_reent+0xe10>
    80007a9c:	009b84bb          	addw	s1,s7,s1
    80007aa0:	fa9ff06f          	j	80007a48 <_ldtoa_r+0xc04>
    80007aa4:	17310c93          	addi	s9,sp,371
    80007aa8:	aa0796e3          	bnez	a5,80007554 <_ldtoa_r+0x710>
    80007aac:	8b5ff06f          	j	80007360 <_ldtoa_r+0x51c>
    80007ab0:	00000693          	li	a3,0
    80007ab4:	c5cff06f          	j	80006f10 <_ldtoa_r+0xcc>
    80007ab8:	01813783          	ld	a5,24(sp)
    80007abc:	fff7879b          	addiw	a5,a5,-1
    80007ac0:	cd9ff06f          	j	80007798 <_ldtoa_r+0x954>
    80007ac4:	07810793          	addi	a5,sp,120
    80007ac8:	000c8713          	mv	a4,s9
    80007acc:	0140006f          	j	80007ae0 <_ldtoa_r+0xc9c>
    80007ad0:	00278793          	addi	a5,a5,2
    80007ad4:	08a10693          	addi	a3,sp,138
    80007ad8:	00270713          	addi	a4,a4,2
    80007adc:	eaf682e3          	beq	a3,a5,80007980 <_ldtoa_r+0xb3c>
    80007ae0:	0007d603          	lhu	a2,0(a5)
    80007ae4:	00075683          	lhu	a3,0(a4)
    80007ae8:	fed604e3          	beq	a2,a3,80007ad0 <_ldtoa_r+0xc8c>
    80007aec:	12215783          	lhu	a5,290(sp)
    80007af0:	03813703          	ld	a4,56(sp)
    80007af4:	00f777b3          	and	a5,a4,a5
    80007af8:	3ae78a63          	beq	a5,a4,80007eac <_ldtoa_r+0x1068>
    80007afc:	13010593          	addi	a1,sp,304
    80007b00:	000b8513          	mv	a0,s7
    80007b04:	fe5fd0ef          	jal	ra,80005ae8 <_fwalk_reent+0x690>
    80007b08:	15010593          	addi	a1,sp,336
    80007b0c:	000c8513          	mv	a0,s9
    80007b10:	fd9fd0ef          	jal	ra,80005ae8 <_fwalk_reent+0x690>
    80007b14:	13015703          	lhu	a4,304(sp)
    80007b18:	15215603          	lhu	a2,338(sp)
    80007b1c:	13215503          	lhu	a0,306(sp)
    80007b20:	fff74713          	not	a4,a4
    80007b24:	03071713          	slli	a4,a4,0x30
    80007b28:	03075713          	srli	a4,a4,0x30
    80007b2c:	12e11823          	sh	a4,304(sp)
    80007b30:	40c505b3          	sub	a1,a0,a2
    80007b34:	00060693          	mv	a3,a2
    80007b38:	06b05e63          	blez	a1,80007bb4 <_ldtoa_r+0xd70>
    80007b3c:	000a0593          	mv	a1,s4
    80007b40:	15010693          	addi	a3,sp,336
    80007b44:	16810793          	addi	a5,sp,360
    80007b48:	0006d803          	lhu	a6,0(a3)
    80007b4c:	00268693          	addi	a3,a3,2
    80007b50:	00258593          	addi	a1,a1,2
    80007b54:	ff059f23          	sh	a6,-2(a1)
    80007b58:	fef698e3          	bne	a3,a5,80007b48 <_ldtoa_r+0xd04>
    80007b5c:	18011423          	sh	zero,392(sp)
    80007b60:	15010693          	addi	a3,sp,336
    80007b64:	13010593          	addi	a1,sp,304
    80007b68:	0080006f          	j	80007b70 <_ldtoa_r+0xd2c>
    80007b6c:	0005d703          	lhu	a4,0(a1)
    80007b70:	00268693          	addi	a3,a3,2
    80007b74:	fee69f23          	sh	a4,-2(a3)
    80007b78:	00258593          	addi	a1,a1,2
    80007b7c:	fef698e3          	bne	a3,a5,80007b6c <_ldtoa_r+0xd28>
    80007b80:	16011423          	sh	zero,360(sp)
    80007b84:	13010713          	addi	a4,sp,304
    80007b88:	000a0793          	mv	a5,s4
    80007b8c:	18810593          	addi	a1,sp,392
    80007b90:	0007d683          	lhu	a3,0(a5)
    80007b94:	00278793          	addi	a5,a5,2
    80007b98:	00270713          	addi	a4,a4,2
    80007b9c:	fed71f23          	sh	a3,-2(a4)
    80007ba0:	feb798e3          	bne	a5,a1,80007b90 <_ldtoa_r+0xd4c>
    80007ba4:	15215683          	lhu	a3,338(sp)
    80007ba8:	40a605b3          	sub	a1,a2,a0
    80007bac:	14011423          	sh	zero,328(sp)
    80007bb0:	00068613          	mv	a2,a3
    80007bb4:	32058663          	beqz	a1,80007ee0 <_ldtoa_r+0x109c>
    80007bb8:	04d13c23          	sd	a3,88(sp)
    80007bbc:	f6f00793          	li	a5,-145
    80007bc0:	06f5ca63          	blt	a1,a5,80007c34 <_ldtoa_r+0xdf0>
    80007bc4:	0005859b          	sext.w	a1,a1
    80007bc8:	13010513          	addi	a0,sp,304
    80007bcc:	cfdfd0ef          	jal	ra,800058c8 <_fwalk_reent+0x470>
    80007bd0:	05813683          	ld	a3,88(sp)
    80007bd4:	00050593          	mv	a1,a0
    80007bd8:	16810793          	addi	a5,sp,360
    80007bdc:	14810713          	addi	a4,sp,328
    80007be0:	13015503          	lhu	a0,304(sp)
    80007be4:	15015603          	lhu	a2,336(sp)
    80007be8:	3ac50263          	beq	a0,a2,80007f8c <_ldtoa_r+0x1148>
    80007bec:	00000613          	li	a2,0
    80007bf0:	15210893          	addi	a7,sp,338
    80007bf4:	00060513          	mv	a0,a2
    80007bf8:	0007d603          	lhu	a2,0(a5)
    80007bfc:	00075803          	lhu	a6,0(a4)
    80007c00:	ffe78793          	addi	a5,a5,-2
    80007c04:	40a60633          	sub	a2,a2,a0
    80007c08:	41060633          	sub	a2,a2,a6
    80007c0c:	01065513          	srli	a0,a2,0x10
    80007c10:	00c79123          	sh	a2,2(a5)
    80007c14:	00157513          	andi	a0,a0,1
    80007c18:	ffe70713          	addi	a4,a4,-2
    80007c1c:	fd179ee3          	bne	a5,a7,80007bf8 <_ldtoa_r+0xdb4>
    80007c20:	00100613          	li	a2,1
    80007c24:	00090793          	mv	a5,s2
    80007c28:	04000713          	li	a4,64
    80007c2c:	15010513          	addi	a0,sp,336
    80007c30:	8b0fe0ef          	jal	ra,80005ce0 <_fwalk_reent+0x888>
    80007c34:	000c8593          	mv	a1,s9
    80007c38:	15010513          	addi	a0,sp,336
    80007c3c:	a5dfd0ef          	jal	ra,80005698 <_fwalk_reent+0x240>
    80007c40:	d41ff06f          	j	80007980 <_ldtoa_r+0xb3c>
    80007c44:	02013783          	ld	a5,32(sp)
    80007c48:	16010823          	sb	zero,368(sp)
    80007c4c:	000a0413          	mv	s0,s4
    80007c50:	0007a023          	sw	zero,0(a5)
    80007c54:	b25ff06f          	j	80007778 <_ldtoa_r+0x934>
    80007c58:	000c8793          	mv	a5,s9
    80007c5c:	12410713          	addi	a4,sp,292
    80007c60:	00278793          	addi	a5,a5,2
    80007c64:	fe079f23          	sh	zero,-2(a5)
    80007c68:	fee79ce3          	bne	a5,a4,80007c60 <_ldtoa_r+0xe1c>
    80007c6c:	d0dff06f          	j	80007978 <_ldtoa_r+0xb34>
    80007c70:	17010a13          	addi	s4,sp,368
    80007c74:	0e0c8c63          	beqz	s9,80007d6c <_ldtoa_r+0xf28>
    80007c78:	000235b7          	lui	a1,0x23
    80007c7c:	0c058593          	addi	a1,a1,192 # 230c0 <_start-0x7ffdcf5c>
    80007c80:	000a0513          	mv	a0,s4
    80007c84:	000024b7          	lui	s1,0x2
    80007c88:	43d020ef          	jal	ra,8000a8c4 <sprintf>
    80007c8c:	70f48493          	addi	s1,s1,1807 # 270f <_start-0x7fffd90d>
    80007c90:	8d9ff06f          	j	80007568 <_ldtoa_r+0x724>
    80007c94:	12810a93          	addi	s5,sp,296
    80007c98:	ca0ff06f          	j	80007138 <_ldtoa_r+0x2f4>
    80007c9c:	fff64783          	lbu	a5,-1(a2)
    80007ca0:	03800713          	li	a4,56
    80007ca4:	0ef77263          	bgeu	a4,a5,80007d88 <_ldtoa_r+0xf44>
    80007ca8:	03100793          	li	a5,49
    80007cac:	0014849b          	addiw	s1,s1,1
    80007cb0:	fef60fa3          	sb	a5,-1(a2)
    80007cb4:	8a1ff06f          	j	80007554 <_ldtoa_r+0x710>
    80007cb8:	0015859b          	addiw	a1,a1,1
    80007cbc:	00b60023          	sb	a1,0(a2)
    80007cc0:	895ff06f          	j	80007554 <_ldtoa_r+0x710>
    80007cc4:	09010793          	addi	a5,sp,144
    80007cc8:	0a210693          	addi	a3,sp,162
    80007ccc:	0080006f          	j	80007cd4 <_ldtoa_r+0xe90>
    80007cd0:	8ad78ae3          	beq	a5,a3,80007584 <_ldtoa_r+0x740>
    80007cd4:	0007d703          	lhu	a4,0(a5)
    80007cd8:	00278793          	addi	a5,a5,2
    80007cdc:	fe070ae3          	beqz	a4,80007cd0 <_ldtoa_r+0xe8c>
    80007ce0:	02013703          	ld	a4,32(sp)
    80007ce4:	000027b7          	lui	a5,0x2
    80007ce8:	70f78793          	addi	a5,a5,1807 # 270f <_start-0x7fffd90d>
    80007cec:	00f72023          	sw	a5,0(a4)
    80007cf0:	8e1ff06f          	j	800075d0 <_ldtoa_r+0x78c>
    80007cf4:	17010a13          	addi	s4,sp,368
    80007cf8:	000235b7          	lui	a1,0x23
    80007cfc:	0e058593          	addi	a1,a1,224 # 230e0 <_start-0x7ffdcf3c>
    80007d00:	000a0513          	mv	a0,s4
    80007d04:	000024b7          	lui	s1,0x2
    80007d08:	3bd020ef          	jal	ra,8000a8c4 <sprintf>
    80007d0c:	70f48493          	addi	s1,s1,1807 # 270f <_start-0x7fffd90d>
    80007d10:	859ff06f          	j	80007568 <_ldtoa_r+0x724>
    80007d14:	0d010593          	addi	a1,sp,208
    80007d18:	0b010513          	addi	a0,sp,176
    80007d1c:	02f13c23          	sd	a5,56(sp)
    80007d20:	979fd0ef          	jal	ra,80005698 <_fwalk_reent+0x240>
    80007d24:	170b0593          	addi	a1,s6,368
    80007d28:	0d010513          	addi	a0,sp,208
    80007d2c:	e75fd0ef          	jal	ra,80005ba0 <_fwalk_reent+0x748>
    80007d30:	03813783          	ld	a5,56(sp)
    80007d34:	fc051863          	bnez	a0,80007504 <_ldtoa_r+0x6c0>
    80007d38:	80044ee3          	bltz	s0,80007554 <_ldtoa_r+0x710>
    80007d3c:	ffe7c703          	lbu	a4,-2(a5)
    80007d40:	fd270613          	addi	a2,a4,-46
    80007d44:	00163613          	seqz	a2,a2
    80007d48:	fff64613          	not	a2,a2
    80007d4c:	00cc8633          	add	a2,s9,a2
    80007d50:	00064603          	lbu	a2,0(a2)
    80007d54:	00167613          	andi	a2,a2,1
    80007d58:	fe060e63          	beqz	a2,80007554 <_ldtoa_r+0x710>
    80007d5c:	07f77593          	andi	a1,a4,127
    80007d60:	ffe78613          	addi	a2,a5,-2
    80007d64:	00058713          	mv	a4,a1
    80007d68:	fb0ff06f          	j	80007518 <_ldtoa_r+0x6d4>
    80007d6c:	000235b7          	lui	a1,0x23
    80007d70:	0d058593          	addi	a1,a1,208 # 230d0 <_start-0x7ffdcf4c>
    80007d74:	000a0513          	mv	a0,s4
    80007d78:	000024b7          	lui	s1,0x2
    80007d7c:	349020ef          	jal	ra,8000a8c4 <sprintf>
    80007d80:	70f48493          	addi	s1,s1,1807 # 270f <_start-0x7fffd90d>
    80007d84:	fe4ff06f          	j	80007568 <_ldtoa_r+0x724>
    80007d88:	0017879b          	addiw	a5,a5,1
    80007d8c:	fef60fa3          	sb	a5,-1(a2)
    80007d90:	fc4ff06f          	j	80007554 <_ldtoa_r+0x710>
    80007d94:	11010413          	addi	s0,sp,272
    80007d98:	00040593          	mv	a1,s0
    80007d9c:	0b010513          	addi	a0,sp,176
    80007da0:	00004d37          	lui	s10,0x4
    80007da4:	d45fd0ef          	jal	ra,80005ae8 <_fwalk_reent+0x690>
    80007da8:	00000493          	li	s1,0
    80007dac:	12810a93          	addi	s5,sp,296
    80007db0:	10810913          	addi	s2,sp,264
    80007db4:	11210a13          	addi	s4,sp,274
    80007db8:	ffed0d13          	addi	s10,s10,-2 # 3ffe <_start-0x7fffc01e>
    80007dbc:	12815783          	lhu	a5,296(sp)
    80007dc0:	0077f793          	andi	a5,a5,7
    80007dc4:	0c079a63          	bnez	a5,80007e98 <_ldtoa_r+0x1054>
    80007dc8:	0f010713          	addi	a4,sp,240
    80007dcc:	00040793          	mv	a5,s0
    80007dd0:	0007d683          	lhu	a3,0(a5)
    80007dd4:	00278793          	addi	a5,a5,2
    80007dd8:	00270713          	addi	a4,a4,2
    80007ddc:	fed71f23          	sh	a3,-2(a4)
    80007de0:	ff5798e3          	bne	a5,s5,80007dd0 <_ldtoa_r+0xf8c>
    80007de4:	0f010513          	addi	a0,sp,240
    80007de8:	10011423          	sh	zero,264(sp)
    80007dec:	f40fd0ef          	jal	ra,8000552c <_fwalk_reent+0xd4>
    80007df0:	0f010513          	addi	a0,sp,240
    80007df4:	f38fd0ef          	jal	ra,8000552c <_fwalk_reent+0xd4>
    80007df8:	00000613          	li	a2,0
    80007dfc:	00090693          	mv	a3,s2
    80007e00:	000a8713          	mv	a4,s5
    80007e04:	0006d583          	lhu	a1,0(a3)
    80007e08:	00075783          	lhu	a5,0(a4)
    80007e0c:	ffe68693          	addi	a3,a3,-2
    80007e10:	ffe70713          	addi	a4,a4,-2
    80007e14:	00b787b3          	add	a5,a5,a1
    80007e18:	00c787b3          	add	a5,a5,a2
    80007e1c:	0107d613          	srli	a2,a5,0x10
    80007e20:	00f69123          	sh	a5,2(a3)
    80007e24:	00167613          	andi	a2,a2,1
    80007e28:	fd471ee3          	bne	a4,s4,80007e04 <_ldtoa_r+0xfc0>
    80007e2c:	0f215783          	lhu	a5,242(sp)
    80007e30:	0f415703          	lhu	a4,244(sp)
    80007e34:	0037879b          	addiw	a5,a5,3
    80007e38:	0ef11923          	sh	a5,242(sp)
    80007e3c:	02070063          	beqz	a4,80007e5c <_ldtoa_r+0x1018>
    80007e40:	0f010513          	addi	a0,sp,240
    80007e44:	ee8fd0ef          	jal	ra,8000552c <_fwalk_reent+0xd4>
    80007e48:	0f215783          	lhu	a5,242(sp)
    80007e4c:	0f415703          	lhu	a4,244(sp)
    80007e50:	0017879b          	addiw	a5,a5,1
    80007e54:	0ef11923          	sh	a5,242(sp)
    80007e58:	fe0714e3          	bnez	a4,80007e40 <_ldtoa_r+0xffc>
    80007e5c:	10815783          	lhu	a5,264(sp)
    80007e60:	02079c63          	bnez	a5,80007e98 <_ldtoa_r+0x1054>
    80007e64:	0f215783          	lhu	a5,242(sp)
    80007e68:	02fd6863          	bltu	s10,a5,80007e98 <_ldtoa_r+0x1054>
    80007e6c:	00040713          	mv	a4,s0
    80007e70:	0f010793          	addi	a5,sp,240
    80007e74:	0007d683          	lhu	a3,0(a5)
    80007e78:	00278793          	addi	a5,a5,2
    80007e7c:	00270713          	addi	a4,a4,2
    80007e80:	fed71f23          	sh	a3,-2(a4)
    80007e84:	ff2798e3          	bne	a5,s2,80007e74 <_ldtoa_r+0x1030>
    80007e88:	12011423          	sh	zero,296(sp)
    80007e8c:	fff4849b          	addiw	s1,s1,-1
    80007e90:	fd500793          	li	a5,-43
    80007e94:	f2f494e3          	bne	s1,a5,80007dbc <_ldtoa_r+0xf78>
    80007e98:	0b010593          	addi	a1,sp,176
    80007e9c:	00040513          	mv	a0,s0
    80007ea0:	ff8fd0ef          	jal	ra,80005698 <_fwalk_reent+0x240>
    80007ea4:	1b010913          	addi	s2,sp,432
    80007ea8:	98cff06f          	j	80007034 <_ldtoa_r+0x1f0>
    80007eac:	000c8793          	mv	a5,s9
    80007eb0:	0007d703          	lhu	a4,0(a5)
    80007eb4:	00278793          	addi	a5,a5,2
    80007eb8:	ac0714e3          	bnez	a4,80007980 <_ldtoa_r+0xb3c>
    80007ebc:	12210713          	addi	a4,sp,290
    80007ec0:	fee798e3          	bne	a5,a4,80007eb0 <_ldtoa_r+0x106c>
    80007ec4:	000c8793          	mv	a5,s9
    80007ec8:	0007d703          	lhu	a4,0(a5)
    80007ecc:	00278793          	addi	a5,a5,2
    80007ed0:	c20716e3          	bnez	a4,80007afc <_ldtoa_r+0xcb8>
    80007ed4:	12210713          	addi	a4,sp,290
    80007ed8:	fee798e3          	bne	a5,a4,80007ec8 <_ldtoa_r+0x1084>
    80007edc:	aa5ff06f          	j	80007980 <_ldtoa_r+0xb3c>
    80007ee0:	15410713          	addi	a4,sp,340
    80007ee4:	13410793          	addi	a5,sp,308
    80007ee8:	0007d503          	lhu	a0,0(a5)
    80007eec:	00075583          	lhu	a1,0(a4)
    80007ef0:	00278793          	addi	a5,a5,2
    80007ef4:	00270713          	addi	a4,a4,2
    80007ef8:	04b51863          	bne	a0,a1,80007f48 <_ldtoa_r+0x1104>
    80007efc:	14a10593          	addi	a1,sp,330
    80007f00:	feb794e3          	bne	a5,a1,80007ee8 <_ldtoa_r+0x10a4>
    80007f04:	13015703          	lhu	a4,304(sp)
    80007f08:	15015783          	lhu	a5,336(sp)
    80007f0c:	04f70863          	beq	a4,a5,80007f5c <_ldtoa_r+0x1118>
    80007f10:	000c8793          	mv	a5,s9
    80007f14:	12410713          	addi	a4,sp,292
    80007f18:	00278793          	addi	a5,a5,2
    80007f1c:	fe079f23          	sh	zero,-2(a5)
    80007f20:	fee79ce3          	bne	a5,a4,80007f18 <_ldtoa_r+0x10d4>
    80007f24:	a5dff06f          	j	80007980 <_ldtoa_r+0xb3c>
    80007f28:	000236b7          	lui	a3,0x23
    80007f2c:	000015b7          	lui	a1,0x1
    80007f30:	00023537          	lui	a0,0x23
    80007f34:	0f068693          	addi	a3,a3,240 # 230f0 <_start-0x7ffdcf2c>
    80007f38:	00000613          	li	a2,0
    80007f3c:	b6e58593          	addi	a1,a1,-1170 # b6e <_start-0x7ffff4ae>
    80007f40:	10850513          	addi	a0,a0,264 # 23108 <_start-0x7ffdcf14>
    80007f44:	6e8060ef          	jal	ra,8000e62c <__assert_func>
    80007f48:	06a5ee63          	bltu	a1,a0,80007fc4 <_ldtoa_r+0x1180>
    80007f4c:	00000593          	li	a1,0
    80007f50:	16810793          	addi	a5,sp,360
    80007f54:	14810713          	addi	a4,sp,328
    80007f58:	c89ff06f          	j	80007be0 <_ldtoa_r+0xd9c>
    80007f5c:	00068713          	mv	a4,a3
    80007f60:	00069663          	bnez	a3,80007f6c <_ldtoa_r+0x1128>
    80007f64:	15611783          	lh	a5,342(sp)
    80007f68:	0c07d863          	bgez	a5,80008038 <_ldtoa_r+0x11f4>
    80007f6c:	15210713          	addi	a4,sp,338
    80007f70:	16810793          	addi	a5,sp,360
    80007f74:	00075583          	lhu	a1,0(a4)
    80007f78:	10059663          	bnez	a1,80008084 <_ldtoa_r+0x1240>
    80007f7c:	00270713          	addi	a4,a4,2
    80007f80:	fee79ae3          	bne	a5,a4,80007f74 <_ldtoa_r+0x1130>
    80007f84:	14c11923          	sh	a2,338(sp)
    80007f88:	cadff06f          	j	80007c34 <_ldtoa_r+0xdf0>
    80007f8c:	00000613          	li	a2,0
    80007f90:	13210893          	addi	a7,sp,306
    80007f94:	0007d803          	lhu	a6,0(a5)
    80007f98:	00075503          	lhu	a0,0(a4)
    80007f9c:	ffe78793          	addi	a5,a5,-2
    80007fa0:	ffe70713          	addi	a4,a4,-2
    80007fa4:	01050533          	add	a0,a0,a6
    80007fa8:	00c50633          	add	a2,a0,a2
    80007fac:	01065513          	srli	a0,a2,0x10
    80007fb0:	00c79123          	sh	a2,2(a5)
    80007fb4:	00157613          	andi	a2,a0,1
    80007fb8:	fd171ee3          	bne	a4,a7,80007f94 <_ldtoa_r+0x1150>
    80007fbc:	00000613          	li	a2,0
    80007fc0:	c65ff06f          	j	80007c24 <_ldtoa_r+0xde0>
    80007fc4:	000a0613          	mv	a2,s4
    80007fc8:	15010713          	addi	a4,sp,336
    80007fcc:	16810793          	addi	a5,sp,360
    80007fd0:	00075583          	lhu	a1,0(a4)
    80007fd4:	00270713          	addi	a4,a4,2
    80007fd8:	00260613          	addi	a2,a2,2
    80007fdc:	feb61f23          	sh	a1,-2(a2)
    80007fe0:	fef718e3          	bne	a4,a5,80007fd0 <_ldtoa_r+0x118c>
    80007fe4:	18011423          	sh	zero,392(sp)
    80007fe8:	15010593          	addi	a1,sp,336
    80007fec:	13010613          	addi	a2,sp,304
    80007ff0:	14810713          	addi	a4,sp,328
    80007ff4:	00065503          	lhu	a0,0(a2)
    80007ff8:	00260613          	addi	a2,a2,2
    80007ffc:	00258593          	addi	a1,a1,2
    80008000:	fea59f23          	sh	a0,-2(a1)
    80008004:	fee618e3          	bne	a2,a4,80007ff4 <_ldtoa_r+0x11b0>
    80008008:	16011423          	sh	zero,360(sp)
    8000800c:	13010513          	addi	a0,sp,304
    80008010:	000a0613          	mv	a2,s4
    80008014:	18810593          	addi	a1,sp,392
    80008018:	00065803          	lhu	a6,0(a2)
    8000801c:	00260613          	addi	a2,a2,2
    80008020:	00250513          	addi	a0,a0,2
    80008024:	ff051f23          	sh	a6,-2(a0)
    80008028:	feb618e3          	bne	a2,a1,80008018 <_ldtoa_r+0x11d4>
    8000802c:	14011423          	sh	zero,328(sp)
    80008030:	00000593          	li	a1,0
    80008034:	badff06f          	j	80007be0 <_ldtoa_r+0xd9c>
    80008038:	16810693          	addi	a3,sp,360
    8000803c:	15210893          	addi	a7,sp,338
    80008040:	0006d783          	lhu	a5,0(a3)
    80008044:	00f7d613          	srli	a2,a5,0xf
    80008048:	00060463          	beqz	a2,80008050 <_ldtoa_r+0x120c>
    8000804c:	00176713          	ori	a4,a4,1
    80008050:	0017979b          	slliw	a5,a5,0x1
    80008054:	03079793          	slli	a5,a5,0x30
    80008058:	00277613          	andi	a2,a4,2
    8000805c:	0307d793          	srli	a5,a5,0x30
    80008060:	00060463          	beqz	a2,80008068 <_ldtoa_r+0x1224>
    80008064:	0017e793          	ori	a5,a5,1
    80008068:	0017171b          	slliw	a4,a4,0x1
    8000806c:	00f69023          	sh	a5,0(a3)
    80008070:	03071713          	slli	a4,a4,0x30
    80008074:	ffe68693          	addi	a3,a3,-2
    80008078:	03075713          	srli	a4,a4,0x30
    8000807c:	fd1692e3          	bne	a3,a7,80008040 <_ldtoa_r+0x11fc>
    80008080:	bb5ff06f          	j	80007c34 <_ldtoa_r+0xdf0>
    80008084:	00168613          	addi	a2,a3,1
    80008088:	14c11923          	sh	a2,338(sp)
    8000808c:	ba9ff06f          	j	80007c34 <_ldtoa_r+0xdf0>

0000000080008090 <_ldcheck>:
    80008090:	00053703          	ld	a4,0(a0)
    80008094:	00853783          	ld	a5,8(a0)
    80008098:	fc010113          	addi	sp,sp,-64
    8000809c:	00010513          	mv	a0,sp
    800080a0:	01010593          	addi	a1,sp,16
    800080a4:	00e13023          	sd	a4,0(sp)
    800080a8:	00f13423          	sd	a5,8(sp)
    800080ac:	02113c23          	sd	ra,56(sp)
    800080b0:	c21fe0ef          	jal	ra,80006cd0 <_fwalk_reent+0x1878>
    800080b4:	02215783          	lhu	a5,34(sp)
    800080b8:	00000513          	li	a0,0
    800080bc:	fff7c793          	not	a5,a5
    800080c0:	03179713          	slli	a4,a5,0x31
    800080c4:	02071063          	bnez	a4,800080e4 <_ldcheck+0x54>
    800080c8:	01010793          	addi	a5,sp,16
    800080cc:	02210693          	addi	a3,sp,34
    800080d0:	0007d703          	lhu	a4,0(a5)
    800080d4:	00278793          	addi	a5,a5,2
    800080d8:	00071c63          	bnez	a4,800080f0 <_ldcheck+0x60>
    800080dc:	fed79ae3          	bne	a5,a3,800080d0 <_ldcheck+0x40>
    800080e0:	00200513          	li	a0,2
    800080e4:	03813083          	ld	ra,56(sp)
    800080e8:	04010113          	addi	sp,sp,64
    800080ec:	00008067          	ret
    800080f0:	00100513          	li	a0,1
    800080f4:	ff1ff06f          	j	800080e4 <_ldcheck+0x54>

00000000800080f8 <__localeconv_l>:
    800080f8:	10050513          	addi	a0,a0,256
    800080fc:	00008067          	ret

0000000080008100 <_localeconv_r>:
    80008100:	00025537          	lui	a0,0x25
    80008104:	86850513          	addi	a0,a0,-1944 # 24868 <_start-0x7ffdb7b4>
    80008108:	00008067          	ret

000000008000810c <localeconv>:
    8000810c:	00025537          	lui	a0,0x25
    80008110:	86850513          	addi	a0,a0,-1944 # 24868 <_start-0x7ffdb7b4>
    80008114:	00008067          	ret

0000000080008118 <_setlocale_r>:
    80008118:	fe010113          	addi	sp,sp,-32
    8000811c:	00113c23          	sd	ra,24(sp)
    80008120:	00813823          	sd	s0,16(sp)
    80008124:	00913423          	sd	s1,8(sp)
    80008128:	02060c63          	beqz	a2,80008160 <_setlocale_r+0x48>
    8000812c:	000235b7          	lui	a1,0x23
    80008130:	3e058593          	addi	a1,a1,992 # 233e0 <_start-0x7ffdcc3c>
    80008134:	00060513          	mv	a0,a2
    80008138:	00060413          	mv	s0,a2
    8000813c:	d24f90ef          	jal	ra,80001660 <strcmp>
    80008140:	000234b7          	lui	s1,0x23
    80008144:	02051263          	bnez	a0,80008168 <_setlocale_r+0x50>
    80008148:	3d848513          	addi	a0,s1,984 # 233d8 <_start-0x7ffdcc44>
    8000814c:	01813083          	ld	ra,24(sp)
    80008150:	01013403          	ld	s0,16(sp)
    80008154:	00813483          	ld	s1,8(sp)
    80008158:	02010113          	addi	sp,sp,32
    8000815c:	00008067          	ret
    80008160:	000234b7          	lui	s1,0x23
    80008164:	fe5ff06f          	j	80008148 <_setlocale_r+0x30>
    80008168:	3d848593          	addi	a1,s1,984 # 233d8 <_start-0x7ffdcc44>
    8000816c:	00040513          	mv	a0,s0
    80008170:	cf0f90ef          	jal	ra,80001660 <strcmp>
    80008174:	fc050ae3          	beqz	a0,80008148 <_setlocale_r+0x30>
    80008178:	000235b7          	lui	a1,0x23
    8000817c:	ed058593          	addi	a1,a1,-304 # 22ed0 <_start-0x7ffdd14c>
    80008180:	00040513          	mv	a0,s0
    80008184:	cdcf90ef          	jal	ra,80001660 <strcmp>
    80008188:	fc0500e3          	beqz	a0,80008148 <_setlocale_r+0x30>
    8000818c:	00000513          	li	a0,0
    80008190:	fbdff06f          	j	8000814c <_setlocale_r+0x34>

0000000080008194 <__locale_mb_cur_max>:
    80008194:	000257b7          	lui	a5,0x25
    80008198:	8c87c503          	lbu	a0,-1848(a5) # 248c8 <_start-0x7ffdb754>
    8000819c:	00008067          	ret

00000000800081a0 <setlocale>:
    800081a0:	fe010113          	addi	sp,sp,-32
    800081a4:	00113c23          	sd	ra,24(sp)
    800081a8:	00813823          	sd	s0,16(sp)
    800081ac:	00913423          	sd	s1,8(sp)
    800081b0:	02058c63          	beqz	a1,800081e8 <setlocale+0x48>
    800081b4:	00058413          	mv	s0,a1
    800081b8:	000235b7          	lui	a1,0x23
    800081bc:	3e058593          	addi	a1,a1,992 # 233e0 <_start-0x7ffdcc3c>
    800081c0:	00040513          	mv	a0,s0
    800081c4:	c9cf90ef          	jal	ra,80001660 <strcmp>
    800081c8:	000234b7          	lui	s1,0x23
    800081cc:	02051263          	bnez	a0,800081f0 <setlocale+0x50>
    800081d0:	3d848513          	addi	a0,s1,984 # 233d8 <_start-0x7ffdcc44>
    800081d4:	01813083          	ld	ra,24(sp)
    800081d8:	01013403          	ld	s0,16(sp)
    800081dc:	00813483          	ld	s1,8(sp)
    800081e0:	02010113          	addi	sp,sp,32
    800081e4:	00008067          	ret
    800081e8:	000234b7          	lui	s1,0x23
    800081ec:	fe5ff06f          	j	800081d0 <setlocale+0x30>
    800081f0:	3d848593          	addi	a1,s1,984 # 233d8 <_start-0x7ffdcc44>
    800081f4:	00040513          	mv	a0,s0
    800081f8:	c68f90ef          	jal	ra,80001660 <strcmp>
    800081fc:	fc050ae3          	beqz	a0,800081d0 <setlocale+0x30>
    80008200:	000235b7          	lui	a1,0x23
    80008204:	ed058593          	addi	a1,a1,-304 # 22ed0 <_start-0x7ffdd14c>
    80008208:	00040513          	mv	a0,s0
    8000820c:	c54f90ef          	jal	ra,80001660 <strcmp>
    80008210:	fc0500e3          	beqz	a0,800081d0 <setlocale+0x30>
    80008214:	00000513          	li	a0,0
    80008218:	fbdff06f          	j	800081d4 <setlocale+0x34>

000000008000821c <__smakebuf_r>:
    8000821c:	0105d783          	lhu	a5,16(a1)
    80008220:	f6010113          	addi	sp,sp,-160
    80008224:	08813823          	sd	s0,144(sp)
    80008228:	08113c23          	sd	ra,152(sp)
    8000822c:	08913423          	sd	s1,136(sp)
    80008230:	09213023          	sd	s2,128(sp)
    80008234:	07313c23          	sd	s3,120(sp)
    80008238:	07413823          	sd	s4,112(sp)
    8000823c:	0027f713          	andi	a4,a5,2
    80008240:	00058413          	mv	s0,a1
    80008244:	02070c63          	beqz	a4,8000827c <__smakebuf_r+0x60>
    80008248:	07758793          	addi	a5,a1,119
    8000824c:	00f5b023          	sd	a5,0(a1)
    80008250:	00f5bc23          	sd	a5,24(a1)
    80008254:	00100793          	li	a5,1
    80008258:	02f5a023          	sw	a5,32(a1)
    8000825c:	09813083          	ld	ra,152(sp)
    80008260:	09013403          	ld	s0,144(sp)
    80008264:	08813483          	ld	s1,136(sp)
    80008268:	08013903          	ld	s2,128(sp)
    8000826c:	07813983          	ld	s3,120(sp)
    80008270:	07013a03          	ld	s4,112(sp)
    80008274:	0a010113          	addi	sp,sp,160
    80008278:	00008067          	ret
    8000827c:	01259583          	lh	a1,18(a1)
    80008280:	00050493          	mv	s1,a0
    80008284:	0805cc63          	bltz	a1,8000831c <__smakebuf_r+0x100>
    80008288:	00810613          	addi	a2,sp,8
    8000828c:	125060ef          	jal	ra,8000ebb0 <_fstat_r>
    80008290:	08054463          	bltz	a0,80008318 <__smakebuf_r+0xfc>
    80008294:	00c12903          	lw	s2,12(sp)
    80008298:	0000f7b7          	lui	a5,0xf
    8000829c:	40000a13          	li	s4,1024
    800082a0:	00f97933          	and	s2,s2,a5
    800082a4:	000027b7          	lui	a5,0x2
    800082a8:	40f90933          	sub	s2,s2,a5
    800082ac:	000017b7          	lui	a5,0x1
    800082b0:	00193913          	seqz	s2,s2
    800082b4:	80078993          	addi	s3,a5,-2048 # 800 <_start-0x7ffff81c>
    800082b8:	000a0593          	mv	a1,s4
    800082bc:	00048513          	mv	a0,s1
    800082c0:	1bc000ef          	jal	ra,8000847c <_malloc_r>
    800082c4:	01041783          	lh	a5,16(s0)
    800082c8:	06050e63          	beqz	a0,80008344 <__smakebuf_r+0x128>
    800082cc:	00014737          	lui	a4,0x14
    800082d0:	75070713          	addi	a4,a4,1872 # 14750 <_start-0x7ffeb8cc>
    800082d4:	04e4bc23          	sd	a4,88(s1)
    800082d8:	0807e793          	ori	a5,a5,128
    800082dc:	00f41823          	sh	a5,16(s0)
    800082e0:	00a43023          	sd	a0,0(s0)
    800082e4:	00a43c23          	sd	a0,24(s0)
    800082e8:	03442023          	sw	s4,32(s0)
    800082ec:	08091863          	bnez	s2,8000837c <__smakebuf_r+0x160>
    800082f0:	0137e7b3          	or	a5,a5,s3
    800082f4:	09813083          	ld	ra,152(sp)
    800082f8:	00f41823          	sh	a5,16(s0)
    800082fc:	09013403          	ld	s0,144(sp)
    80008300:	08813483          	ld	s1,136(sp)
    80008304:	08013903          	ld	s2,128(sp)
    80008308:	07813983          	ld	s3,120(sp)
    8000830c:	07013a03          	ld	s4,112(sp)
    80008310:	0a010113          	addi	sp,sp,160
    80008314:	00008067          	ret
    80008318:	01045783          	lhu	a5,16(s0)
    8000831c:	0807f793          	andi	a5,a5,128
    80008320:	00000913          	li	s2,0
    80008324:	04078663          	beqz	a5,80008370 <__smakebuf_r+0x154>
    80008328:	04000a13          	li	s4,64
    8000832c:	000a0593          	mv	a1,s4
    80008330:	00048513          	mv	a0,s1
    80008334:	148000ef          	jal	ra,8000847c <_malloc_r>
    80008338:	01041783          	lh	a5,16(s0)
    8000833c:	00000993          	li	s3,0
    80008340:	f80516e3          	bnez	a0,800082cc <__smakebuf_r+0xb0>
    80008344:	2007f713          	andi	a4,a5,512
    80008348:	f0071ae3          	bnez	a4,8000825c <__smakebuf_r+0x40>
    8000834c:	ffc7f793          	andi	a5,a5,-4
    80008350:	0027e793          	ori	a5,a5,2
    80008354:	07740713          	addi	a4,s0,119
    80008358:	00f41823          	sh	a5,16(s0)
    8000835c:	00100793          	li	a5,1
    80008360:	00e43023          	sd	a4,0(s0)
    80008364:	00e43c23          	sd	a4,24(s0)
    80008368:	02f42023          	sw	a5,32(s0)
    8000836c:	ef1ff06f          	j	8000825c <__smakebuf_r+0x40>
    80008370:	40000a13          	li	s4,1024
    80008374:	00000993          	li	s3,0
    80008378:	f41ff06f          	j	800082b8 <__smakebuf_r+0x9c>
    8000837c:	01241583          	lh	a1,18(s0)
    80008380:	00048513          	mv	a0,s1
    80008384:	091060ef          	jal	ra,8000ec14 <_isatty_r>
    80008388:	00051663          	bnez	a0,80008394 <__smakebuf_r+0x178>
    8000838c:	01041783          	lh	a5,16(s0)
    80008390:	f61ff06f          	j	800082f0 <__smakebuf_r+0xd4>
    80008394:	01045783          	lhu	a5,16(s0)
    80008398:	ffc7f793          	andi	a5,a5,-4
    8000839c:	0017e793          	ori	a5,a5,1
    800083a0:	0107979b          	slliw	a5,a5,0x10
    800083a4:	4107d79b          	sraiw	a5,a5,0x10
    800083a8:	f49ff06f          	j	800082f0 <__smakebuf_r+0xd4>

00000000800083ac <__swhatbuf_r>:
    800083ac:	f7010113          	addi	sp,sp,-144
    800083b0:	08813023          	sd	s0,128(sp)
    800083b4:	00058413          	mv	s0,a1
    800083b8:	01259583          	lh	a1,18(a1)
    800083bc:	06913c23          	sd	s1,120(sp)
    800083c0:	07213823          	sd	s2,112(sp)
    800083c4:	08113423          	sd	ra,136(sp)
    800083c8:	00060493          	mv	s1,a2
    800083cc:	00068913          	mv	s2,a3
    800083d0:	0405ca63          	bltz	a1,80008424 <__swhatbuf_r+0x78>
    800083d4:	00810613          	addi	a2,sp,8
    800083d8:	7d8060ef          	jal	ra,8000ebb0 <_fstat_r>
    800083dc:	04054463          	bltz	a0,80008424 <__swhatbuf_r+0x78>
    800083e0:	00c12783          	lw	a5,12(sp)
    800083e4:	0000f737          	lui	a4,0xf
    800083e8:	08813083          	ld	ra,136(sp)
    800083ec:	00e7f7b3          	and	a5,a5,a4
    800083f0:	00002737          	lui	a4,0x2
    800083f4:	40e787b3          	sub	a5,a5,a4
    800083f8:	08013403          	ld	s0,128(sp)
    800083fc:	0017b793          	seqz	a5,a5
    80008400:	00f92023          	sw	a5,0(s2)
    80008404:	40000793          	li	a5,1024
    80008408:	00f4b023          	sd	a5,0(s1)
    8000840c:	00001537          	lui	a0,0x1
    80008410:	07813483          	ld	s1,120(sp)
    80008414:	07013903          	ld	s2,112(sp)
    80008418:	80050513          	addi	a0,a0,-2048 # 800 <_start-0x7ffff81c>
    8000841c:	09010113          	addi	sp,sp,144
    80008420:	00008067          	ret
    80008424:	01041783          	lh	a5,16(s0)
    80008428:	00092023          	sw	zero,0(s2)
    8000842c:	0807f793          	andi	a5,a5,128
    80008430:	02078463          	beqz	a5,80008458 <__swhatbuf_r+0xac>
    80008434:	08813083          	ld	ra,136(sp)
    80008438:	08013403          	ld	s0,128(sp)
    8000843c:	04000793          	li	a5,64
    80008440:	00f4b023          	sd	a5,0(s1)
    80008444:	07013903          	ld	s2,112(sp)
    80008448:	07813483          	ld	s1,120(sp)
    8000844c:	00000513          	li	a0,0
    80008450:	09010113          	addi	sp,sp,144
    80008454:	00008067          	ret
    80008458:	08813083          	ld	ra,136(sp)
    8000845c:	08013403          	ld	s0,128(sp)
    80008460:	40000793          	li	a5,1024
    80008464:	00f4b023          	sd	a5,0(s1)
    80008468:	07013903          	ld	s2,112(sp)
    8000846c:	07813483          	ld	s1,120(sp)
    80008470:	00000513          	li	a0,0
    80008474:	09010113          	addi	sp,sp,144
    80008478:	00008067          	ret

000000008000847c <_malloc_r>:
    8000847c:	fa010113          	addi	sp,sp,-96
    80008480:	04913423          	sd	s1,72(sp)
    80008484:	05213023          	sd	s2,64(sp)
    80008488:	04113c23          	sd	ra,88(sp)
    8000848c:	04813823          	sd	s0,80(sp)
    80008490:	03313c23          	sd	s3,56(sp)
    80008494:	03413823          	sd	s4,48(sp)
    80008498:	03513423          	sd	s5,40(sp)
    8000849c:	03613023          	sd	s6,32(sp)
    800084a0:	01713c23          	sd	s7,24(sp)
    800084a4:	01813823          	sd	s8,16(sp)
    800084a8:	01913423          	sd	s9,8(sp)
    800084ac:	01758493          	addi	s1,a1,23
    800084b0:	02e00793          	li	a5,46
    800084b4:	00050913          	mv	s2,a0
    800084b8:	0697e663          	bltu	a5,s1,80008524 <_malloc_r+0xa8>
    800084bc:	02000793          	li	a5,32
    800084c0:	26b7e263          	bltu	a5,a1,80008724 <_malloc_r+0x2a8>
    800084c4:	229000ef          	jal	ra,80008eec <__malloc_lock>
    800084c8:	02000493          	li	s1,32
    800084cc:	05000793          	li	a5,80
    800084d0:	00400613          	li	a2,4
    800084d4:	000259b7          	lui	s3,0x25
    800084d8:	91098993          	addi	s3,s3,-1776 # 24910 <_start-0x7ffdb70c>
    800084dc:	00f987b3          	add	a5,s3,a5
    800084e0:	0087b403          	ld	s0,8(a5)
    800084e4:	ff078713          	addi	a4,a5,-16
    800084e8:	26e40e63          	beq	s0,a4,80008764 <_malloc_r+0x2e8>
    800084ec:	00843783          	ld	a5,8(s0)
    800084f0:	01843683          	ld	a3,24(s0)
    800084f4:	01043603          	ld	a2,16(s0)
    800084f8:	ffc7f793          	andi	a5,a5,-4
    800084fc:	00f407b3          	add	a5,s0,a5
    80008500:	0087b703          	ld	a4,8(a5)
    80008504:	00d63c23          	sd	a3,24(a2)
    80008508:	00c6b823          	sd	a2,16(a3)
    8000850c:	00176713          	ori	a4,a4,1
    80008510:	00090513          	mv	a0,s2
    80008514:	00e7b423          	sd	a4,8(a5)
    80008518:	1d9000ef          	jal	ra,80008ef0 <__malloc_unlock>
    8000851c:	01040513          	addi	a0,s0,16
    80008520:	2100006f          	j	80008730 <_malloc_r+0x2b4>
    80008524:	800007b7          	lui	a5,0x80000
    80008528:	ff04f493          	andi	s1,s1,-16
    8000852c:	fff7c793          	not	a5,a5
    80008530:	1e97ea63          	bltu	a5,s1,80008724 <_malloc_r+0x2a8>
    80008534:	1eb4e863          	bltu	s1,a1,80008724 <_malloc_r+0x2a8>
    80008538:	1b5000ef          	jal	ra,80008eec <__malloc_lock>
    8000853c:	1f700793          	li	a5,503
    80008540:	4e97f263          	bgeu	a5,s1,80008a24 <_malloc_r+0x5a8>
    80008544:	0094d793          	srli	a5,s1,0x9
    80008548:	34078863          	beqz	a5,80008898 <_malloc_r+0x41c>
    8000854c:	00400713          	li	a4,4
    80008550:	40f76863          	bltu	a4,a5,80008960 <_malloc_r+0x4e4>
    80008554:	0064d793          	srli	a5,s1,0x6
    80008558:	0397861b          	addiw	a2,a5,57
    8000855c:	0016169b          	slliw	a3,a2,0x1
    80008560:	0387851b          	addiw	a0,a5,56
    80008564:	00369693          	slli	a3,a3,0x3
    80008568:	000259b7          	lui	s3,0x25
    8000856c:	91098993          	addi	s3,s3,-1776 # 24910 <_start-0x7ffdb70c>
    80008570:	00d986b3          	add	a3,s3,a3
    80008574:	0086b403          	ld	s0,8(a3)
    80008578:	ff068693          	addi	a3,a3,-16
    8000857c:	1e868a63          	beq	a3,s0,80008770 <_malloc_r+0x2f4>
    80008580:	01f00593          	li	a1,31
    80008584:	0100006f          	j	80008594 <_malloc_r+0x118>
    80008588:	36075463          	bgez	a4,800088f0 <_malloc_r+0x474>
    8000858c:	01843403          	ld	s0,24(s0)
    80008590:	1e868063          	beq	a3,s0,80008770 <_malloc_r+0x2f4>
    80008594:	00843783          	ld	a5,8(s0)
    80008598:	ffc7f793          	andi	a5,a5,-4
    8000859c:	40978733          	sub	a4,a5,s1
    800085a0:	fee5d4e3          	bge	a1,a4,80008588 <_malloc_r+0x10c>
    800085a4:	0209b403          	ld	s0,32(s3)
    800085a8:	00025837          	lui	a6,0x25
    800085ac:	92080813          	addi	a6,a6,-1760 # 24920 <_start-0x7ffdb6fc>
    800085b0:	00050613          	mv	a2,a0
    800085b4:	1d041663          	bne	s0,a6,80008780 <_malloc_r+0x304>
    800085b8:	0089b783          	ld	a5,8(s3)
    800085bc:	4026571b          	sraiw	a4,a2,0x2
    800085c0:	00100593          	li	a1,1
    800085c4:	00e595b3          	sll	a1,a1,a4
    800085c8:	22b7fa63          	bgeu	a5,a1,800087fc <_malloc_r+0x380>
    800085cc:	0109b403          	ld	s0,16(s3)
    800085d0:	00843a03          	ld	s4,8(s0)
    800085d4:	ffca7a93          	andi	s5,s4,-4
    800085d8:	009ae863          	bltu	s5,s1,800085e8 <_malloc_r+0x16c>
    800085dc:	409a87b3          	sub	a5,s5,s1
    800085e0:	01f00713          	li	a4,31
    800085e4:	2ef74263          	blt	a4,a5,800088c8 <_malloc_r+0x44c>
    800085e8:	8c01ba03          	ld	s4,-1856(gp) # 800151e0 <__malloc_top_pad>
    800085ec:	8481b703          	ld	a4,-1976(gp) # 80015168 <__malloc_sbrk_base>
    800085f0:	fff00793          	li	a5,-1
    800085f4:	01540c33          	add	s8,s0,s5
    800085f8:	01448a33          	add	s4,s1,s4
    800085fc:	4ef70863          	beq	a4,a5,80008aec <_malloc_r+0x670>
    80008600:	000017b7          	lui	a5,0x1
    80008604:	01f78793          	addi	a5,a5,31 # 101f <_start-0x7fffeffd>
    80008608:	00fa0a33          	add	s4,s4,a5
    8000860c:	fffff7b7          	lui	a5,0xfffff
    80008610:	00fa7a33          	and	s4,s4,a5
    80008614:	000a0593          	mv	a1,s4
    80008618:	00090513          	mv	a0,s2
    8000861c:	124020ef          	jal	ra,8000a740 <_sbrk_r>
    80008620:	fff00793          	li	a5,-1
    80008624:	00050b13          	mv	s6,a0
    80008628:	42f50863          	beq	a0,a5,80008a58 <_malloc_r+0x5dc>
    8000862c:	43856463          	bltu	a0,s8,80008a54 <_malloc_r+0x5d8>
    80008630:	00028bb7          	lui	s7,0x28
    80008634:	a28b8b93          	addi	s7,s7,-1496 # 27a28 <_start-0x7ffd85f4>
    80008638:	000ba703          	lw	a4,0(s7)
    8000863c:	014707bb          	addw	a5,a4,s4
    80008640:	00fba023          	sw	a5,0(s7)
    80008644:	00078693          	mv	a3,a5
    80008648:	54ac0c63          	beq	s8,a0,80008ba0 <_malloc_r+0x724>
    8000864c:	8481b703          	ld	a4,-1976(gp) # 80015168 <__malloc_sbrk_base>
    80008650:	fff00793          	li	a5,-1
    80008654:	56f70463          	beq	a4,a5,80008bbc <_malloc_r+0x740>
    80008658:	418b07b3          	sub	a5,s6,s8
    8000865c:	00d787bb          	addw	a5,a5,a3
    80008660:	00fba023          	sw	a5,0(s7)
    80008664:	00fb7c13          	andi	s8,s6,15
    80008668:	4a0c0463          	beqz	s8,80008b10 <_malloc_r+0x694>
    8000866c:	00001737          	lui	a4,0x1
    80008670:	418b0b33          	sub	s6,s6,s8
    80008674:	01070793          	addi	a5,a4,16 # 1010 <_start-0x7ffff00c>
    80008678:	010b0b13          	addi	s6,s6,16
    8000867c:	418787b3          	sub	a5,a5,s8
    80008680:	014b0cb3          	add	s9,s6,s4
    80008684:	41978a33          	sub	s4,a5,s9
    80008688:	fff70713          	addi	a4,a4,-1
    8000868c:	00ea7a33          	and	s4,s4,a4
    80008690:	000a0593          	mv	a1,s4
    80008694:	00090513          	mv	a0,s2
    80008698:	0a8020ef          	jal	ra,8000a740 <_sbrk_r>
    8000869c:	fff00793          	li	a5,-1
    800086a0:	56f50c63          	beq	a0,a5,80008c18 <_malloc_r+0x79c>
    800086a4:	41650533          	sub	a0,a0,s6
    800086a8:	000a071b          	sext.w	a4,s4
    800086ac:	01450a33          	add	s4,a0,s4
    800086b0:	000ba783          	lw	a5,0(s7)
    800086b4:	0169b823          	sd	s6,16(s3)
    800086b8:	001a6a13          	ori	s4,s4,1
    800086bc:	00e787bb          	addw	a5,a5,a4
    800086c0:	00fba023          	sw	a5,0(s7)
    800086c4:	014b3423          	sd	s4,8(s6)
    800086c8:	4f340e63          	beq	s0,s3,80008bc4 <_malloc_r+0x748>
    800086cc:	01f00613          	li	a2,31
    800086d0:	4f567e63          	bgeu	a2,s5,80008bcc <_malloc_r+0x750>
    800086d4:	00843683          	ld	a3,8(s0)
    800086d8:	fe8a8713          	addi	a4,s5,-24
    800086dc:	ff077713          	andi	a4,a4,-16
    800086e0:	0016f693          	andi	a3,a3,1
    800086e4:	00e6e6b3          	or	a3,a3,a4
    800086e8:	00d43423          	sd	a3,8(s0)
    800086ec:	00900593          	li	a1,9
    800086f0:	00e406b3          	add	a3,s0,a4
    800086f4:	00b6b423          	sd	a1,8(a3)
    800086f8:	00b6b823          	sd	a1,16(a3)
    800086fc:	52e66863          	bltu	a2,a4,80008c2c <_malloc_r+0x7b0>
    80008700:	008b3a03          	ld	s4,8(s6)
    80008704:	000b0413          	mv	s0,s6
    80008708:	8b81b683          	ld	a3,-1864(gp) # 800151d8 <__malloc_max_sbrked_mem>
    8000870c:	00f6f463          	bgeu	a3,a5,80008714 <_malloc_r+0x298>
    80008710:	8af1bc23          	sd	a5,-1864(gp) # 800151d8 <__malloc_max_sbrked_mem>
    80008714:	8b01b683          	ld	a3,-1872(gp) # 800151d0 <__malloc_max_total_mem>
    80008718:	34f6f463          	bgeu	a3,a5,80008a60 <_malloc_r+0x5e4>
    8000871c:	8af1b823          	sd	a5,-1872(gp) # 800151d0 <__malloc_max_total_mem>
    80008720:	3400006f          	j	80008a60 <_malloc_r+0x5e4>
    80008724:	00c00793          	li	a5,12
    80008728:	00f92023          	sw	a5,0(s2)
    8000872c:	00000513          	li	a0,0
    80008730:	05813083          	ld	ra,88(sp)
    80008734:	05013403          	ld	s0,80(sp)
    80008738:	04813483          	ld	s1,72(sp)
    8000873c:	04013903          	ld	s2,64(sp)
    80008740:	03813983          	ld	s3,56(sp)
    80008744:	03013a03          	ld	s4,48(sp)
    80008748:	02813a83          	ld	s5,40(sp)
    8000874c:	02013b03          	ld	s6,32(sp)
    80008750:	01813b83          	ld	s7,24(sp)
    80008754:	01013c03          	ld	s8,16(sp)
    80008758:	00813c83          	ld	s9,8(sp)
    8000875c:	06010113          	addi	sp,sp,96
    80008760:	00008067          	ret
    80008764:	0187b403          	ld	s0,24(a5) # fffffffffffff018 <t0.2038+0xffffffff7ffc23d0>
    80008768:	0026061b          	addiw	a2,a2,2
    8000876c:	d88790e3          	bne	a5,s0,800084ec <_malloc_r+0x70>
    80008770:	0209b403          	ld	s0,32(s3)
    80008774:	00025837          	lui	a6,0x25
    80008778:	92080813          	addi	a6,a6,-1760 # 24920 <_start-0x7ffdb6fc>
    8000877c:	e3040ee3          	beq	s0,a6,800085b8 <_malloc_r+0x13c>
    80008780:	00843783          	ld	a5,8(s0)
    80008784:	01f00693          	li	a3,31
    80008788:	ffc7f793          	andi	a5,a5,-4
    8000878c:	40978733          	sub	a4,a5,s1
    80008790:	24e6cc63          	blt	a3,a4,800089e8 <_malloc_r+0x56c>
    80008794:	0309b423          	sd	a6,40(s3)
    80008798:	0309b023          	sd	a6,32(s3)
    8000879c:	10075663          	bgez	a4,800088a8 <_malloc_r+0x42c>
    800087a0:	1ff00713          	li	a4,511
    800087a4:	14f76c63          	bltu	a4,a5,800088fc <_malloc_r+0x480>
    800087a8:	0037d793          	srli	a5,a5,0x3
    800087ac:	0017871b          	addiw	a4,a5,1
    800087b0:	0017171b          	slliw	a4,a4,0x1
    800087b4:	00371713          	slli	a4,a4,0x3
    800087b8:	0089b503          	ld	a0,8(s3)
    800087bc:	00e98733          	add	a4,s3,a4
    800087c0:	00073583          	ld	a1,0(a4)
    800087c4:	4027d69b          	sraiw	a3,a5,0x2
    800087c8:	00100793          	li	a5,1
    800087cc:	00d797b3          	sll	a5,a5,a3
    800087d0:	00a7e7b3          	or	a5,a5,a0
    800087d4:	ff070693          	addi	a3,a4,-16
    800087d8:	00d43c23          	sd	a3,24(s0)
    800087dc:	00b43823          	sd	a1,16(s0)
    800087e0:	00f9b423          	sd	a5,8(s3)
    800087e4:	00873023          	sd	s0,0(a4)
    800087e8:	0085bc23          	sd	s0,24(a1)
    800087ec:	4026571b          	sraiw	a4,a2,0x2
    800087f0:	00100593          	li	a1,1
    800087f4:	00e595b3          	sll	a1,a1,a4
    800087f8:	dcb7eae3          	bltu	a5,a1,800085cc <_malloc_r+0x150>
    800087fc:	00f5f733          	and	a4,a1,a5
    80008800:	02071463          	bnez	a4,80008828 <_malloc_r+0x3ac>
    80008804:	00159593          	slli	a1,a1,0x1
    80008808:	ffc67613          	andi	a2,a2,-4
    8000880c:	00f5f733          	and	a4,a1,a5
    80008810:	0046061b          	addiw	a2,a2,4
    80008814:	00071a63          	bnez	a4,80008828 <_malloc_r+0x3ac>
    80008818:	00159593          	slli	a1,a1,0x1
    8000881c:	00f5f733          	and	a4,a1,a5
    80008820:	0046061b          	addiw	a2,a2,4
    80008824:	fe070ae3          	beqz	a4,80008818 <_malloc_r+0x39c>
    80008828:	01f00893          	li	a7,31
    8000882c:	0016031b          	addiw	t1,a2,1
    80008830:	0013131b          	slliw	t1,t1,0x1
    80008834:	00331313          	slli	t1,t1,0x3
    80008838:	ff030313          	addi	t1,t1,-16
    8000883c:	00698333          	add	t1,s3,t1
    80008840:	00030513          	mv	a0,t1
    80008844:	01853783          	ld	a5,24(a0)
    80008848:	00060e13          	mv	t3,a2
    8000884c:	12f50e63          	beq	a0,a5,80008988 <_malloc_r+0x50c>
    80008850:	0087b703          	ld	a4,8(a5)
    80008854:	00078413          	mv	s0,a5
    80008858:	0187b783          	ld	a5,24(a5)
    8000885c:	ffc77713          	andi	a4,a4,-4
    80008860:	409706b3          	sub	a3,a4,s1
    80008864:	12d8ce63          	blt	a7,a3,800089a0 <_malloc_r+0x524>
    80008868:	fe06c2e3          	bltz	a3,8000884c <_malloc_r+0x3d0>
    8000886c:	00e40733          	add	a4,s0,a4
    80008870:	00873683          	ld	a3,8(a4)
    80008874:	01043603          	ld	a2,16(s0)
    80008878:	00090513          	mv	a0,s2
    8000887c:	0016e693          	ori	a3,a3,1
    80008880:	00d73423          	sd	a3,8(a4)
    80008884:	00f63c23          	sd	a5,24(a2)
    80008888:	00c7b823          	sd	a2,16(a5)
    8000888c:	664000ef          	jal	ra,80008ef0 <__malloc_unlock>
    80008890:	01040513          	addi	a0,s0,16
    80008894:	e9dff06f          	j	80008730 <_malloc_r+0x2b4>
    80008898:	40000693          	li	a3,1024
    8000889c:	04000613          	li	a2,64
    800088a0:	03f00513          	li	a0,63
    800088a4:	cc5ff06f          	j	80008568 <_malloc_r+0xec>
    800088a8:	00f407b3          	add	a5,s0,a5
    800088ac:	0087b703          	ld	a4,8(a5)
    800088b0:	00090513          	mv	a0,s2
    800088b4:	00176713          	ori	a4,a4,1
    800088b8:	00e7b423          	sd	a4,8(a5)
    800088bc:	634000ef          	jal	ra,80008ef0 <__malloc_unlock>
    800088c0:	01040513          	addi	a0,s0,16
    800088c4:	e6dff06f          	j	80008730 <_malloc_r+0x2b4>
    800088c8:	0014e713          	ori	a4,s1,1
    800088cc:	00e43423          	sd	a4,8(s0)
    800088d0:	009404b3          	add	s1,s0,s1
    800088d4:	0099b823          	sd	s1,16(s3)
    800088d8:	0017e793          	ori	a5,a5,1
    800088dc:	00090513          	mv	a0,s2
    800088e0:	00f4b423          	sd	a5,8(s1)
    800088e4:	60c000ef          	jal	ra,80008ef0 <__malloc_unlock>
    800088e8:	01040513          	addi	a0,s0,16
    800088ec:	e45ff06f          	j	80008730 <_malloc_r+0x2b4>
    800088f0:	01843683          	ld	a3,24(s0)
    800088f4:	01043603          	ld	a2,16(s0)
    800088f8:	c05ff06f          	j	800084fc <_malloc_r+0x80>
    800088fc:	0097d713          	srli	a4,a5,0x9
    80008900:	00400693          	li	a3,4
    80008904:	12e6fc63          	bgeu	a3,a4,80008a3c <_malloc_r+0x5c0>
    80008908:	01400693          	li	a3,20
    8000890c:	22e6ee63          	bltu	a3,a4,80008b48 <_malloc_r+0x6cc>
    80008910:	05c7059b          	addiw	a1,a4,92
    80008914:	0015959b          	slliw	a1,a1,0x1
    80008918:	05b7069b          	addiw	a3,a4,91
    8000891c:	00359593          	slli	a1,a1,0x3
    80008920:	00b985b3          	add	a1,s3,a1
    80008924:	0005b703          	ld	a4,0(a1)
    80008928:	ff058593          	addi	a1,a1,-16
    8000892c:	1ce58463          	beq	a1,a4,80008af4 <_malloc_r+0x678>
    80008930:	00873683          	ld	a3,8(a4)
    80008934:	ffc6f693          	andi	a3,a3,-4
    80008938:	00d7f663          	bgeu	a5,a3,80008944 <_malloc_r+0x4c8>
    8000893c:	01073703          	ld	a4,16(a4)
    80008940:	fee598e3          	bne	a1,a4,80008930 <_malloc_r+0x4b4>
    80008944:	01873583          	ld	a1,24(a4)
    80008948:	0089b783          	ld	a5,8(s3)
    8000894c:	00b43c23          	sd	a1,24(s0)
    80008950:	00e43823          	sd	a4,16(s0)
    80008954:	0085b823          	sd	s0,16(a1)
    80008958:	00873c23          	sd	s0,24(a4)
    8000895c:	e91ff06f          	j	800087ec <_malloc_r+0x370>
    80008960:	01400713          	li	a4,20
    80008964:	12f77063          	bgeu	a4,a5,80008a84 <_malloc_r+0x608>
    80008968:	05400713          	li	a4,84
    8000896c:	1ef76e63          	bltu	a4,a5,80008b68 <_malloc_r+0x6ec>
    80008970:	00c4d793          	srli	a5,s1,0xc
    80008974:	06f7861b          	addiw	a2,a5,111
    80008978:	0016169b          	slliw	a3,a2,0x1
    8000897c:	06e7851b          	addiw	a0,a5,110
    80008980:	00369693          	slli	a3,a3,0x3
    80008984:	be5ff06f          	j	80008568 <_malloc_r+0xec>
    80008988:	001e0e1b          	addiw	t3,t3,1
    8000898c:	003e7793          	andi	a5,t3,3
    80008990:	01050513          	addi	a0,a0,16
    80008994:	10078863          	beqz	a5,80008aa4 <_malloc_r+0x628>
    80008998:	01853783          	ld	a5,24(a0)
    8000899c:	eb1ff06f          	j	8000884c <_malloc_r+0x3d0>
    800089a0:	01043603          	ld	a2,16(s0)
    800089a4:	0014e593          	ori	a1,s1,1
    800089a8:	00b43423          	sd	a1,8(s0)
    800089ac:	00f63c23          	sd	a5,24(a2)
    800089b0:	00c7b823          	sd	a2,16(a5)
    800089b4:	009404b3          	add	s1,s0,s1
    800089b8:	0299b423          	sd	s1,40(s3)
    800089bc:	0299b023          	sd	s1,32(s3)
    800089c0:	0016e793          	ori	a5,a3,1
    800089c4:	0104bc23          	sd	a6,24(s1)
    800089c8:	0104b823          	sd	a6,16(s1)
    800089cc:	00f4b423          	sd	a5,8(s1)
    800089d0:	00e40733          	add	a4,s0,a4
    800089d4:	00090513          	mv	a0,s2
    800089d8:	00d73023          	sd	a3,0(a4)
    800089dc:	514000ef          	jal	ra,80008ef0 <__malloc_unlock>
    800089e0:	01040513          	addi	a0,s0,16
    800089e4:	d4dff06f          	j	80008730 <_malloc_r+0x2b4>
    800089e8:	0014e693          	ori	a3,s1,1
    800089ec:	00d43423          	sd	a3,8(s0)
    800089f0:	009404b3          	add	s1,s0,s1
    800089f4:	0299b423          	sd	s1,40(s3)
    800089f8:	0299b023          	sd	s1,32(s3)
    800089fc:	00176693          	ori	a3,a4,1
    80008a00:	0104bc23          	sd	a6,24(s1)
    80008a04:	0104b823          	sd	a6,16(s1)
    80008a08:	00d4b423          	sd	a3,8(s1)
    80008a0c:	00f407b3          	add	a5,s0,a5
    80008a10:	00090513          	mv	a0,s2
    80008a14:	00e7b023          	sd	a4,0(a5)
    80008a18:	4d8000ef          	jal	ra,80008ef0 <__malloc_unlock>
    80008a1c:	01040513          	addi	a0,s0,16
    80008a20:	d11ff06f          	j	80008730 <_malloc_r+0x2b4>
    80008a24:	0034d613          	srli	a2,s1,0x3
    80008a28:	0016079b          	addiw	a5,a2,1
    80008a2c:	0017979b          	slliw	a5,a5,0x1
    80008a30:	0006061b          	sext.w	a2,a2
    80008a34:	00379793          	slli	a5,a5,0x3
    80008a38:	a9dff06f          	j	800084d4 <_malloc_r+0x58>
    80008a3c:	0067d713          	srli	a4,a5,0x6
    80008a40:	0397059b          	addiw	a1,a4,57
    80008a44:	0015959b          	slliw	a1,a1,0x1
    80008a48:	0387069b          	addiw	a3,a4,56
    80008a4c:	00359593          	slli	a1,a1,0x3
    80008a50:	ed1ff06f          	j	80008920 <_malloc_r+0x4a4>
    80008a54:	13340a63          	beq	s0,s3,80008b88 <_malloc_r+0x70c>
    80008a58:	0109b403          	ld	s0,16(s3)
    80008a5c:	00843a03          	ld	s4,8(s0)
    80008a60:	ffca7a13          	andi	s4,s4,-4
    80008a64:	409a07b3          	sub	a5,s4,s1
    80008a68:	009a6663          	bltu	s4,s1,80008a74 <_malloc_r+0x5f8>
    80008a6c:	01f00713          	li	a4,31
    80008a70:	e4f74ce3          	blt	a4,a5,800088c8 <_malloc_r+0x44c>
    80008a74:	00090513          	mv	a0,s2
    80008a78:	478000ef          	jal	ra,80008ef0 <__malloc_unlock>
    80008a7c:	00000513          	li	a0,0
    80008a80:	cb1ff06f          	j	80008730 <_malloc_r+0x2b4>
    80008a84:	05c7861b          	addiw	a2,a5,92
    80008a88:	0016169b          	slliw	a3,a2,0x1
    80008a8c:	05b7851b          	addiw	a0,a5,91
    80008a90:	00369693          	slli	a3,a3,0x3
    80008a94:	ad5ff06f          	j	80008568 <_malloc_r+0xec>
    80008a98:	01033783          	ld	a5,16(t1)
    80008a9c:	fff6061b          	addiw	a2,a2,-1
    80008aa0:	1e679263          	bne	a5,t1,80008c84 <_malloc_r+0x808>
    80008aa4:	00367793          	andi	a5,a2,3
    80008aa8:	ff030313          	addi	t1,t1,-16
    80008aac:	fe0796e3          	bnez	a5,80008a98 <_malloc_r+0x61c>
    80008ab0:	0089b703          	ld	a4,8(s3)
    80008ab4:	fff5c793          	not	a5,a1
    80008ab8:	00e7f7b3          	and	a5,a5,a4
    80008abc:	00f9b423          	sd	a5,8(s3)
    80008ac0:	00159593          	slli	a1,a1,0x1
    80008ac4:	b0b7e4e3          	bltu	a5,a1,800085cc <_malloc_r+0x150>
    80008ac8:	b00582e3          	beqz	a1,800085cc <_malloc_r+0x150>
    80008acc:	00f5f733          	and	a4,a1,a5
    80008ad0:	00071a63          	bnez	a4,80008ae4 <_malloc_r+0x668>
    80008ad4:	00159593          	slli	a1,a1,0x1
    80008ad8:	00f5f733          	and	a4,a1,a5
    80008adc:	004e0e1b          	addiw	t3,t3,4
    80008ae0:	fe070ae3          	beqz	a4,80008ad4 <_malloc_r+0x658>
    80008ae4:	000e0613          	mv	a2,t3
    80008ae8:	d45ff06f          	j	8000882c <_malloc_r+0x3b0>
    80008aec:	020a0a13          	addi	s4,s4,32 # fffffffffffff020 <t0.2038+0xffffffff7ffc23d8>
    80008af0:	b25ff06f          	j	80008614 <_malloc_r+0x198>
    80008af4:	0089b503          	ld	a0,8(s3)
    80008af8:	4026d69b          	sraiw	a3,a3,0x2
    80008afc:	00100793          	li	a5,1
    80008b00:	00d797b3          	sll	a5,a5,a3
    80008b04:	00a7e7b3          	or	a5,a5,a0
    80008b08:	00f9b423          	sd	a5,8(s3)
    80008b0c:	e41ff06f          	j	8000894c <_malloc_r+0x4d0>
    80008b10:	014b0c33          	add	s8,s6,s4
    80008b14:	41800c33          	neg	s8,s8
    80008b18:	034c1c13          	slli	s8,s8,0x34
    80008b1c:	034c5c13          	srli	s8,s8,0x34
    80008b20:	000c0593          	mv	a1,s8
    80008b24:	00090513          	mv	a0,s2
    80008b28:	419010ef          	jal	ra,8000a740 <_sbrk_r>
    80008b2c:	fff00793          	li	a5,-1
    80008b30:	00000713          	li	a4,0
    80008b34:	b6f50ee3          	beq	a0,a5,800086b0 <_malloc_r+0x234>
    80008b38:	41650533          	sub	a0,a0,s6
    80008b3c:	000c071b          	sext.w	a4,s8
    80008b40:	01850a33          	add	s4,a0,s8
    80008b44:	b6dff06f          	j	800086b0 <_malloc_r+0x234>
    80008b48:	05400693          	li	a3,84
    80008b4c:	08e6e663          	bltu	a3,a4,80008bd8 <_malloc_r+0x75c>
    80008b50:	00c7d713          	srli	a4,a5,0xc
    80008b54:	06f7059b          	addiw	a1,a4,111
    80008b58:	0015959b          	slliw	a1,a1,0x1
    80008b5c:	06e7069b          	addiw	a3,a4,110
    80008b60:	00359593          	slli	a1,a1,0x3
    80008b64:	dbdff06f          	j	80008920 <_malloc_r+0x4a4>
    80008b68:	15400713          	li	a4,340
    80008b6c:	08f76663          	bltu	a4,a5,80008bf8 <_malloc_r+0x77c>
    80008b70:	00f4d793          	srli	a5,s1,0xf
    80008b74:	0787861b          	addiw	a2,a5,120
    80008b78:	0016169b          	slliw	a3,a2,0x1
    80008b7c:	0777851b          	addiw	a0,a5,119
    80008b80:	00369693          	slli	a3,a3,0x3
    80008b84:	9e5ff06f          	j	80008568 <_malloc_r+0xec>
    80008b88:	00028bb7          	lui	s7,0x28
    80008b8c:	a28b8b93          	addi	s7,s7,-1496 # 27a28 <_start-0x7ffd85f4>
    80008b90:	000ba783          	lw	a5,0(s7)
    80008b94:	014786bb          	addw	a3,a5,s4
    80008b98:	00dba023          	sw	a3,0(s7)
    80008b9c:	ab1ff06f          	j	8000864c <_malloc_r+0x1d0>
    80008ba0:	034c1713          	slli	a4,s8,0x34
    80008ba4:	aa0714e3          	bnez	a4,8000864c <_malloc_r+0x1d0>
    80008ba8:	0109b403          	ld	s0,16(s3)
    80008bac:	014a8a33          	add	s4,s5,s4
    80008bb0:	001a6a13          	ori	s4,s4,1
    80008bb4:	01443423          	sd	s4,8(s0)
    80008bb8:	b51ff06f          	j	80008708 <_malloc_r+0x28c>
    80008bbc:	8561b423          	sd	s6,-1976(gp) # 80015168 <__malloc_sbrk_base>
    80008bc0:	aa5ff06f          	j	80008664 <_malloc_r+0x1e8>
    80008bc4:	000b0413          	mv	s0,s6
    80008bc8:	b41ff06f          	j	80008708 <_malloc_r+0x28c>
    80008bcc:	00100793          	li	a5,1
    80008bd0:	00fb3423          	sd	a5,8(s6)
    80008bd4:	ea1ff06f          	j	80008a74 <_malloc_r+0x5f8>
    80008bd8:	15400693          	li	a3,340
    80008bdc:	06e6e663          	bltu	a3,a4,80008c48 <_malloc_r+0x7cc>
    80008be0:	00f7d713          	srli	a4,a5,0xf
    80008be4:	0787059b          	addiw	a1,a4,120
    80008be8:	0015959b          	slliw	a1,a1,0x1
    80008bec:	0777069b          	addiw	a3,a4,119
    80008bf0:	00359593          	slli	a1,a1,0x3
    80008bf4:	d2dff06f          	j	80008920 <_malloc_r+0x4a4>
    80008bf8:	55400713          	li	a4,1364
    80008bfc:	06f76663          	bltu	a4,a5,80008c68 <_malloc_r+0x7ec>
    80008c00:	0124d793          	srli	a5,s1,0x12
    80008c04:	07d7861b          	addiw	a2,a5,125
    80008c08:	0016169b          	slliw	a3,a2,0x1
    80008c0c:	07c7851b          	addiw	a0,a5,124
    80008c10:	00369693          	slli	a3,a3,0x3
    80008c14:	955ff06f          	j	80008568 <_malloc_r+0xec>
    80008c18:	ff0c0c13          	addi	s8,s8,-16
    80008c1c:	018c8a33          	add	s4,s9,s8
    80008c20:	416a0a33          	sub	s4,s4,s6
    80008c24:	00000713          	li	a4,0
    80008c28:	a89ff06f          	j	800086b0 <_malloc_r+0x234>
    80008c2c:	01040593          	addi	a1,s0,16
    80008c30:	00090513          	mv	a0,s2
    80008c34:	f8dfb0ef          	jal	ra,80004bc0 <_free_r>
    80008c38:	0109b403          	ld	s0,16(s3)
    80008c3c:	000ba783          	lw	a5,0(s7)
    80008c40:	00843a03          	ld	s4,8(s0)
    80008c44:	ac5ff06f          	j	80008708 <_malloc_r+0x28c>
    80008c48:	55400693          	li	a3,1364
    80008c4c:	02e6e663          	bltu	a3,a4,80008c78 <_malloc_r+0x7fc>
    80008c50:	0127d713          	srli	a4,a5,0x12
    80008c54:	07d7059b          	addiw	a1,a4,125
    80008c58:	0015959b          	slliw	a1,a1,0x1
    80008c5c:	07c7069b          	addiw	a3,a4,124
    80008c60:	00359593          	slli	a1,a1,0x3
    80008c64:	cbdff06f          	j	80008920 <_malloc_r+0x4a4>
    80008c68:	7f000693          	li	a3,2032
    80008c6c:	07f00613          	li	a2,127
    80008c70:	07e00513          	li	a0,126
    80008c74:	8f5ff06f          	j	80008568 <_malloc_r+0xec>
    80008c78:	7f000593          	li	a1,2032
    80008c7c:	07e00693          	li	a3,126
    80008c80:	ca1ff06f          	j	80008920 <_malloc_r+0x4a4>
    80008c84:	0089b783          	ld	a5,8(s3)
    80008c88:	e39ff06f          	j	80008ac0 <_malloc_r+0x644>

0000000080008c8c <_mbtowc_r>:
    80008c8c:	000257b7          	lui	a5,0x25
    80008c90:	8507b783          	ld	a5,-1968(a5) # 24850 <_start-0x7ffdb7cc>
    80008c94:	00078067          	jr	a5

0000000080008c98 <__ascii_mbtowc>:
    80008c98:	02058063          	beqz	a1,80008cb8 <__ascii_mbtowc+0x20>
    80008c9c:	04060263          	beqz	a2,80008ce0 <__ascii_mbtowc+0x48>
    80008ca0:	04068863          	beqz	a3,80008cf0 <__ascii_mbtowc+0x58>
    80008ca4:	00064783          	lbu	a5,0(a2)
    80008ca8:	00f5a023          	sw	a5,0(a1)
    80008cac:	00064503          	lbu	a0,0(a2)
    80008cb0:	00a03533          	snez	a0,a0
    80008cb4:	00008067          	ret
    80008cb8:	ff010113          	addi	sp,sp,-16
    80008cbc:	00c10593          	addi	a1,sp,12
    80008cc0:	02060463          	beqz	a2,80008ce8 <__ascii_mbtowc+0x50>
    80008cc4:	02068a63          	beqz	a3,80008cf8 <__ascii_mbtowc+0x60>
    80008cc8:	00064783          	lbu	a5,0(a2)
    80008ccc:	00f5a023          	sw	a5,0(a1)
    80008cd0:	00064503          	lbu	a0,0(a2)
    80008cd4:	00a03533          	snez	a0,a0
    80008cd8:	01010113          	addi	sp,sp,16
    80008cdc:	00008067          	ret
    80008ce0:	00000513          	li	a0,0
    80008ce4:	00008067          	ret
    80008ce8:	00000513          	li	a0,0
    80008cec:	fedff06f          	j	80008cd8 <__ascii_mbtowc+0x40>
    80008cf0:	ffe00513          	li	a0,-2
    80008cf4:	00008067          	ret
    80008cf8:	ffe00513          	li	a0,-2
    80008cfc:	fddff06f          	j	80008cd8 <__ascii_mbtowc+0x40>

0000000080008d00 <memchr>:
    80008d00:	00757793          	andi	a5,a0,7
    80008d04:	0ff5f693          	andi	a3,a1,255
    80008d08:	02078a63          	beqz	a5,80008d3c <memchr+0x3c>
    80008d0c:	fff60793          	addi	a5,a2,-1
    80008d10:	02060e63          	beqz	a2,80008d4c <memchr+0x4c>
    80008d14:	fff00613          	li	a2,-1
    80008d18:	0180006f          	j	80008d30 <memchr+0x30>
    80008d1c:	00150513          	addi	a0,a0,1
    80008d20:	00757713          	andi	a4,a0,7
    80008d24:	00070e63          	beqz	a4,80008d40 <memchr+0x40>
    80008d28:	fff78793          	addi	a5,a5,-1
    80008d2c:	02c78063          	beq	a5,a2,80008d4c <memchr+0x4c>
    80008d30:	00054703          	lbu	a4,0(a0)
    80008d34:	fed714e3          	bne	a4,a3,80008d1c <memchr+0x1c>
    80008d38:	00008067          	ret
    80008d3c:	00060793          	mv	a5,a2
    80008d40:	00700713          	li	a4,7
    80008d44:	02f76663          	bltu	a4,a5,80008d70 <memchr+0x70>
    80008d48:	00079663          	bnez	a5,80008d54 <memchr+0x54>
    80008d4c:	00000513          	li	a0,0
    80008d50:	00008067          	ret
    80008d54:	00f507b3          	add	a5,a0,a5
    80008d58:	00c0006f          	j	80008d64 <memchr+0x64>
    80008d5c:	00150513          	addi	a0,a0,1
    80008d60:	fea786e3          	beq	a5,a0,80008d4c <memchr+0x4c>
    80008d64:	00054703          	lbu	a4,0(a0)
    80008d68:	fed71ae3          	bne	a4,a3,80008d5c <memchr+0x5c>
    80008d6c:	00008067          	ret
    80008d70:	0ff5f593          	andi	a1,a1,255
    80008d74:	00859713          	slli	a4,a1,0x8
    80008d78:	00b765b3          	or	a1,a4,a1
    80008d7c:	00025637          	lui	a2,0x25
    80008d80:	01059713          	slli	a4,a1,0x10
    80008d84:	12863883          	ld	a7,296(a2) # 25128 <_start-0x7ffdaef4>
    80008d88:	00b76733          	or	a4,a4,a1
    80008d8c:	8101b803          	ld	a6,-2032(gp) # 80015130 <__SDATA_BEGIN__+0x10>
    80008d90:	02071593          	slli	a1,a4,0x20
    80008d94:	00e5e5b3          	or	a1,a1,a4
    80008d98:	00700313          	li	t1,7
    80008d9c:	00053703          	ld	a4,0(a0)
    80008da0:	00e5c733          	xor	a4,a1,a4
    80008da4:	01170633          	add	a2,a4,a7
    80008da8:	fff74713          	not	a4,a4
    80008dac:	00e67733          	and	a4,a2,a4
    80008db0:	01077733          	and	a4,a4,a6
    80008db4:	fa0710e3          	bnez	a4,80008d54 <memchr+0x54>
    80008db8:	ff878793          	addi	a5,a5,-8
    80008dbc:	00850513          	addi	a0,a0,8
    80008dc0:	fcf36ee3          	bltu	t1,a5,80008d9c <memchr+0x9c>
    80008dc4:	f80798e3          	bnez	a5,80008d54 <memchr+0x54>
    80008dc8:	f85ff06f          	j	80008d4c <memchr+0x4c>

0000000080008dcc <memmove>:
    80008dcc:	02a5f663          	bgeu	a1,a0,80008df8 <memmove+0x2c>
    80008dd0:	00c587b3          	add	a5,a1,a2
    80008dd4:	02f57263          	bgeu	a0,a5,80008df8 <memmove+0x2c>
    80008dd8:	00c50733          	add	a4,a0,a2
    80008ddc:	0e060a63          	beqz	a2,80008ed0 <memmove+0x104>
    80008de0:	fff7c683          	lbu	a3,-1(a5)
    80008de4:	fff78793          	addi	a5,a5,-1
    80008de8:	fff70713          	addi	a4,a4,-1
    80008dec:	00d70023          	sb	a3,0(a4)
    80008df0:	fef598e3          	bne	a1,a5,80008de0 <memmove+0x14>
    80008df4:	00008067          	ret
    80008df8:	01f00793          	li	a5,31
    80008dfc:	02c7e863          	bltu	a5,a2,80008e2c <memmove+0x60>
    80008e00:	00050793          	mv	a5,a0
    80008e04:	fff60693          	addi	a3,a2,-1
    80008e08:	0c060c63          	beqz	a2,80008ee0 <memmove+0x114>
    80008e0c:	00168693          	addi	a3,a3,1
    80008e10:	00d786b3          	add	a3,a5,a3
    80008e14:	0005c703          	lbu	a4,0(a1)
    80008e18:	00178793          	addi	a5,a5,1
    80008e1c:	00158593          	addi	a1,a1,1
    80008e20:	fee78fa3          	sb	a4,-1(a5)
    80008e24:	fed798e3          	bne	a5,a3,80008e14 <memmove+0x48>
    80008e28:	00008067          	ret
    80008e2c:	00a5e7b3          	or	a5,a1,a0
    80008e30:	0077f793          	andi	a5,a5,7
    80008e34:	0a079063          	bnez	a5,80008ed4 <memmove+0x108>
    80008e38:	fe060893          	addi	a7,a2,-32
    80008e3c:	fe08f893          	andi	a7,a7,-32
    80008e40:	02088893          	addi	a7,a7,32
    80008e44:	01150833          	add	a6,a0,a7
    80008e48:	00058713          	mv	a4,a1
    80008e4c:	00050793          	mv	a5,a0
    80008e50:	00073683          	ld	a3,0(a4)
    80008e54:	02070713          	addi	a4,a4,32
    80008e58:	02078793          	addi	a5,a5,32
    80008e5c:	fed7b023          	sd	a3,-32(a5)
    80008e60:	fe873683          	ld	a3,-24(a4)
    80008e64:	fed7b423          	sd	a3,-24(a5)
    80008e68:	ff073683          	ld	a3,-16(a4)
    80008e6c:	fed7b823          	sd	a3,-16(a5)
    80008e70:	ff873683          	ld	a3,-8(a4)
    80008e74:	fed7bc23          	sd	a3,-8(a5)
    80008e78:	fcf81ce3          	bne	a6,a5,80008e50 <memmove+0x84>
    80008e7c:	01867713          	andi	a4,a2,24
    80008e80:	011585b3          	add	a1,a1,a7
    80008e84:	01f67813          	andi	a6,a2,31
    80008e88:	04070e63          	beqz	a4,80008ee4 <memmove+0x118>
    80008e8c:	00058713          	mv	a4,a1
    80008e90:	00078893          	mv	a7,a5
    80008e94:	00700e13          	li	t3,7
    80008e98:	00073303          	ld	t1,0(a4)
    80008e9c:	00870713          	addi	a4,a4,8
    80008ea0:	40e806b3          	sub	a3,a6,a4
    80008ea4:	0068b023          	sd	t1,0(a7)
    80008ea8:	00d586b3          	add	a3,a1,a3
    80008eac:	00888893          	addi	a7,a7,8
    80008eb0:	fede64e3          	bltu	t3,a3,80008e98 <memmove+0xcc>
    80008eb4:	ff880713          	addi	a4,a6,-8
    80008eb8:	ff877713          	andi	a4,a4,-8
    80008ebc:	00870713          	addi	a4,a4,8
    80008ec0:	00767613          	andi	a2,a2,7
    80008ec4:	00e787b3          	add	a5,a5,a4
    80008ec8:	00e585b3          	add	a1,a1,a4
    80008ecc:	f39ff06f          	j	80008e04 <memmove+0x38>
    80008ed0:	00008067          	ret
    80008ed4:	fff60693          	addi	a3,a2,-1
    80008ed8:	00050793          	mv	a5,a0
    80008edc:	f31ff06f          	j	80008e0c <memmove+0x40>
    80008ee0:	00008067          	ret
    80008ee4:	00080613          	mv	a2,a6
    80008ee8:	f1dff06f          	j	80008e04 <memmove+0x38>

0000000080008eec <__malloc_lock>:
    80008eec:	00008067          	ret

0000000080008ef0 <__malloc_unlock>:
    80008ef0:	00008067          	ret

0000000080008ef4 <_Balloc>:
    80008ef4:	07853783          	ld	a5,120(a0)
    80008ef8:	fe010113          	addi	sp,sp,-32
    80008efc:	00813823          	sd	s0,16(sp)
    80008f00:	00913423          	sd	s1,8(sp)
    80008f04:	00113c23          	sd	ra,24(sp)
    80008f08:	01213023          	sd	s2,0(sp)
    80008f0c:	00050413          	mv	s0,a0
    80008f10:	00058493          	mv	s1,a1
    80008f14:	02078c63          	beqz	a5,80008f4c <_Balloc+0x58>
    80008f18:	00349513          	slli	a0,s1,0x3
    80008f1c:	00a787b3          	add	a5,a5,a0
    80008f20:	0007b503          	ld	a0,0(a5)
    80008f24:	04050463          	beqz	a0,80008f6c <_Balloc+0x78>
    80008f28:	00053703          	ld	a4,0(a0)
    80008f2c:	00e7b023          	sd	a4,0(a5)
    80008f30:	00053823          	sd	zero,16(a0)
    80008f34:	01813083          	ld	ra,24(sp)
    80008f38:	01013403          	ld	s0,16(sp)
    80008f3c:	00813483          	ld	s1,8(sp)
    80008f40:	00013903          	ld	s2,0(sp)
    80008f44:	02010113          	addi	sp,sp,32
    80008f48:	00008067          	ret
    80008f4c:	04100613          	li	a2,65
    80008f50:	00800593          	li	a1,8
    80008f54:	754050ef          	jal	ra,8000e6a8 <_calloc_r>
    80008f58:	06a43c23          	sd	a0,120(s0)
    80008f5c:	00050793          	mv	a5,a0
    80008f60:	fa051ce3          	bnez	a0,80008f18 <_Balloc+0x24>
    80008f64:	00000513          	li	a0,0
    80008f68:	fcdff06f          	j	80008f34 <_Balloc+0x40>
    80008f6c:	00100913          	li	s2,1
    80008f70:	0099163b          	sllw	a2,s2,s1
    80008f74:	00060913          	mv	s2,a2
    80008f78:	00760613          	addi	a2,a2,7
    80008f7c:	00261613          	slli	a2,a2,0x2
    80008f80:	00100593          	li	a1,1
    80008f84:	00040513          	mv	a0,s0
    80008f88:	720050ef          	jal	ra,8000e6a8 <_calloc_r>
    80008f8c:	fc050ce3          	beqz	a0,80008f64 <_Balloc+0x70>
    80008f90:	00952423          	sw	s1,8(a0)
    80008f94:	01252623          	sw	s2,12(a0)
    80008f98:	f99ff06f          	j	80008f30 <_Balloc+0x3c>

0000000080008f9c <_Bfree>:
    80008f9c:	02058063          	beqz	a1,80008fbc <_Bfree+0x20>
    80008fa0:	0085a703          	lw	a4,8(a1)
    80008fa4:	07853783          	ld	a5,120(a0)
    80008fa8:	00371713          	slli	a4,a4,0x3
    80008fac:	00e787b3          	add	a5,a5,a4
    80008fb0:	0007b703          	ld	a4,0(a5)
    80008fb4:	00e5b023          	sd	a4,0(a1)
    80008fb8:	00b7b023          	sd	a1,0(a5)
    80008fbc:	00008067          	ret

0000000080008fc0 <__multadd>:
    80008fc0:	fd010113          	addi	sp,sp,-48
    80008fc4:	00913c23          	sd	s1,24(sp)
    80008fc8:	0145a483          	lw	s1,20(a1)
    80008fcc:	00010337          	lui	t1,0x10
    80008fd0:	02813023          	sd	s0,32(sp)
    80008fd4:	01213823          	sd	s2,16(sp)
    80008fd8:	01313423          	sd	s3,8(sp)
    80008fdc:	02113423          	sd	ra,40(sp)
    80008fe0:	01413023          	sd	s4,0(sp)
    80008fe4:	00058913          	mv	s2,a1
    80008fe8:	00050993          	mv	s3,a0
    80008fec:	00068413          	mv	s0,a3
    80008ff0:	01858813          	addi	a6,a1,24
    80008ff4:	00000893          	li	a7,0
    80008ff8:	fff30313          	addi	t1,t1,-1 # ffff <_start-0x7fff001d>
    80008ffc:	00082783          	lw	a5,0(a6)
    80009000:	00480813          	addi	a6,a6,4
    80009004:	0018889b          	addiw	a7,a7,1
    80009008:	0067f6b3          	and	a3,a5,t1
    8000900c:	02c686bb          	mulw	a3,a3,a2
    80009010:	0107d79b          	srliw	a5,a5,0x10
    80009014:	02c787bb          	mulw	a5,a5,a2
    80009018:	008686bb          	addw	a3,a3,s0
    8000901c:	0106de1b          	srliw	t3,a3,0x10
    80009020:	00d37733          	and	a4,t1,a3
    80009024:	01c786bb          	addw	a3,a5,t3
    80009028:	0106979b          	slliw	a5,a3,0x10
    8000902c:	00e7873b          	addw	a4,a5,a4
    80009030:	fee82e23          	sw	a4,-4(a6)
    80009034:	0106d41b          	srliw	s0,a3,0x10
    80009038:	fc98c2e3          	blt	a7,s1,80008ffc <__multadd+0x3c>
    8000903c:	02040263          	beqz	s0,80009060 <__multadd+0xa0>
    80009040:	00c92783          	lw	a5,12(s2)
    80009044:	04f4d063          	bge	s1,a5,80009084 <__multadd+0xc4>
    80009048:	00448793          	addi	a5,s1,4
    8000904c:	00279793          	slli	a5,a5,0x2
    80009050:	00f907b3          	add	a5,s2,a5
    80009054:	0087a423          	sw	s0,8(a5)
    80009058:	0014849b          	addiw	s1,s1,1
    8000905c:	00992a23          	sw	s1,20(s2)
    80009060:	02813083          	ld	ra,40(sp)
    80009064:	02013403          	ld	s0,32(sp)
    80009068:	01813483          	ld	s1,24(sp)
    8000906c:	00813983          	ld	s3,8(sp)
    80009070:	00013a03          	ld	s4,0(sp)
    80009074:	00090513          	mv	a0,s2
    80009078:	01013903          	ld	s2,16(sp)
    8000907c:	03010113          	addi	sp,sp,48
    80009080:	00008067          	ret
    80009084:	00892583          	lw	a1,8(s2)
    80009088:	00098513          	mv	a0,s3
    8000908c:	0015859b          	addiw	a1,a1,1
    80009090:	e65ff0ef          	jal	ra,80008ef4 <_Balloc>
    80009094:	00050a13          	mv	s4,a0
    80009098:	04050c63          	beqz	a0,800090f0 <__multadd+0x130>
    8000909c:	01492603          	lw	a2,20(s2)
    800090a0:	01090593          	addi	a1,s2,16
    800090a4:	01050513          	addi	a0,a0,16
    800090a8:	00260613          	addi	a2,a2,2
    800090ac:	00261613          	slli	a2,a2,0x2
    800090b0:	8f8f80ef          	jal	ra,800011a8 <memcpy>
    800090b4:	00892703          	lw	a4,8(s2)
    800090b8:	0789b783          	ld	a5,120(s3)
    800090bc:	00371713          	slli	a4,a4,0x3
    800090c0:	00e787b3          	add	a5,a5,a4
    800090c4:	0007b703          	ld	a4,0(a5)
    800090c8:	00e93023          	sd	a4,0(s2)
    800090cc:	0127b023          	sd	s2,0(a5)
    800090d0:	00448793          	addi	a5,s1,4
    800090d4:	000a0913          	mv	s2,s4
    800090d8:	00279793          	slli	a5,a5,0x2
    800090dc:	00f907b3          	add	a5,s2,a5
    800090e0:	0087a423          	sw	s0,8(a5)
    800090e4:	0014849b          	addiw	s1,s1,1
    800090e8:	00992a23          	sw	s1,20(s2)
    800090ec:	f75ff06f          	j	80009060 <__multadd+0xa0>
    800090f0:	000236b7          	lui	a3,0x23
    800090f4:	00023537          	lui	a0,0x23
    800090f8:	0f068693          	addi	a3,a3,240 # 230f0 <_start-0x7ffdcf2c>
    800090fc:	00000613          	li	a2,0
    80009100:	0b500593          	li	a1,181
    80009104:	3f050513          	addi	a0,a0,1008 # 233f0 <_start-0x7ffdcc2c>
    80009108:	524050ef          	jal	ra,8000e62c <__assert_func>

000000008000910c <__s2b>:
    8000910c:	fc010113          	addi	sp,sp,-64
    80009110:	02813823          	sd	s0,48(sp)
    80009114:	02913423          	sd	s1,40(sp)
    80009118:	03213023          	sd	s2,32(sp)
    8000911c:	01313c23          	sd	s3,24(sp)
    80009120:	01413823          	sd	s4,16(sp)
    80009124:	00068493          	mv	s1,a3
    80009128:	00058413          	mv	s0,a1
    8000912c:	0086869b          	addiw	a3,a3,8
    80009130:	00900593          	li	a1,9
    80009134:	02113c23          	sd	ra,56(sp)
    80009138:	01513423          	sd	s5,8(sp)
    8000913c:	01613023          	sd	s6,0(sp)
    80009140:	00900793          	li	a5,9
    80009144:	02b6c6bb          	divw	a3,a3,a1
    80009148:	00050913          	mv	s2,a0
    8000914c:	00060993          	mv	s3,a2
    80009150:	00070a13          	mv	s4,a4
    80009154:	0e97dc63          	bge	a5,s1,8000924c <__s2b+0x140>
    80009158:	00100793          	li	a5,1
    8000915c:	00000593          	li	a1,0
    80009160:	0017979b          	slliw	a5,a5,0x1
    80009164:	0015859b          	addiw	a1,a1,1
    80009168:	fed7cce3          	blt	a5,a3,80009160 <__s2b+0x54>
    8000916c:	00090513          	mv	a0,s2
    80009170:	d85ff0ef          	jal	ra,80008ef4 <_Balloc>
    80009174:	00050593          	mv	a1,a0
    80009178:	0c050e63          	beqz	a0,80009254 <__s2b+0x148>
    8000917c:	00100793          	li	a5,1
    80009180:	00f52a23          	sw	a5,20(a0)
    80009184:	01452c23          	sw	s4,24(a0)
    80009188:	00900793          	li	a5,9
    8000918c:	0b37da63          	bge	a5,s3,80009240 <__s2b+0x134>
    80009190:	02099793          	slli	a5,s3,0x20
    80009194:	00940b13          	addi	s6,s0,9
    80009198:	0207d793          	srli	a5,a5,0x20
    8000919c:	00098a9b          	sext.w	s5,s3
    800091a0:	00f40433          	add	s0,s0,a5
    800091a4:	000b0a13          	mv	s4,s6
    800091a8:	000a4683          	lbu	a3,0(s4)
    800091ac:	00a00613          	li	a2,10
    800091b0:	00090513          	mv	a0,s2
    800091b4:	fd06869b          	addiw	a3,a3,-48
    800091b8:	e09ff0ef          	jal	ra,80008fc0 <__multadd>
    800091bc:	001a0a13          	addi	s4,s4,1
    800091c0:	00050593          	mv	a1,a0
    800091c4:	fe8a12e3          	bne	s4,s0,800091a8 <__s2b+0x9c>
    800091c8:	ff8a841b          	addiw	s0,s5,-8
    800091cc:	02041413          	slli	s0,s0,0x20
    800091d0:	02045413          	srli	s0,s0,0x20
    800091d4:	008b0433          	add	s0,s6,s0
    800091d8:	0299de63          	bge	s3,s1,80009214 <__s2b+0x108>
    800091dc:	fff4849b          	addiw	s1,s1,-1
    800091e0:	413484bb          	subw	s1,s1,s3
    800091e4:	02049493          	slli	s1,s1,0x20
    800091e8:	0204d493          	srli	s1,s1,0x20
    800091ec:	00148493          	addi	s1,s1,1
    800091f0:	009404b3          	add	s1,s0,s1
    800091f4:	00044683          	lbu	a3,0(s0)
    800091f8:	00a00613          	li	a2,10
    800091fc:	00090513          	mv	a0,s2
    80009200:	fd06869b          	addiw	a3,a3,-48
    80009204:	dbdff0ef          	jal	ra,80008fc0 <__multadd>
    80009208:	00140413          	addi	s0,s0,1
    8000920c:	00050593          	mv	a1,a0
    80009210:	fe9412e3          	bne	s0,s1,800091f4 <__s2b+0xe8>
    80009214:	03813083          	ld	ra,56(sp)
    80009218:	03013403          	ld	s0,48(sp)
    8000921c:	02813483          	ld	s1,40(sp)
    80009220:	02013903          	ld	s2,32(sp)
    80009224:	01813983          	ld	s3,24(sp)
    80009228:	01013a03          	ld	s4,16(sp)
    8000922c:	00813a83          	ld	s5,8(sp)
    80009230:	00013b03          	ld	s6,0(sp)
    80009234:	00058513          	mv	a0,a1
    80009238:	04010113          	addi	sp,sp,64
    8000923c:	00008067          	ret
    80009240:	00a40413          	addi	s0,s0,10
    80009244:	00900993          	li	s3,9
    80009248:	f91ff06f          	j	800091d8 <__s2b+0xcc>
    8000924c:	00000593          	li	a1,0
    80009250:	f1dff06f          	j	8000916c <__s2b+0x60>
    80009254:	000236b7          	lui	a3,0x23
    80009258:	00023537          	lui	a0,0x23
    8000925c:	0f068693          	addi	a3,a3,240 # 230f0 <_start-0x7ffdcf2c>
    80009260:	00000613          	li	a2,0
    80009264:	0ce00593          	li	a1,206
    80009268:	3f050513          	addi	a0,a0,1008 # 233f0 <_start-0x7ffdcc2c>
    8000926c:	3c0050ef          	jal	ra,8000e62c <__assert_func>

0000000080009270 <__hi0bits>:
    80009270:	ffff0737          	lui	a4,0xffff0
    80009274:	00e57733          	and	a4,a0,a4
    80009278:	00050793          	mv	a5,a0
    8000927c:	00000513          	li	a0,0
    80009280:	00071663          	bnez	a4,8000928c <__hi0bits+0x1c>
    80009284:	0107979b          	slliw	a5,a5,0x10
    80009288:	01000513          	li	a0,16
    8000928c:	ff000737          	lui	a4,0xff000
    80009290:	00e7f733          	and	a4,a5,a4
    80009294:	00071663          	bnez	a4,800092a0 <__hi0bits+0x30>
    80009298:	0087979b          	slliw	a5,a5,0x8
    8000929c:	0085051b          	addiw	a0,a0,8
    800092a0:	f0000737          	lui	a4,0xf0000
    800092a4:	00e7f733          	and	a4,a5,a4
    800092a8:	00071663          	bnez	a4,800092b4 <__hi0bits+0x44>
    800092ac:	0047979b          	slliw	a5,a5,0x4
    800092b0:	0045051b          	addiw	a0,a0,4
    800092b4:	c0000737          	lui	a4,0xc0000
    800092b8:	00e7f733          	and	a4,a5,a4
    800092bc:	00071663          	bnez	a4,800092c8 <__hi0bits+0x58>
    800092c0:	0027979b          	slliw	a5,a5,0x2
    800092c4:	0025051b          	addiw	a0,a0,2
    800092c8:	0007ca63          	bltz	a5,800092dc <__hi0bits+0x6c>
    800092cc:	01e7d793          	srli	a5,a5,0x1e
    800092d0:	0017f793          	andi	a5,a5,1
    800092d4:	0015051b          	addiw	a0,a0,1
    800092d8:	00078463          	beqz	a5,800092e0 <__hi0bits+0x70>
    800092dc:	00008067          	ret
    800092e0:	02000513          	li	a0,32
    800092e4:	00008067          	ret

00000000800092e8 <__lo0bits>:
    800092e8:	00052783          	lw	a5,0(a0)
    800092ec:	00050713          	mv	a4,a0
    800092f0:	0077f693          	andi	a3,a5,7
    800092f4:	00078613          	mv	a2,a5
    800092f8:	02068463          	beqz	a3,80009320 <__lo0bits+0x38>
    800092fc:	0017f693          	andi	a3,a5,1
    80009300:	00000513          	li	a0,0
    80009304:	04069e63          	bnez	a3,80009360 <__lo0bits+0x78>
    80009308:	00267613          	andi	a2,a2,2
    8000930c:	0a060863          	beqz	a2,800093bc <__lo0bits+0xd4>
    80009310:	0017d79b          	srliw	a5,a5,0x1
    80009314:	00f72023          	sw	a5,0(a4) # ffffffffc0000000 <t0.2038+0xffffffff3ffc33b8>
    80009318:	00100513          	li	a0,1
    8000931c:	00008067          	ret
    80009320:	03079693          	slli	a3,a5,0x30
    80009324:	0306d693          	srli	a3,a3,0x30
    80009328:	00000513          	li	a0,0
    8000932c:	06068e63          	beqz	a3,800093a8 <__lo0bits+0xc0>
    80009330:	0ff7f693          	andi	a3,a5,255
    80009334:	06068063          	beqz	a3,80009394 <__lo0bits+0xac>
    80009338:	00f7f693          	andi	a3,a5,15
    8000933c:	04068263          	beqz	a3,80009380 <__lo0bits+0x98>
    80009340:	0037f693          	andi	a3,a5,3
    80009344:	02068463          	beqz	a3,8000936c <__lo0bits+0x84>
    80009348:	0017f693          	andi	a3,a5,1
    8000934c:	00069c63          	bnez	a3,80009364 <__lo0bits+0x7c>
    80009350:	0017d79b          	srliw	a5,a5,0x1
    80009354:	0015051b          	addiw	a0,a0,1
    80009358:	00079663          	bnez	a5,80009364 <__lo0bits+0x7c>
    8000935c:	02000513          	li	a0,32
    80009360:	00008067          	ret
    80009364:	00f72023          	sw	a5,0(a4)
    80009368:	00008067          	ret
    8000936c:	0027d79b          	srliw	a5,a5,0x2
    80009370:	0017f693          	andi	a3,a5,1
    80009374:	0025051b          	addiw	a0,a0,2
    80009378:	fe0696e3          	bnez	a3,80009364 <__lo0bits+0x7c>
    8000937c:	fd5ff06f          	j	80009350 <__lo0bits+0x68>
    80009380:	0047d79b          	srliw	a5,a5,0x4
    80009384:	0037f693          	andi	a3,a5,3
    80009388:	0045051b          	addiw	a0,a0,4
    8000938c:	fa069ee3          	bnez	a3,80009348 <__lo0bits+0x60>
    80009390:	fddff06f          	j	8000936c <__lo0bits+0x84>
    80009394:	0087d79b          	srliw	a5,a5,0x8
    80009398:	00f7f693          	andi	a3,a5,15
    8000939c:	0085051b          	addiw	a0,a0,8
    800093a0:	fa0690e3          	bnez	a3,80009340 <__lo0bits+0x58>
    800093a4:	fddff06f          	j	80009380 <__lo0bits+0x98>
    800093a8:	0107d79b          	srliw	a5,a5,0x10
    800093ac:	0ff7f693          	andi	a3,a5,255
    800093b0:	01000513          	li	a0,16
    800093b4:	f80692e3          	bnez	a3,80009338 <__lo0bits+0x50>
    800093b8:	fddff06f          	j	80009394 <__lo0bits+0xac>
    800093bc:	0027d79b          	srliw	a5,a5,0x2
    800093c0:	00f72023          	sw	a5,0(a4)
    800093c4:	00200513          	li	a0,2
    800093c8:	00008067          	ret

00000000800093cc <__i2b>:
    800093cc:	07853783          	ld	a5,120(a0)
    800093d0:	fe010113          	addi	sp,sp,-32
    800093d4:	00813823          	sd	s0,16(sp)
    800093d8:	00913423          	sd	s1,8(sp)
    800093dc:	00113c23          	sd	ra,24(sp)
    800093e0:	00050413          	mv	s0,a0
    800093e4:	00058493          	mv	s1,a1
    800093e8:	02078c63          	beqz	a5,80009420 <__i2b+0x54>
    800093ec:	0087b503          	ld	a0,8(a5)
    800093f0:	06050263          	beqz	a0,80009454 <__i2b+0x88>
    800093f4:	00053703          	ld	a4,0(a0)
    800093f8:	00e7b423          	sd	a4,8(a5)
    800093fc:	01813083          	ld	ra,24(sp)
    80009400:	01013403          	ld	s0,16(sp)
    80009404:	00100793          	li	a5,1
    80009408:	02079793          	slli	a5,a5,0x20
    8000940c:	00952c23          	sw	s1,24(a0)
    80009410:	00f53823          	sd	a5,16(a0)
    80009414:	00813483          	ld	s1,8(sp)
    80009418:	02010113          	addi	sp,sp,32
    8000941c:	00008067          	ret
    80009420:	04100613          	li	a2,65
    80009424:	00800593          	li	a1,8
    80009428:	280050ef          	jal	ra,8000e6a8 <_calloc_r>
    8000942c:	06a43c23          	sd	a0,120(s0)
    80009430:	00050793          	mv	a5,a0
    80009434:	fa051ce3          	bnez	a0,800093ec <__i2b+0x20>
    80009438:	000236b7          	lui	a3,0x23
    8000943c:	00023537          	lui	a0,0x23
    80009440:	0f068693          	addi	a3,a3,240 # 230f0 <_start-0x7ffdcf2c>
    80009444:	00000613          	li	a2,0
    80009448:	14000593          	li	a1,320
    8000944c:	3f050513          	addi	a0,a0,1008 # 233f0 <_start-0x7ffdcc2c>
    80009450:	1dc050ef          	jal	ra,8000e62c <__assert_func>
    80009454:	02400613          	li	a2,36
    80009458:	00100593          	li	a1,1
    8000945c:	00040513          	mv	a0,s0
    80009460:	248050ef          	jal	ra,8000e6a8 <_calloc_r>
    80009464:	fc050ae3          	beqz	a0,80009438 <__i2b+0x6c>
    80009468:	00100793          	li	a5,1
    8000946c:	02179793          	slli	a5,a5,0x21
    80009470:	00178793          	addi	a5,a5,1
    80009474:	00f53423          	sd	a5,8(a0)
    80009478:	f85ff06f          	j	800093fc <__i2b+0x30>

000000008000947c <__multiply>:
    8000947c:	fd010113          	addi	sp,sp,-48
    80009480:	01213823          	sd	s2,16(sp)
    80009484:	01313423          	sd	s3,8(sp)
    80009488:	01462903          	lw	s2,20(a2)
    8000948c:	0145a983          	lw	s3,20(a1)
    80009490:	00913c23          	sd	s1,24(sp)
    80009494:	01413023          	sd	s4,0(sp)
    80009498:	02113423          	sd	ra,40(sp)
    8000949c:	02813023          	sd	s0,32(sp)
    800094a0:	00058a13          	mv	s4,a1
    800094a4:	00060493          	mv	s1,a2
    800094a8:	0129cc63          	blt	s3,s2,800094c0 <__multiply+0x44>
    800094ac:	00090793          	mv	a5,s2
    800094b0:	00058493          	mv	s1,a1
    800094b4:	00098913          	mv	s2,s3
    800094b8:	00060a13          	mv	s4,a2
    800094bc:	00078993          	mv	s3,a5
    800094c0:	00c4a783          	lw	a5,12(s1)
    800094c4:	0139043b          	addw	s0,s2,s3
    800094c8:	0084a583          	lw	a1,8(s1)
    800094cc:	0087d463          	bge	a5,s0,800094d4 <__multiply+0x58>
    800094d0:	0015859b          	addiw	a1,a1,1
    800094d4:	a21ff0ef          	jal	ra,80008ef4 <_Balloc>
    800094d8:	1c050063          	beqz	a0,80009698 <__multiply+0x21c>
    800094dc:	01850313          	addi	t1,a0,24
    800094e0:	00241893          	slli	a7,s0,0x2
    800094e4:	011308b3          	add	a7,t1,a7
    800094e8:	00030793          	mv	a5,t1
    800094ec:	01137863          	bgeu	t1,a7,800094fc <__multiply+0x80>
    800094f0:	0007a023          	sw	zero,0(a5)
    800094f4:	00478793          	addi	a5,a5,4
    800094f8:	ff17ece3          	bltu	a5,a7,800094f0 <__multiply+0x74>
    800094fc:	018a0813          	addi	a6,s4,24
    80009500:	00299e13          	slli	t3,s3,0x2
    80009504:	01848e93          	addi	t4,s1,24
    80009508:	00291593          	slli	a1,s2,0x2
    8000950c:	01c80e33          	add	t3,a6,t3
    80009510:	00be85b3          	add	a1,t4,a1
    80009514:	13c87863          	bgeu	a6,t3,80009644 <__multiply+0x1c8>
    80009518:	01948793          	addi	a5,s1,25
    8000951c:	00400f13          	li	t5,4
    80009520:	16f5f263          	bgeu	a1,a5,80009684 <__multiply+0x208>
    80009524:	00010637          	lui	a2,0x10
    80009528:	fff60613          	addi	a2,a2,-1 # ffff <_start-0x7fff001d>
    8000952c:	0180006f          	j	80009544 <__multiply+0xc8>
    80009530:	0102d29b          	srliw	t0,t0,0x10
    80009534:	08029863          	bnez	t0,800095c4 <__multiply+0x148>
    80009538:	00480813          	addi	a6,a6,4
    8000953c:	00430313          	addi	t1,t1,4
    80009540:	11c87263          	bgeu	a6,t3,80009644 <__multiply+0x1c8>
    80009544:	00082283          	lw	t0,0(a6)
    80009548:	00c2f4b3          	and	s1,t0,a2
    8000954c:	fe0482e3          	beqz	s1,80009530 <__multiply+0xb4>
    80009550:	00030393          	mv	t2,t1
    80009554:	000e8293          	mv	t0,t4
    80009558:	00000913          	li	s2,0
    8000955c:	0002a683          	lw	a3,0(t0) # 80001378 <memset+0xb4>
    80009560:	0003af83          	lw	t6,0(t2)
    80009564:	00438393          	addi	t2,t2,4
    80009568:	00c6f7b3          	and	a5,a3,a2
    8000956c:	029787bb          	mulw	a5,a5,s1
    80009570:	0106d71b          	srliw	a4,a3,0x10
    80009574:	00cff6b3          	and	a3,t6,a2
    80009578:	010fdf9b          	srliw	t6,t6,0x10
    8000957c:	00428293          	addi	t0,t0,4
    80009580:	0297073b          	mulw	a4,a4,s1
    80009584:	00d787bb          	addw	a5,a5,a3
    80009588:	012787bb          	addw	a5,a5,s2
    8000958c:	0107d69b          	srliw	a3,a5,0x10
    80009590:	00f677b3          	and	a5,a2,a5
    80009594:	01f7073b          	addw	a4,a4,t6
    80009598:	00d7073b          	addw	a4,a4,a3
    8000959c:	0107169b          	slliw	a3,a4,0x10
    800095a0:	00d7e7b3          	or	a5,a5,a3
    800095a4:	fef3ae23          	sw	a5,-4(t2)
    800095a8:	0107591b          	srliw	s2,a4,0x10
    800095ac:	fab2e8e3          	bltu	t0,a1,8000955c <__multiply+0xe0>
    800095b0:	01e307b3          	add	a5,t1,t5
    800095b4:	0127a023          	sw	s2,0(a5)
    800095b8:	00082283          	lw	t0,0(a6)
    800095bc:	0102d29b          	srliw	t0,t0,0x10
    800095c0:	f6028ce3          	beqz	t0,80009538 <__multiply+0xbc>
    800095c4:	00032683          	lw	a3,0(t1)
    800095c8:	00030393          	mv	t2,t1
    800095cc:	000e8f93          	mv	t6,t4
    800095d0:	00068493          	mv	s1,a3
    800095d4:	00000713          	li	a4,0
    800095d8:	000fa783          	lw	a5,0(t6)
    800095dc:	0104d99b          	srliw	s3,s1,0x10
    800095e0:	00c6f6b3          	and	a3,a3,a2
    800095e4:	00c7f7b3          	and	a5,a5,a2
    800095e8:	025787bb          	mulw	a5,a5,t0
    800095ec:	0043a483          	lw	s1,4(t2)
    800095f0:	00438393          	addi	t2,t2,4
    800095f4:	004f8f93          	addi	t6,t6,4
    800095f8:	00c4f933          	and	s2,s1,a2
    800095fc:	013787bb          	addw	a5,a5,s3
    80009600:	00e787bb          	addw	a5,a5,a4
    80009604:	0107971b          	slliw	a4,a5,0x10
    80009608:	00e6e6b3          	or	a3,a3,a4
    8000960c:	fed3ae23          	sw	a3,-4(t2)
    80009610:	ffefd703          	lhu	a4,-2(t6)
    80009614:	0107d79b          	srliw	a5,a5,0x10
    80009618:	0257073b          	mulw	a4,a4,t0
    8000961c:	0127073b          	addw	a4,a4,s2
    80009620:	00f707bb          	addw	a5,a4,a5
    80009624:	0007869b          	sext.w	a3,a5
    80009628:	0107d71b          	srliw	a4,a5,0x10
    8000962c:	fabfe6e3          	bltu	t6,a1,800095d8 <__multiply+0x15c>
    80009630:	01e307b3          	add	a5,t1,t5
    80009634:	00d7a023          	sw	a3,0(a5)
    80009638:	00480813          	addi	a6,a6,4
    8000963c:	00430313          	addi	t1,t1,4
    80009640:	f1c862e3          	bltu	a6,t3,80009544 <__multiply+0xc8>
    80009644:	00804863          	bgtz	s0,80009654 <__multiply+0x1d8>
    80009648:	0180006f          	j	80009660 <__multiply+0x1e4>
    8000964c:	fff4041b          	addiw	s0,s0,-1
    80009650:	00040863          	beqz	s0,80009660 <__multiply+0x1e4>
    80009654:	ffc8a783          	lw	a5,-4(a7)
    80009658:	ffc88893          	addi	a7,a7,-4
    8000965c:	fe0788e3          	beqz	a5,8000964c <__multiply+0x1d0>
    80009660:	02813083          	ld	ra,40(sp)
    80009664:	00852a23          	sw	s0,20(a0)
    80009668:	02013403          	ld	s0,32(sp)
    8000966c:	01813483          	ld	s1,24(sp)
    80009670:	01013903          	ld	s2,16(sp)
    80009674:	00813983          	ld	s3,8(sp)
    80009678:	00013a03          	ld	s4,0(sp)
    8000967c:	03010113          	addi	sp,sp,48
    80009680:	00008067          	ret
    80009684:	40958f33          	sub	t5,a1,s1
    80009688:	fe7f0f13          	addi	t5,t5,-25
    8000968c:	ffcf7f13          	andi	t5,t5,-4
    80009690:	004f0f13          	addi	t5,t5,4
    80009694:	e91ff06f          	j	80009524 <__multiply+0xa8>
    80009698:	000236b7          	lui	a3,0x23
    8000969c:	00023537          	lui	a0,0x23
    800096a0:	0f068693          	addi	a3,a3,240 # 230f0 <_start-0x7ffdcf2c>
    800096a4:	00000613          	li	a2,0
    800096a8:	15d00593          	li	a1,349
    800096ac:	3f050513          	addi	a0,a0,1008 # 233f0 <_start-0x7ffdcc2c>
    800096b0:	77d040ef          	jal	ra,8000e62c <__assert_func>

00000000800096b4 <__pow5mult>:
    800096b4:	fd010113          	addi	sp,sp,-48
    800096b8:	02813023          	sd	s0,32(sp)
    800096bc:	01213823          	sd	s2,16(sp)
    800096c0:	01313423          	sd	s3,8(sp)
    800096c4:	02113423          	sd	ra,40(sp)
    800096c8:	00913c23          	sd	s1,24(sp)
    800096cc:	00367793          	andi	a5,a2,3
    800096d0:	00060413          	mv	s0,a2
    800096d4:	00050993          	mv	s3,a0
    800096d8:	00058913          	mv	s2,a1
    800096dc:	0a079e63          	bnez	a5,80009798 <__pow5mult+0xe4>
    800096e0:	40245413          	srai	s0,s0,0x2
    800096e4:	06040663          	beqz	s0,80009750 <__pow5mult+0x9c>
    800096e8:	0709b483          	ld	s1,112(s3)
    800096ec:	0c048a63          	beqz	s1,800097c0 <__pow5mult+0x10c>
    800096f0:	00147793          	andi	a5,s0,1
    800096f4:	02079063          	bnez	a5,80009714 <__pow5mult+0x60>
    800096f8:	40145413          	srai	s0,s0,0x1
    800096fc:	04040a63          	beqz	s0,80009750 <__pow5mult+0x9c>
    80009700:	0004b503          	ld	a0,0(s1)
    80009704:	06050663          	beqz	a0,80009770 <__pow5mult+0xbc>
    80009708:	00050493          	mv	s1,a0
    8000970c:	00147793          	andi	a5,s0,1
    80009710:	fe0784e3          	beqz	a5,800096f8 <__pow5mult+0x44>
    80009714:	00048613          	mv	a2,s1
    80009718:	00090593          	mv	a1,s2
    8000971c:	00098513          	mv	a0,s3
    80009720:	d5dff0ef          	jal	ra,8000947c <__multiply>
    80009724:	06090663          	beqz	s2,80009790 <__pow5mult+0xdc>
    80009728:	00892703          	lw	a4,8(s2)
    8000972c:	0789b783          	ld	a5,120(s3)
    80009730:	40145413          	srai	s0,s0,0x1
    80009734:	00371713          	slli	a4,a4,0x3
    80009738:	00e787b3          	add	a5,a5,a4
    8000973c:	0007b703          	ld	a4,0(a5)
    80009740:	00e93023          	sd	a4,0(s2)
    80009744:	0127b023          	sd	s2,0(a5)
    80009748:	00050913          	mv	s2,a0
    8000974c:	fa041ae3          	bnez	s0,80009700 <__pow5mult+0x4c>
    80009750:	02813083          	ld	ra,40(sp)
    80009754:	02013403          	ld	s0,32(sp)
    80009758:	01813483          	ld	s1,24(sp)
    8000975c:	00813983          	ld	s3,8(sp)
    80009760:	00090513          	mv	a0,s2
    80009764:	01013903          	ld	s2,16(sp)
    80009768:	03010113          	addi	sp,sp,48
    8000976c:	00008067          	ret
    80009770:	00048613          	mv	a2,s1
    80009774:	00048593          	mv	a1,s1
    80009778:	00098513          	mv	a0,s3
    8000977c:	d01ff0ef          	jal	ra,8000947c <__multiply>
    80009780:	00a4b023          	sd	a0,0(s1)
    80009784:	00053023          	sd	zero,0(a0)
    80009788:	00050493          	mv	s1,a0
    8000978c:	f81ff06f          	j	8000970c <__pow5mult+0x58>
    80009790:	00050913          	mv	s2,a0
    80009794:	f65ff06f          	j	800096f8 <__pow5mult+0x44>
    80009798:	fff7879b          	addiw	a5,a5,-1
    8000979c:	00023737          	lui	a4,0x23
    800097a0:	45070713          	addi	a4,a4,1104 # 23450 <_start-0x7ffdcbcc>
    800097a4:	00279793          	slli	a5,a5,0x2
    800097a8:	00f707b3          	add	a5,a4,a5
    800097ac:	0007a603          	lw	a2,0(a5)
    800097b0:	00000693          	li	a3,0
    800097b4:	80dff0ef          	jal	ra,80008fc0 <__multadd>
    800097b8:	00050913          	mv	s2,a0
    800097bc:	f25ff06f          	j	800096e0 <__pow5mult+0x2c>
    800097c0:	00100593          	li	a1,1
    800097c4:	00098513          	mv	a0,s3
    800097c8:	f2cff0ef          	jal	ra,80008ef4 <_Balloc>
    800097cc:	00050493          	mv	s1,a0
    800097d0:	02050063          	beqz	a0,800097f0 <__pow5mult+0x13c>
    800097d4:	27100793          	li	a5,625
    800097d8:	00f52c23          	sw	a5,24(a0)
    800097dc:	00100793          	li	a5,1
    800097e0:	00f52a23          	sw	a5,20(a0)
    800097e4:	06a9b823          	sd	a0,112(s3)
    800097e8:	00053023          	sd	zero,0(a0)
    800097ec:	f05ff06f          	j	800096f0 <__pow5mult+0x3c>
    800097f0:	000236b7          	lui	a3,0x23
    800097f4:	00023537          	lui	a0,0x23
    800097f8:	0f068693          	addi	a3,a3,240 # 230f0 <_start-0x7ffdcf2c>
    800097fc:	00000613          	li	a2,0
    80009800:	14000593          	li	a1,320
    80009804:	3f050513          	addi	a0,a0,1008 # 233f0 <_start-0x7ffdcc2c>
    80009808:	625040ef          	jal	ra,8000e62c <__assert_func>

000000008000980c <__lshift>:
    8000980c:	fc010113          	addi	sp,sp,-64
    80009810:	03213023          	sd	s2,32(sp)
    80009814:	0145a903          	lw	s2,20(a1)
    80009818:	00c5a783          	lw	a5,12(a1)
    8000981c:	01513423          	sd	s5,8(sp)
    80009820:	40565a9b          	sraiw	s5,a2,0x5
    80009824:	0159093b          	addw	s2,s2,s5
    80009828:	02813823          	sd	s0,48(sp)
    8000982c:	02913423          	sd	s1,40(sp)
    80009830:	01313c23          	sd	s3,24(sp)
    80009834:	01413823          	sd	s4,16(sp)
    80009838:	01613023          	sd	s6,0(sp)
    8000983c:	02113c23          	sd	ra,56(sp)
    80009840:	0019049b          	addiw	s1,s2,1
    80009844:	00058413          	mv	s0,a1
    80009848:	00060a13          	mv	s4,a2
    8000984c:	0085a583          	lw	a1,8(a1)
    80009850:	00050993          	mv	s3,a0
    80009854:	40565b13          	srai	s6,a2,0x5
    80009858:	0097d863          	bge	a5,s1,80009868 <__lshift+0x5c>
    8000985c:	0017979b          	slliw	a5,a5,0x1
    80009860:	0015859b          	addiw	a1,a1,1
    80009864:	fe97cce3          	blt	a5,s1,8000985c <__lshift+0x50>
    80009868:	00098513          	mv	a0,s3
    8000986c:	e88ff0ef          	jal	ra,80008ef4 <_Balloc>
    80009870:	12050263          	beqz	a0,80009994 <__lshift+0x188>
    80009874:	01850693          	addi	a3,a0,24
    80009878:	03605863          	blez	s6,800098a8 <__lshift+0x9c>
    8000987c:	006a871b          	addiw	a4,s5,6
    80009880:	02071713          	slli	a4,a4,0x20
    80009884:	01e75713          	srli	a4,a4,0x1e
    80009888:	00e50733          	add	a4,a0,a4
    8000988c:	00068793          	mv	a5,a3
    80009890:	00478793          	addi	a5,a5,4
    80009894:	fe07ae23          	sw	zero,-4(a5)
    80009898:	fee79ce3          	bne	a5,a4,80009890 <__lshift+0x84>
    8000989c:	020a9a93          	slli	s5,s5,0x20
    800098a0:	01eada93          	srli	s5,s5,0x1e
    800098a4:	015686b3          	add	a3,a3,s5
    800098a8:	01442803          	lw	a6,20(s0)
    800098ac:	01840793          	addi	a5,s0,24
    800098b0:	01fa7893          	andi	a7,s4,31
    800098b4:	00281813          	slli	a6,a6,0x2
    800098b8:	01078833          	add	a6,a5,a6
    800098bc:	0a088663          	beqz	a7,80009968 <__lshift+0x15c>
    800098c0:	02000313          	li	t1,32
    800098c4:	4113033b          	subw	t1,t1,a7
    800098c8:	00068593          	mv	a1,a3
    800098cc:	00000713          	li	a4,0
    800098d0:	0007a603          	lw	a2,0(a5)
    800098d4:	00458593          	addi	a1,a1,4
    800098d8:	00478793          	addi	a5,a5,4
    800098dc:	0116163b          	sllw	a2,a2,a7
    800098e0:	00c76733          	or	a4,a4,a2
    800098e4:	fee5ae23          	sw	a4,-4(a1)
    800098e8:	ffc7a703          	lw	a4,-4(a5)
    800098ec:	0067573b          	srlw	a4,a4,t1
    800098f0:	ff07e0e3          	bltu	a5,a6,800098d0 <__lshift+0xc4>
    800098f4:	01940613          	addi	a2,s0,25
    800098f8:	00400793          	li	a5,4
    800098fc:	00c86a63          	bltu	a6,a2,80009910 <__lshift+0x104>
    80009900:	408807b3          	sub	a5,a6,s0
    80009904:	fe778793          	addi	a5,a5,-25
    80009908:	ffc7f793          	andi	a5,a5,-4
    8000990c:	00478793          	addi	a5,a5,4
    80009910:	00f686b3          	add	a3,a3,a5
    80009914:	00e6a023          	sw	a4,0(a3)
    80009918:	00070463          	beqz	a4,80009920 <__lshift+0x114>
    8000991c:	00048913          	mv	s2,s1
    80009920:	00842703          	lw	a4,8(s0)
    80009924:	0789b783          	ld	a5,120(s3)
    80009928:	01252a23          	sw	s2,20(a0)
    8000992c:	00371713          	slli	a4,a4,0x3
    80009930:	00e787b3          	add	a5,a5,a4
    80009934:	0007b703          	ld	a4,0(a5)
    80009938:	03813083          	ld	ra,56(sp)
    8000993c:	02813483          	ld	s1,40(sp)
    80009940:	00e43023          	sd	a4,0(s0)
    80009944:	0087b023          	sd	s0,0(a5)
    80009948:	03013403          	ld	s0,48(sp)
    8000994c:	02013903          	ld	s2,32(sp)
    80009950:	01813983          	ld	s3,24(sp)
    80009954:	01013a03          	ld	s4,16(sp)
    80009958:	00813a83          	ld	s5,8(sp)
    8000995c:	00013b03          	ld	s6,0(sp)
    80009960:	04010113          	addi	sp,sp,64
    80009964:	00008067          	ret
    80009968:	0007a703          	lw	a4,0(a5)
    8000996c:	00478793          	addi	a5,a5,4
    80009970:	00468693          	addi	a3,a3,4
    80009974:	fee6ae23          	sw	a4,-4(a3)
    80009978:	fb07f4e3          	bgeu	a5,a6,80009920 <__lshift+0x114>
    8000997c:	0007a703          	lw	a4,0(a5)
    80009980:	00478793          	addi	a5,a5,4
    80009984:	00468693          	addi	a3,a3,4
    80009988:	fee6ae23          	sw	a4,-4(a3)
    8000998c:	fd07eee3          	bltu	a5,a6,80009968 <__lshift+0x15c>
    80009990:	f91ff06f          	j	80009920 <__lshift+0x114>
    80009994:	000236b7          	lui	a3,0x23
    80009998:	00023537          	lui	a0,0x23
    8000999c:	0f068693          	addi	a3,a3,240 # 230f0 <_start-0x7ffdcf2c>
    800099a0:	00000613          	li	a2,0
    800099a4:	1d900593          	li	a1,473
    800099a8:	3f050513          	addi	a0,a0,1008 # 233f0 <_start-0x7ffdcc2c>
    800099ac:	481040ef          	jal	ra,8000e62c <__assert_func>

00000000800099b0 <__mcmp>:
    800099b0:	0145a783          	lw	a5,20(a1)
    800099b4:	00050813          	mv	a6,a0
    800099b8:	01452503          	lw	a0,20(a0)
    800099bc:	40f5053b          	subw	a0,a0,a5
    800099c0:	02051e63          	bnez	a0,800099fc <__mcmp+0x4c>
    800099c4:	00279793          	slli	a5,a5,0x2
    800099c8:	01880813          	addi	a6,a6,24
    800099cc:	01858593          	addi	a1,a1,24
    800099d0:	00f80733          	add	a4,a6,a5
    800099d4:	00f587b3          	add	a5,a1,a5
    800099d8:	0080006f          	j	800099e0 <__mcmp+0x30>
    800099dc:	02e87063          	bgeu	a6,a4,800099fc <__mcmp+0x4c>
    800099e0:	ffc72603          	lw	a2,-4(a4)
    800099e4:	ffc7a683          	lw	a3,-4(a5)
    800099e8:	ffc70713          	addi	a4,a4,-4
    800099ec:	ffc78793          	addi	a5,a5,-4
    800099f0:	fed606e3          	beq	a2,a3,800099dc <__mcmp+0x2c>
    800099f4:	fff00513          	li	a0,-1
    800099f8:	00d67463          	bgeu	a2,a3,80009a00 <__mcmp+0x50>
    800099fc:	00008067          	ret
    80009a00:	00100513          	li	a0,1
    80009a04:	00008067          	ret

0000000080009a08 <__mdiff>:
    80009a08:	fe010113          	addi	sp,sp,-32
    80009a0c:	01462703          	lw	a4,20(a2)
    80009a10:	01213023          	sd	s2,0(sp)
    80009a14:	0145a903          	lw	s2,20(a1)
    80009a18:	00813823          	sd	s0,16(sp)
    80009a1c:	00913423          	sd	s1,8(sp)
    80009a20:	00113c23          	sd	ra,24(sp)
    80009a24:	40e9093b          	subw	s2,s2,a4
    80009a28:	00058493          	mv	s1,a1
    80009a2c:	00060413          	mv	s0,a2
    80009a30:	1a091863          	bnez	s2,80009be0 <__mdiff+0x1d8>
    80009a34:	00271693          	slli	a3,a4,0x2
    80009a38:	01858593          	addi	a1,a1,24
    80009a3c:	01860713          	addi	a4,a2,24
    80009a40:	00d587b3          	add	a5,a1,a3
    80009a44:	00d70733          	add	a4,a4,a3
    80009a48:	0080006f          	j	80009a50 <__mdiff+0x48>
    80009a4c:	1af5f063          	bgeu	a1,a5,80009bec <__mdiff+0x1e4>
    80009a50:	ffc7a603          	lw	a2,-4(a5)
    80009a54:	ffc72683          	lw	a3,-4(a4)
    80009a58:	ffc78793          	addi	a5,a5,-4
    80009a5c:	ffc70713          	addi	a4,a4,-4
    80009a60:	fed606e3          	beq	a2,a3,80009a4c <__mdiff+0x44>
    80009a64:	16d66463          	bltu	a2,a3,80009bcc <__mdiff+0x1c4>
    80009a68:	0084a583          	lw	a1,8(s1)
    80009a6c:	c88ff0ef          	jal	ra,80008ef4 <_Balloc>
    80009a70:	1a050663          	beqz	a0,80009c1c <__mdiff+0x214>
    80009a74:	0144a883          	lw	a7,20(s1)
    80009a78:	01442f83          	lw	t6,20(s0)
    80009a7c:	01848493          	addi	s1,s1,24
    80009a80:	00289313          	slli	t1,a7,0x2
    80009a84:	01840813          	addi	a6,s0,24
    80009a88:	002f9f93          	slli	t6,t6,0x2
    80009a8c:	01850f13          	addi	t5,a0,24
    80009a90:	00010e37          	lui	t3,0x10
    80009a94:	01252823          	sw	s2,16(a0)
    80009a98:	00648333          	add	t1,s1,t1
    80009a9c:	01f80fb3          	add	t6,a6,t6
    80009aa0:	000f0613          	mv	a2,t5
    80009aa4:	00048e93          	mv	t4,s1
    80009aa8:	00000713          	li	a4,0
    80009aac:	fffe0e13          	addi	t3,t3,-1 # ffff <_start-0x7fff001d>
    80009ab0:	000ea683          	lw	a3,0(t4)
    80009ab4:	00082583          	lw	a1,0(a6)
    80009ab8:	00460613          	addi	a2,a2,4
    80009abc:	01c6f7b3          	and	a5,a3,t3
    80009ac0:	00e787bb          	addw	a5,a5,a4
    80009ac4:	01c5f733          	and	a4,a1,t3
    80009ac8:	40e787bb          	subw	a5,a5,a4
    80009acc:	0105d59b          	srliw	a1,a1,0x10
    80009ad0:	0106d71b          	srliw	a4,a3,0x10
    80009ad4:	40b7073b          	subw	a4,a4,a1
    80009ad8:	4107d69b          	sraiw	a3,a5,0x10
    80009adc:	00d7073b          	addw	a4,a4,a3
    80009ae0:	0107169b          	slliw	a3,a4,0x10
    80009ae4:	01c7f7b3          	and	a5,a5,t3
    80009ae8:	00d7e7b3          	or	a5,a5,a3
    80009aec:	0007879b          	sext.w	a5,a5
    80009af0:	00480813          	addi	a6,a6,4
    80009af4:	fef62e23          	sw	a5,-4(a2)
    80009af8:	004e8e93          	addi	t4,t4,4
    80009afc:	4107571b          	sraiw	a4,a4,0x10
    80009b00:	fbf868e3          	bltu	a6,t6,80009ab0 <__mdiff+0xa8>
    80009b04:	408f85b3          	sub	a1,t6,s0
    80009b08:	fe758593          	addi	a1,a1,-25
    80009b0c:	01940413          	addi	s0,s0,25
    80009b10:	0025d593          	srli	a1,a1,0x2
    80009b14:	00000693          	li	a3,0
    80009b18:	008fe463          	bltu	t6,s0,80009b20 <__mdiff+0x118>
    80009b1c:	00259693          	slli	a3,a1,0x2
    80009b20:	00df06b3          	add	a3,t5,a3
    80009b24:	00400813          	li	a6,4
    80009b28:	008fe663          	bltu	t6,s0,80009b34 <__mdiff+0x12c>
    80009b2c:	00158593          	addi	a1,a1,1
    80009b30:	00259813          	slli	a6,a1,0x2
    80009b34:	010484b3          	add	s1,s1,a6
    80009b38:	010f0f33          	add	t5,t5,a6
    80009b3c:	0664f063          	bgeu	s1,t1,80009b9c <__mdiff+0x194>
    80009b40:	00010837          	lui	a6,0x10
    80009b44:	000f0593          	mv	a1,t5
    80009b48:	00048613          	mv	a2,s1
    80009b4c:	fff80813          	addi	a6,a6,-1 # ffff <_start-0x7fff001d>
    80009b50:	00062683          	lw	a3,0(a2)
    80009b54:	00458593          	addi	a1,a1,4
    80009b58:	00460613          	addi	a2,a2,4
    80009b5c:	0106f7b3          	and	a5,a3,a6
    80009b60:	00e787bb          	addw	a5,a5,a4
    80009b64:	0106d71b          	srliw	a4,a3,0x10
    80009b68:	4107d69b          	sraiw	a3,a5,0x10
    80009b6c:	00d7073b          	addw	a4,a4,a3
    80009b70:	0107169b          	slliw	a3,a4,0x10
    80009b74:	0107f7b3          	and	a5,a5,a6
    80009b78:	00d7e7b3          	or	a5,a5,a3
    80009b7c:	0007879b          	sext.w	a5,a5
    80009b80:	fef5ae23          	sw	a5,-4(a1)
    80009b84:	4107571b          	sraiw	a4,a4,0x10
    80009b88:	fc6664e3          	bltu	a2,t1,80009b50 <__mdiff+0x148>
    80009b8c:	fff30693          	addi	a3,t1,-1
    80009b90:	409684b3          	sub	s1,a3,s1
    80009b94:	ffc4f693          	andi	a3,s1,-4
    80009b98:	00df06b3          	add	a3,t5,a3
    80009b9c:	00079a63          	bnez	a5,80009bb0 <__mdiff+0x1a8>
    80009ba0:	ffc6a783          	lw	a5,-4(a3)
    80009ba4:	fff8889b          	addiw	a7,a7,-1
    80009ba8:	ffc68693          	addi	a3,a3,-4
    80009bac:	fe078ae3          	beqz	a5,80009ba0 <__mdiff+0x198>
    80009bb0:	01813083          	ld	ra,24(sp)
    80009bb4:	01013403          	ld	s0,16(sp)
    80009bb8:	01152a23          	sw	a7,20(a0)
    80009bbc:	00813483          	ld	s1,8(sp)
    80009bc0:	00013903          	ld	s2,0(sp)
    80009bc4:	02010113          	addi	sp,sp,32
    80009bc8:	00008067          	ret
    80009bcc:	00048793          	mv	a5,s1
    80009bd0:	00100913          	li	s2,1
    80009bd4:	00040493          	mv	s1,s0
    80009bd8:	00078413          	mv	s0,a5
    80009bdc:	e8dff06f          	j	80009a68 <__mdiff+0x60>
    80009be0:	fe0946e3          	bltz	s2,80009bcc <__mdiff+0x1c4>
    80009be4:	00000913          	li	s2,0
    80009be8:	e81ff06f          	j	80009a68 <__mdiff+0x60>
    80009bec:	00000593          	li	a1,0
    80009bf0:	b04ff0ef          	jal	ra,80008ef4 <_Balloc>
    80009bf4:	04050263          	beqz	a0,80009c38 <__mdiff+0x230>
    80009bf8:	01813083          	ld	ra,24(sp)
    80009bfc:	01013403          	ld	s0,16(sp)
    80009c00:	00100793          	li	a5,1
    80009c04:	00f52a23          	sw	a5,20(a0)
    80009c08:	00052c23          	sw	zero,24(a0)
    80009c0c:	00813483          	ld	s1,8(sp)
    80009c10:	00013903          	ld	s2,0(sp)
    80009c14:	02010113          	addi	sp,sp,32
    80009c18:	00008067          	ret
    80009c1c:	000236b7          	lui	a3,0x23
    80009c20:	00023537          	lui	a0,0x23
    80009c24:	0f068693          	addi	a3,a3,240 # 230f0 <_start-0x7ffdcf2c>
    80009c28:	00000613          	li	a2,0
    80009c2c:	24000593          	li	a1,576
    80009c30:	3f050513          	addi	a0,a0,1008 # 233f0 <_start-0x7ffdcc2c>
    80009c34:	1f9040ef          	jal	ra,8000e62c <__assert_func>
    80009c38:	000236b7          	lui	a3,0x23
    80009c3c:	00023537          	lui	a0,0x23
    80009c40:	0f068693          	addi	a3,a3,240 # 230f0 <_start-0x7ffdcf2c>
    80009c44:	00000613          	li	a2,0
    80009c48:	23200593          	li	a1,562
    80009c4c:	3f050513          	addi	a0,a0,1008 # 233f0 <_start-0x7ffdcc2c>
    80009c50:	1dd040ef          	jal	ra,8000e62c <__assert_func>

0000000080009c54 <__ulp>:
    80009c54:	02055513          	srli	a0,a0,0x20
    80009c58:	7ff007b7          	lui	a5,0x7ff00
    80009c5c:	00f577b3          	and	a5,a0,a5
    80009c60:	fcc00537          	lui	a0,0xfcc00
    80009c64:	00f5053b          	addw	a0,a0,a5
    80009c68:	0005079b          	sext.w	a5,a0
    80009c6c:	00f05663          	blez	a5,80009c78 <__ulp+0x24>
    80009c70:	02051513          	slli	a0,a0,0x20
    80009c74:	00008067          	ret
    80009c78:	40a0053b          	negw	a0,a0
    80009c7c:	4145579b          	sraiw	a5,a0,0x14
    80009c80:	01300713          	li	a4,19
    80009c84:	00f74a63          	blt	a4,a5,80009c98 <__ulp+0x44>
    80009c88:	00080537          	lui	a0,0x80
    80009c8c:	40f5553b          	sraw	a0,a0,a5
    80009c90:	02051513          	slli	a0,a0,0x20
    80009c94:	00008067          	ret
    80009c98:	fec7871b          	addiw	a4,a5,-20
    80009c9c:	01e00693          	li	a3,30
    80009ca0:	00000513          	li	a0,0
    80009ca4:	00100793          	li	a5,1
    80009ca8:	00e6c663          	blt	a3,a4,80009cb4 <__ulp+0x60>
    80009cac:	800007b7          	lui	a5,0x80000
    80009cb0:	00e7d7bb          	srlw	a5,a5,a4
    80009cb4:	02055513          	srli	a0,a0,0x20
    80009cb8:	02079793          	slli	a5,a5,0x20
    80009cbc:	0207d793          	srli	a5,a5,0x20
    80009cc0:	02051513          	slli	a0,a0,0x20
    80009cc4:	00f56533          	or	a0,a0,a5
    80009cc8:	00008067          	ret

0000000080009ccc <__b2d>:
    80009ccc:	fd010113          	addi	sp,sp,-48
    80009cd0:	00913c23          	sd	s1,24(sp)
    80009cd4:	01452483          	lw	s1,20(a0) # 80014 <_start-0x7ff80008>
    80009cd8:	02813023          	sd	s0,32(sp)
    80009cdc:	01850413          	addi	s0,a0,24
    80009ce0:	00249493          	slli	s1,s1,0x2
    80009ce4:	009404b3          	add	s1,s0,s1
    80009ce8:	01213823          	sd	s2,16(sp)
    80009cec:	ffc4a903          	lw	s2,-4(s1)
    80009cf0:	01313423          	sd	s3,8(sp)
    80009cf4:	01413023          	sd	s4,0(sp)
    80009cf8:	00090513          	mv	a0,s2
    80009cfc:	00058993          	mv	s3,a1
    80009d00:	02113423          	sd	ra,40(sp)
    80009d04:	d6cff0ef          	jal	ra,80009270 <__hi0bits>
    80009d08:	02000693          	li	a3,32
    80009d0c:	40a687bb          	subw	a5,a3,a0
    80009d10:	00f9a023          	sw	a5,0(s3)
    80009d14:	00a00793          	li	a5,10
    80009d18:	ffc48a13          	addi	s4,s1,-4
    80009d1c:	00050713          	mv	a4,a0
    80009d20:	0ca7d263          	bge	a5,a0,80009de4 <__b2d+0x118>
    80009d24:	ff55061b          	addiw	a2,a0,-11
    80009d28:	07447e63          	bgeu	s0,s4,80009da4 <__b2d+0xd8>
    80009d2c:	ff84a783          	lw	a5,-8(s1)
    80009d30:	06060e63          	beqz	a2,80009dac <__b2d+0xe0>
    80009d34:	40c6873b          	subw	a4,a3,a2
    80009d38:	00c9153b          	sllw	a0,s2,a2
    80009d3c:	00e7d93b          	srlw	s2,a5,a4
    80009d40:	01256533          	or	a0,a0,s2
    80009d44:	3ff00937          	lui	s2,0x3ff00
    80009d48:	00c797bb          	sllw	a5,a5,a2
    80009d4c:	01256533          	or	a0,a0,s2
    80009d50:	ff848613          	addi	a2,s1,-8
    80009d54:	02051513          	slli	a0,a0,0x20
    80009d58:	0007869b          	sext.w	a3,a5
    80009d5c:	00c47a63          	bgeu	s0,a2,80009d70 <__b2d+0xa4>
    80009d60:	ff44a683          	lw	a3,-12(s1)
    80009d64:	00e6d73b          	srlw	a4,a3,a4
    80009d68:	00f766b3          	or	a3,a4,a5
    80009d6c:	0006869b          	sext.w	a3,a3
    80009d70:	02813083          	ld	ra,40(sp)
    80009d74:	02013403          	ld	s0,32(sp)
    80009d78:	02055513          	srli	a0,a0,0x20
    80009d7c:	02069693          	slli	a3,a3,0x20
    80009d80:	0206d693          	srli	a3,a3,0x20
    80009d84:	02051513          	slli	a0,a0,0x20
    80009d88:	01813483          	ld	s1,24(sp)
    80009d8c:	01013903          	ld	s2,16(sp)
    80009d90:	00813983          	ld	s3,8(sp)
    80009d94:	00013a03          	ld	s4,0(sp)
    80009d98:	00d56533          	or	a0,a0,a3
    80009d9c:	03010113          	addi	sp,sp,48
    80009da0:	00008067          	ret
    80009da4:	00000793          	li	a5,0
    80009da8:	0a061263          	bnez	a2,80009e4c <__b2d+0x180>
    80009dac:	02813083          	ld	ra,40(sp)
    80009db0:	02013403          	ld	s0,32(sp)
    80009db4:	3ff00537          	lui	a0,0x3ff00
    80009db8:	00a96533          	or	a0,s2,a0
    80009dbc:	02079793          	slli	a5,a5,0x20
    80009dc0:	0207d793          	srli	a5,a5,0x20
    80009dc4:	02051513          	slli	a0,a0,0x20
    80009dc8:	01813483          	ld	s1,24(sp)
    80009dcc:	01013903          	ld	s2,16(sp)
    80009dd0:	00813983          	ld	s3,8(sp)
    80009dd4:	00013a03          	ld	s4,0(sp)
    80009dd8:	00f56533          	or	a0,a0,a5
    80009ddc:	03010113          	addi	sp,sp,48
    80009de0:	00008067          	ret
    80009de4:	00b00693          	li	a3,11
    80009de8:	40a686bb          	subw	a3,a3,a0
    80009dec:	00d957bb          	srlw	a5,s2,a3
    80009df0:	3ff00537          	lui	a0,0x3ff00
    80009df4:	00a7e7b3          	or	a5,a5,a0
    80009df8:	02079513          	slli	a0,a5,0x20
    80009dfc:	00000793          	li	a5,0
    80009e00:	01447663          	bgeu	s0,s4,80009e0c <__b2d+0x140>
    80009e04:	ff84a783          	lw	a5,-8(s1)
    80009e08:	00d7d7bb          	srlw	a5,a5,a3
    80009e0c:	0157071b          	addiw	a4,a4,21
    80009e10:	00e9173b          	sllw	a4,s2,a4
    80009e14:	02813083          	ld	ra,40(sp)
    80009e18:	02013403          	ld	s0,32(sp)
    80009e1c:	00e7e733          	or	a4,a5,a4
    80009e20:	02055513          	srli	a0,a0,0x20
    80009e24:	02071713          	slli	a4,a4,0x20
    80009e28:	02075713          	srli	a4,a4,0x20
    80009e2c:	02051513          	slli	a0,a0,0x20
    80009e30:	01813483          	ld	s1,24(sp)
    80009e34:	01013903          	ld	s2,16(sp)
    80009e38:	00813983          	ld	s3,8(sp)
    80009e3c:	00013a03          	ld	s4,0(sp)
    80009e40:	00e56533          	or	a0,a0,a4
    80009e44:	03010113          	addi	sp,sp,48
    80009e48:	00008067          	ret
    80009e4c:	00c9153b          	sllw	a0,s2,a2
    80009e50:	3ff00937          	lui	s2,0x3ff00
    80009e54:	01256533          	or	a0,a0,s2
    80009e58:	02051513          	slli	a0,a0,0x20
    80009e5c:	00000693          	li	a3,0
    80009e60:	f11ff06f          	j	80009d70 <__b2d+0xa4>

0000000080009e64 <__d2b>:
    80009e64:	fc010113          	addi	sp,sp,-64
    80009e68:	02813823          	sd	s0,48(sp)
    80009e6c:	00058413          	mv	s0,a1
    80009e70:	00100593          	li	a1,1
    80009e74:	01313c23          	sd	s3,24(sp)
    80009e78:	01413823          	sd	s4,16(sp)
    80009e7c:	02113c23          	sd	ra,56(sp)
    80009e80:	02913423          	sd	s1,40(sp)
    80009e84:	03213023          	sd	s2,32(sp)
    80009e88:	00060a13          	mv	s4,a2
    80009e8c:	00068993          	mv	s3,a3
    80009e90:	864ff0ef          	jal	ra,80008ef4 <_Balloc>
    80009e94:	10050c63          	beqz	a0,80009fac <__d2b+0x148>
    80009e98:	42045793          	srai	a5,s0,0x20
    80009e9c:	0147d91b          	srliw	s2,a5,0x14
    80009ea0:	7ff97913          	andi	s2,s2,2047
    80009ea4:	02c79793          	slli	a5,a5,0x2c
    80009ea8:	00050493          	mv	s1,a0
    80009eac:	02c7d793          	srli	a5,a5,0x2c
    80009eb0:	00090663          	beqz	s2,80009ebc <__d2b+0x58>
    80009eb4:	00100737          	lui	a4,0x100
    80009eb8:	00e7e7b3          	or	a5,a5,a4
    80009ebc:	00f12623          	sw	a5,12(sp)
    80009ec0:	0004041b          	sext.w	s0,s0
    80009ec4:	08040663          	beqz	s0,80009f50 <__d2b+0xec>
    80009ec8:	00810513          	addi	a0,sp,8
    80009ecc:	00812423          	sw	s0,8(sp)
    80009ed0:	c18ff0ef          	jal	ra,800092e8 <__lo0bits>
    80009ed4:	0c050463          	beqz	a0,80009f9c <__d2b+0x138>
    80009ed8:	00c12703          	lw	a4,12(sp)
    80009edc:	00812683          	lw	a3,8(sp)
    80009ee0:	02000793          	li	a5,32
    80009ee4:	40a787bb          	subw	a5,a5,a0
    80009ee8:	00f717bb          	sllw	a5,a4,a5
    80009eec:	00d7e7b3          	or	a5,a5,a3
    80009ef0:	00a7573b          	srlw	a4,a4,a0
    80009ef4:	00f4ac23          	sw	a5,24(s1)
    80009ef8:	00e12623          	sw	a4,12(sp)
    80009efc:	0007079b          	sext.w	a5,a4
    80009f00:	00f03433          	snez	s0,a5
    80009f04:	00140413          	addi	s0,s0,1
    80009f08:	00f4ae23          	sw	a5,28(s1)
    80009f0c:	0084aa23          	sw	s0,20(s1)
    80009f10:	06090263          	beqz	s2,80009f74 <__d2b+0x110>
    80009f14:	bcd9091b          	addiw	s2,s2,-1075
    80009f18:	00a9093b          	addw	s2,s2,a0
    80009f1c:	03500793          	li	a5,53
    80009f20:	012a2023          	sw	s2,0(s4)
    80009f24:	40a7853b          	subw	a0,a5,a0
    80009f28:	00a9a023          	sw	a0,0(s3)
    80009f2c:	03813083          	ld	ra,56(sp)
    80009f30:	03013403          	ld	s0,48(sp)
    80009f34:	02013903          	ld	s2,32(sp)
    80009f38:	01813983          	ld	s3,24(sp)
    80009f3c:	01013a03          	ld	s4,16(sp)
    80009f40:	00048513          	mv	a0,s1
    80009f44:	02813483          	ld	s1,40(sp)
    80009f48:	04010113          	addi	sp,sp,64
    80009f4c:	00008067          	ret
    80009f50:	00c10513          	addi	a0,sp,12
    80009f54:	b94ff0ef          	jal	ra,800092e8 <__lo0bits>
    80009f58:	00100793          	li	a5,1
    80009f5c:	00f4aa23          	sw	a5,20(s1)
    80009f60:	00c12783          	lw	a5,12(sp)
    80009f64:	0205051b          	addiw	a0,a0,32
    80009f68:	00100413          	li	s0,1
    80009f6c:	00f4ac23          	sw	a5,24(s1)
    80009f70:	fa0912e3          	bnez	s2,80009f14 <__d2b+0xb0>
    80009f74:	bce5051b          	addiw	a0,a0,-1074
    80009f78:	00241793          	slli	a5,s0,0x2
    80009f7c:	00aa2023          	sw	a0,0(s4)
    80009f80:	00f487b3          	add	a5,s1,a5
    80009f84:	0147a503          	lw	a0,20(a5) # ffffffff80000014 <t0.2038+0xfffffffefffc33cc>
    80009f88:	0054141b          	slliw	s0,s0,0x5
    80009f8c:	ae4ff0ef          	jal	ra,80009270 <__hi0bits>
    80009f90:	40a4043b          	subw	s0,s0,a0
    80009f94:	0089a023          	sw	s0,0(s3)
    80009f98:	f95ff06f          	j	80009f2c <__d2b+0xc8>
    80009f9c:	00812703          	lw	a4,8(sp)
    80009fa0:	00c12783          	lw	a5,12(sp)
    80009fa4:	00e4ac23          	sw	a4,24(s1)
    80009fa8:	f59ff06f          	j	80009f00 <__d2b+0x9c>
    80009fac:	000236b7          	lui	a3,0x23
    80009fb0:	00023537          	lui	a0,0x23
    80009fb4:	0f068693          	addi	a3,a3,240 # 230f0 <_start-0x7ffdcf2c>
    80009fb8:	00000613          	li	a2,0
    80009fbc:	30a00593          	li	a1,778
    80009fc0:	3f050513          	addi	a0,a0,1008 # 233f0 <_start-0x7ffdcc2c>
    80009fc4:	668040ef          	jal	ra,8000e62c <__assert_func>

0000000080009fc8 <__ratio>:
    80009fc8:	fd010113          	addi	sp,sp,-48
    80009fcc:	00913c23          	sd	s1,24(sp)
    80009fd0:	00058493          	mv	s1,a1
    80009fd4:	00810593          	addi	a1,sp,8
    80009fd8:	02113423          	sd	ra,40(sp)
    80009fdc:	02813023          	sd	s0,32(sp)
    80009fe0:	01213823          	sd	s2,16(sp)
    80009fe4:	00050913          	mv	s2,a0
    80009fe8:	ce5ff0ef          	jal	ra,80009ccc <__b2d>
    80009fec:	00c10593          	addi	a1,sp,12
    80009ff0:	00050413          	mv	s0,a0
    80009ff4:	00048513          	mv	a0,s1
    80009ff8:	cd5ff0ef          	jal	ra,80009ccc <__b2d>
    80009ffc:	0144a703          	lw	a4,20(s1)
    8000a000:	01492783          	lw	a5,20(s2) # 3ff00014 <_start-0x40100008>
    8000a004:	00c12683          	lw	a3,12(sp)
    8000a008:	00050593          	mv	a1,a0
    8000a00c:	40e787bb          	subw	a5,a5,a4
    8000a010:	00812703          	lw	a4,8(sp)
    8000a014:	0057979b          	slliw	a5,a5,0x5
    8000a018:	40d7073b          	subw	a4,a4,a3
    8000a01c:	00e7873b          	addw	a4,a5,a4
    8000a020:	00070793          	mv	a5,a4
    8000a024:	04e05263          	blez	a4,8000a068 <__ratio+0xa0>
    8000a028:	02045713          	srli	a4,s0,0x20
    8000a02c:	0147979b          	slliw	a5,a5,0x14
    8000a030:	00e787bb          	addw	a5,a5,a4
    8000a034:	fff00713          	li	a4,-1
    8000a038:	02075713          	srli	a4,a4,0x20
    8000a03c:	02079793          	slli	a5,a5,0x20
    8000a040:	00877433          	and	s0,a4,s0
    8000a044:	00f46433          	or	s0,s0,a5
    8000a048:	00040513          	mv	a0,s0
    8000a04c:	479060ef          	jal	ra,80010cc4 <__divdf3>
    8000a050:	02813083          	ld	ra,40(sp)
    8000a054:	02013403          	ld	s0,32(sp)
    8000a058:	01813483          	ld	s1,24(sp)
    8000a05c:	01013903          	ld	s2,16(sp)
    8000a060:	03010113          	addi	sp,sp,48
    8000a064:	00008067          	ret
    8000a068:	02055713          	srli	a4,a0,0x20
    8000a06c:	0147979b          	slliw	a5,a5,0x14
    8000a070:	fff00513          	li	a0,-1
    8000a074:	40f707bb          	subw	a5,a4,a5
    8000a078:	02055513          	srli	a0,a0,0x20
    8000a07c:	02079793          	slli	a5,a5,0x20
    8000a080:	00b575b3          	and	a1,a0,a1
    8000a084:	00f5e5b3          	or	a1,a1,a5
    8000a088:	fc1ff06f          	j	8000a048 <__ratio+0x80>

000000008000a08c <_mprec_log10>:
    8000a08c:	fe010113          	addi	sp,sp,-32
    8000a090:	00813823          	sd	s0,16(sp)
    8000a094:	00113c23          	sd	ra,24(sp)
    8000a098:	00913423          	sd	s1,8(sp)
    8000a09c:	01700793          	li	a5,23
    8000a0a0:	00050413          	mv	s0,a0
    8000a0a4:	02a7d863          	bge	a5,a0,8000a0d4 <_mprec_log10+0x48>
    8000a0a8:	8181b503          	ld	a0,-2024(gp) # 80015138 <__SDATA_BEGIN__+0x18>
    8000a0ac:	8201b483          	ld	s1,-2016(gp) # 80015140 <__SDATA_BEGIN__+0x20>
    8000a0b0:	00048593          	mv	a1,s1
    8000a0b4:	fff4041b          	addiw	s0,s0,-1
    8000a0b8:	751060ef          	jal	ra,80011008 <__muldf3>
    8000a0bc:	fe041ae3          	bnez	s0,8000a0b0 <_mprec_log10+0x24>
    8000a0c0:	01813083          	ld	ra,24(sp)
    8000a0c4:	01013403          	ld	s0,16(sp)
    8000a0c8:	00813483          	ld	s1,8(sp)
    8000a0cc:	02010113          	addi	sp,sp,32
    8000a0d0:	00008067          	ret
    8000a0d4:	000237b7          	lui	a5,0x23
    8000a0d8:	00351413          	slli	s0,a0,0x3
    8000a0dc:	45078793          	addi	a5,a5,1104 # 23450 <_start-0x7ffdcbcc>
    8000a0e0:	00878433          	add	s0,a5,s0
    8000a0e4:	01043503          	ld	a0,16(s0)
    8000a0e8:	01813083          	ld	ra,24(sp)
    8000a0ec:	01013403          	ld	s0,16(sp)
    8000a0f0:	00813483          	ld	s1,8(sp)
    8000a0f4:	02010113          	addi	sp,sp,32
    8000a0f8:	00008067          	ret

000000008000a0fc <__copybits>:
    8000a0fc:	01462683          	lw	a3,20(a2)
    8000a100:	fff5859b          	addiw	a1,a1,-1
    8000a104:	4055d59b          	sraiw	a1,a1,0x5
    8000a108:	0015859b          	addiw	a1,a1,1
    8000a10c:	01860793          	addi	a5,a2,24
    8000a110:	00269693          	slli	a3,a3,0x2
    8000a114:	00259593          	slli	a1,a1,0x2
    8000a118:	00d786b3          	add	a3,a5,a3
    8000a11c:	00b505b3          	add	a1,a0,a1
    8000a120:	02d7f863          	bgeu	a5,a3,8000a150 <__copybits+0x54>
    8000a124:	00050713          	mv	a4,a0
    8000a128:	0007a803          	lw	a6,0(a5)
    8000a12c:	00478793          	addi	a5,a5,4
    8000a130:	00470713          	addi	a4,a4,4 # 100004 <_start-0x7ff00018>
    8000a134:	ff072e23          	sw	a6,-4(a4)
    8000a138:	fed7e8e3          	bltu	a5,a3,8000a128 <__copybits+0x2c>
    8000a13c:	40c687b3          	sub	a5,a3,a2
    8000a140:	fe778793          	addi	a5,a5,-25
    8000a144:	ffc7f793          	andi	a5,a5,-4
    8000a148:	00478793          	addi	a5,a5,4
    8000a14c:	00f50533          	add	a0,a0,a5
    8000a150:	00b57863          	bgeu	a0,a1,8000a160 <__copybits+0x64>
    8000a154:	00450513          	addi	a0,a0,4
    8000a158:	fe052e23          	sw	zero,-4(a0)
    8000a15c:	feb56ce3          	bltu	a0,a1,8000a154 <__copybits+0x58>
    8000a160:	00008067          	ret

000000008000a164 <__any_on>:
    8000a164:	01452703          	lw	a4,20(a0)
    8000a168:	4055d613          	srai	a2,a1,0x5
    8000a16c:	01850693          	addi	a3,a0,24
    8000a170:	02c75263          	bge	a4,a2,8000a194 <__any_on+0x30>
    8000a174:	00271793          	slli	a5,a4,0x2
    8000a178:	00f687b3          	add	a5,a3,a5
    8000a17c:	04f6f263          	bgeu	a3,a5,8000a1c0 <__any_on+0x5c>
    8000a180:	ffc7a703          	lw	a4,-4(a5)
    8000a184:	ffc78793          	addi	a5,a5,-4
    8000a188:	fe070ae3          	beqz	a4,8000a17c <__any_on+0x18>
    8000a18c:	00100513          	li	a0,1
    8000a190:	00008067          	ret
    8000a194:	00261793          	slli	a5,a2,0x2
    8000a198:	00f687b3          	add	a5,a3,a5
    8000a19c:	fee650e3          	bge	a2,a4,8000a17c <__any_on+0x18>
    8000a1a0:	01f5f593          	andi	a1,a1,31
    8000a1a4:	fc058ce3          	beqz	a1,8000a17c <__any_on+0x18>
    8000a1a8:	0007a603          	lw	a2,0(a5)
    8000a1ac:	00100513          	li	a0,1
    8000a1b0:	00b6573b          	srlw	a4,a2,a1
    8000a1b4:	00b715bb          	sllw	a1,a4,a1
    8000a1b8:	fcc582e3          	beq	a1,a2,8000a17c <__any_on+0x18>
    8000a1bc:	00008067          	ret
    8000a1c0:	00000513          	li	a0,0
    8000a1c4:	00008067          	ret

000000008000a1c8 <_realloc_r>:
    8000a1c8:	fb010113          	addi	sp,sp,-80
    8000a1cc:	03213823          	sd	s2,48(sp)
    8000a1d0:	04113423          	sd	ra,72(sp)
    8000a1d4:	04813023          	sd	s0,64(sp)
    8000a1d8:	02913c23          	sd	s1,56(sp)
    8000a1dc:	03313423          	sd	s3,40(sp)
    8000a1e0:	03413023          	sd	s4,32(sp)
    8000a1e4:	01513c23          	sd	s5,24(sp)
    8000a1e8:	01613823          	sd	s6,16(sp)
    8000a1ec:	01713423          	sd	s7,8(sp)
    8000a1f0:	01813023          	sd	s8,0(sp)
    8000a1f4:	00060913          	mv	s2,a2
    8000a1f8:	1c058663          	beqz	a1,8000a3c4 <_realloc_r+0x1fc>
    8000a1fc:	00058413          	mv	s0,a1
    8000a200:	00050a93          	mv	s5,a0
    8000a204:	ce9fe0ef          	jal	ra,80008eec <__malloc_lock>
    8000a208:	ff843703          	ld	a4,-8(s0)
    8000a20c:	01790493          	addi	s1,s2,23
    8000a210:	02e00793          	li	a5,46
    8000a214:	ff040b13          	addi	s6,s0,-16
    8000a218:	ffc77a13          	andi	s4,a4,-4
    8000a21c:	0e97fa63          	bgeu	a5,s1,8000a310 <_realloc_r+0x148>
    8000a220:	800007b7          	lui	a5,0x80000
    8000a224:	ff04f493          	andi	s1,s1,-16
    8000a228:	fff7c793          	not	a5,a5
    8000a22c:	0e97e663          	bltu	a5,s1,8000a318 <_realloc_r+0x150>
    8000a230:	0f24e463          	bltu	s1,s2,8000a318 <_realloc_r+0x150>
    8000a234:	014b09b3          	add	s3,s6,s4
    8000a238:	129a5c63          	bge	s4,s1,8000a370 <_realloc_r+0x1a8>
    8000a23c:	000257b7          	lui	a5,0x25
    8000a240:	91078b93          	addi	s7,a5,-1776 # 24910 <_start-0x7ffdb70c>
    8000a244:	010bb683          	ld	a3,16(s7)
    8000a248:	0089b783          	ld	a5,8(s3)
    8000a24c:	1d368e63          	beq	a3,s3,8000a428 <_realloc_r+0x260>
    8000a250:	ffe7f693          	andi	a3,a5,-2
    8000a254:	00d986b3          	add	a3,s3,a3
    8000a258:	0086b683          	ld	a3,8(a3)
    8000a25c:	0016f693          	andi	a3,a3,1
    8000a260:	14069463          	bnez	a3,8000a3a8 <_realloc_r+0x1e0>
    8000a264:	ffc7f793          	andi	a5,a5,-4
    8000a268:	00fa06b3          	add	a3,s4,a5
    8000a26c:	0e96d663          	bge	a3,s1,8000a358 <_realloc_r+0x190>
    8000a270:	00177713          	andi	a4,a4,1
    8000a274:	02071463          	bnez	a4,8000a29c <_realloc_r+0xd4>
    8000a278:	ff043c03          	ld	s8,-16(s0)
    8000a27c:	418b0c33          	sub	s8,s6,s8
    8000a280:	008c3703          	ld	a4,8(s8)
    8000a284:	ffc77713          	andi	a4,a4,-4
    8000a288:	00f707b3          	add	a5,a4,a5
    8000a28c:	01478bb3          	add	s7,a5,s4
    8000a290:	349bd863          	bge	s7,s1,8000a5e0 <_realloc_r+0x418>
    8000a294:	00ea0bb3          	add	s7,s4,a4
    8000a298:	2c9bd263          	bge	s7,s1,8000a55c <_realloc_r+0x394>
    8000a29c:	00090593          	mv	a1,s2
    8000a2a0:	000a8513          	mv	a0,s5
    8000a2a4:	9d8fe0ef          	jal	ra,8000847c <_malloc_r>
    8000a2a8:	00050913          	mv	s2,a0
    8000a2ac:	04050c63          	beqz	a0,8000a304 <_realloc_r+0x13c>
    8000a2b0:	ff843783          	ld	a5,-8(s0)
    8000a2b4:	ff050713          	addi	a4,a0,-16
    8000a2b8:	ffe7f793          	andi	a5,a5,-2
    8000a2bc:	00fb07b3          	add	a5,s6,a5
    8000a2c0:	28e78463          	beq	a5,a4,8000a548 <_realloc_r+0x380>
    8000a2c4:	ff8a0613          	addi	a2,s4,-8
    8000a2c8:	04800793          	li	a5,72
    8000a2cc:	30c7e463          	bltu	a5,a2,8000a5d4 <_realloc_r+0x40c>
    8000a2d0:	02700713          	li	a4,39
    8000a2d4:	00043683          	ld	a3,0(s0)
    8000a2d8:	20c76c63          	bltu	a4,a2,8000a4f0 <_realloc_r+0x328>
    8000a2dc:	00050793          	mv	a5,a0
    8000a2e0:	00040713          	mv	a4,s0
    8000a2e4:	00d7b023          	sd	a3,0(a5)
    8000a2e8:	00873683          	ld	a3,8(a4)
    8000a2ec:	00d7b423          	sd	a3,8(a5)
    8000a2f0:	01073703          	ld	a4,16(a4)
    8000a2f4:	00e7b823          	sd	a4,16(a5)
    8000a2f8:	00040593          	mv	a1,s0
    8000a2fc:	000a8513          	mv	a0,s5
    8000a300:	8c1fa0ef          	jal	ra,80004bc0 <_free_r>
    8000a304:	000a8513          	mv	a0,s5
    8000a308:	be9fe0ef          	jal	ra,80008ef0 <__malloc_unlock>
    8000a30c:	0180006f          	j	8000a324 <_realloc_r+0x15c>
    8000a310:	02000493          	li	s1,32
    8000a314:	f324f0e3          	bgeu	s1,s2,8000a234 <_realloc_r+0x6c>
    8000a318:	00c00793          	li	a5,12
    8000a31c:	00faa023          	sw	a5,0(s5)
    8000a320:	00000913          	li	s2,0
    8000a324:	04813083          	ld	ra,72(sp)
    8000a328:	04013403          	ld	s0,64(sp)
    8000a32c:	03813483          	ld	s1,56(sp)
    8000a330:	02813983          	ld	s3,40(sp)
    8000a334:	02013a03          	ld	s4,32(sp)
    8000a338:	01813a83          	ld	s5,24(sp)
    8000a33c:	01013b03          	ld	s6,16(sp)
    8000a340:	00813b83          	ld	s7,8(sp)
    8000a344:	00013c03          	ld	s8,0(sp)
    8000a348:	00090513          	mv	a0,s2
    8000a34c:	03013903          	ld	s2,48(sp)
    8000a350:	05010113          	addi	sp,sp,80
    8000a354:	00008067          	ret
    8000a358:	0189b783          	ld	a5,24(s3)
    8000a35c:	0109b703          	ld	a4,16(s3)
    8000a360:	00068a13          	mv	s4,a3
    8000a364:	00db09b3          	add	s3,s6,a3
    8000a368:	00f73c23          	sd	a5,24(a4)
    8000a36c:	00e7b823          	sd	a4,16(a5)
    8000a370:	008b3783          	ld	a5,8(s6)
    8000a374:	409a0733          	sub	a4,s4,s1
    8000a378:	01f00693          	li	a3,31
    8000a37c:	0017f793          	andi	a5,a5,1
    8000a380:	06e6ec63          	bltu	a3,a4,8000a3f8 <_realloc_r+0x230>
    8000a384:	00fa67b3          	or	a5,s4,a5
    8000a388:	00fb3423          	sd	a5,8(s6)
    8000a38c:	0089b783          	ld	a5,8(s3)
    8000a390:	0017e793          	ori	a5,a5,1
    8000a394:	00f9b423          	sd	a5,8(s3)
    8000a398:	000a8513          	mv	a0,s5
    8000a39c:	b55fe0ef          	jal	ra,80008ef0 <__malloc_unlock>
    8000a3a0:	00040913          	mv	s2,s0
    8000a3a4:	f81ff06f          	j	8000a324 <_realloc_r+0x15c>
    8000a3a8:	00177713          	andi	a4,a4,1
    8000a3ac:	ee0718e3          	bnez	a4,8000a29c <_realloc_r+0xd4>
    8000a3b0:	ff043c03          	ld	s8,-16(s0)
    8000a3b4:	418b0c33          	sub	s8,s6,s8
    8000a3b8:	008c3703          	ld	a4,8(s8)
    8000a3bc:	ffc77713          	andi	a4,a4,-4
    8000a3c0:	ed5ff06f          	j	8000a294 <_realloc_r+0xcc>
    8000a3c4:	04013403          	ld	s0,64(sp)
    8000a3c8:	04813083          	ld	ra,72(sp)
    8000a3cc:	03813483          	ld	s1,56(sp)
    8000a3d0:	03013903          	ld	s2,48(sp)
    8000a3d4:	02813983          	ld	s3,40(sp)
    8000a3d8:	02013a03          	ld	s4,32(sp)
    8000a3dc:	01813a83          	ld	s5,24(sp)
    8000a3e0:	01013b03          	ld	s6,16(sp)
    8000a3e4:	00813b83          	ld	s7,8(sp)
    8000a3e8:	00013c03          	ld	s8,0(sp)
    8000a3ec:	00060593          	mv	a1,a2
    8000a3f0:	05010113          	addi	sp,sp,80
    8000a3f4:	888fe06f          	j	8000847c <_malloc_r>
    8000a3f8:	00f4e7b3          	or	a5,s1,a5
    8000a3fc:	00fb3423          	sd	a5,8(s6)
    8000a400:	009b05b3          	add	a1,s6,s1
    8000a404:	00176713          	ori	a4,a4,1
    8000a408:	00e5b423          	sd	a4,8(a1)
    8000a40c:	0089b783          	ld	a5,8(s3)
    8000a410:	01058593          	addi	a1,a1,16
    8000a414:	000a8513          	mv	a0,s5
    8000a418:	0017e793          	ori	a5,a5,1
    8000a41c:	00f9b423          	sd	a5,8(s3)
    8000a420:	fa0fa0ef          	jal	ra,80004bc0 <_free_r>
    8000a424:	f75ff06f          	j	8000a398 <_realloc_r+0x1d0>
    8000a428:	ffc7f793          	andi	a5,a5,-4
    8000a42c:	00fa06b3          	add	a3,s4,a5
    8000a430:	02048613          	addi	a2,s1,32
    8000a434:	0ec6d063          	bge	a3,a2,8000a514 <_realloc_r+0x34c>
    8000a438:	00177713          	andi	a4,a4,1
    8000a43c:	e60710e3          	bnez	a4,8000a29c <_realloc_r+0xd4>
    8000a440:	ff043c03          	ld	s8,-16(s0)
    8000a444:	418b0c33          	sub	s8,s6,s8
    8000a448:	008c3703          	ld	a4,8(s8)
    8000a44c:	ffc77713          	andi	a4,a4,-4
    8000a450:	00f707b3          	add	a5,a4,a5
    8000a454:	014789b3          	add	s3,a5,s4
    8000a458:	e2c9cee3          	blt	s3,a2,8000a294 <_realloc_r+0xcc>
    8000a45c:	018c3783          	ld	a5,24(s8)
    8000a460:	010c3703          	ld	a4,16(s8)
    8000a464:	ff8a0613          	addi	a2,s4,-8
    8000a468:	04800693          	li	a3,72
    8000a46c:	00f73c23          	sd	a5,24(a4)
    8000a470:	00e7b823          	sd	a4,16(a5)
    8000a474:	010c0913          	addi	s2,s8,16
    8000a478:	26c6ec63          	bltu	a3,a2,8000a6f0 <_realloc_r+0x528>
    8000a47c:	02700593          	li	a1,39
    8000a480:	00043703          	ld	a4,0(s0)
    8000a484:	00090793          	mv	a5,s2
    8000a488:	02c5f263          	bgeu	a1,a2,8000a4ac <_realloc_r+0x2e4>
    8000a48c:	00ec3823          	sd	a4,16(s8)
    8000a490:	00843703          	ld	a4,8(s0)
    8000a494:	03700793          	li	a5,55
    8000a498:	00ec3c23          	sd	a4,24(s8)
    8000a49c:	26c7e263          	bltu	a5,a2,8000a700 <_realloc_r+0x538>
    8000a4a0:	01043703          	ld	a4,16(s0)
    8000a4a4:	020c0793          	addi	a5,s8,32
    8000a4a8:	01040413          	addi	s0,s0,16
    8000a4ac:	00e7b023          	sd	a4,0(a5)
    8000a4b0:	00843703          	ld	a4,8(s0)
    8000a4b4:	00e7b423          	sd	a4,8(a5)
    8000a4b8:	01043703          	ld	a4,16(s0)
    8000a4bc:	00e7b823          	sd	a4,16(a5)
    8000a4c0:	009c0733          	add	a4,s8,s1
    8000a4c4:	409989b3          	sub	s3,s3,s1
    8000a4c8:	00ebb823          	sd	a4,16(s7)
    8000a4cc:	0019e793          	ori	a5,s3,1
    8000a4d0:	00f73423          	sd	a5,8(a4)
    8000a4d4:	008c3783          	ld	a5,8(s8)
    8000a4d8:	000a8513          	mv	a0,s5
    8000a4dc:	0017f793          	andi	a5,a5,1
    8000a4e0:	0097e4b3          	or	s1,a5,s1
    8000a4e4:	009c3423          	sd	s1,8(s8)
    8000a4e8:	a09fe0ef          	jal	ra,80008ef0 <__malloc_unlock>
    8000a4ec:	e39ff06f          	j	8000a324 <_realloc_r+0x15c>
    8000a4f0:	00d53023          	sd	a3,0(a0)
    8000a4f4:	00843683          	ld	a3,8(s0)
    8000a4f8:	03700713          	li	a4,55
    8000a4fc:	00d53423          	sd	a3,8(a0)
    8000a500:	16c76e63          	bltu	a4,a2,8000a67c <_realloc_r+0x4b4>
    8000a504:	01043683          	ld	a3,16(s0)
    8000a508:	01040713          	addi	a4,s0,16
    8000a50c:	01050793          	addi	a5,a0,16
    8000a510:	dd5ff06f          	j	8000a2e4 <_realloc_r+0x11c>
    8000a514:	009b0b33          	add	s6,s6,s1
    8000a518:	409686b3          	sub	a3,a3,s1
    8000a51c:	016bb823          	sd	s6,16(s7)
    8000a520:	0016e793          	ori	a5,a3,1
    8000a524:	00fb3423          	sd	a5,8(s6)
    8000a528:	ff843783          	ld	a5,-8(s0)
    8000a52c:	000a8513          	mv	a0,s5
    8000a530:	00040913          	mv	s2,s0
    8000a534:	0017f793          	andi	a5,a5,1
    8000a538:	0097e4b3          	or	s1,a5,s1
    8000a53c:	fe943c23          	sd	s1,-8(s0)
    8000a540:	9b1fe0ef          	jal	ra,80008ef0 <__malloc_unlock>
    8000a544:	de1ff06f          	j	8000a324 <_realloc_r+0x15c>
    8000a548:	ff853783          	ld	a5,-8(a0)
    8000a54c:	ffc7f793          	andi	a5,a5,-4
    8000a550:	00fa0a33          	add	s4,s4,a5
    8000a554:	014b09b3          	add	s3,s6,s4
    8000a558:	e19ff06f          	j	8000a370 <_realloc_r+0x1a8>
    8000a55c:	018c3783          	ld	a5,24(s8)
    8000a560:	010c3703          	ld	a4,16(s8)
    8000a564:	ff8a0613          	addi	a2,s4,-8
    8000a568:	04800693          	li	a3,72
    8000a56c:	00f73c23          	sd	a5,24(a4)
    8000a570:	00e7b823          	sd	a4,16(a5)
    8000a574:	010c0913          	addi	s2,s8,16
    8000a578:	017c09b3          	add	s3,s8,s7
    8000a57c:	0ec6e263          	bltu	a3,a2,8000a660 <_realloc_r+0x498>
    8000a580:	02700593          	li	a1,39
    8000a584:	00043703          	ld	a4,0(s0)
    8000a588:	00090793          	mv	a5,s2
    8000a58c:	02c5f263          	bgeu	a1,a2,8000a5b0 <_realloc_r+0x3e8>
    8000a590:	00ec3823          	sd	a4,16(s8)
    8000a594:	00843703          	ld	a4,8(s0)
    8000a598:	03700793          	li	a5,55
    8000a59c:	00ec3c23          	sd	a4,24(s8)
    8000a5a0:	10c7e063          	bltu	a5,a2,8000a6a0 <_realloc_r+0x4d8>
    8000a5a4:	01043703          	ld	a4,16(s0)
    8000a5a8:	020c0793          	addi	a5,s8,32
    8000a5ac:	01040413          	addi	s0,s0,16
    8000a5b0:	00e7b023          	sd	a4,0(a5)
    8000a5b4:	00843703          	ld	a4,8(s0)
    8000a5b8:	000b8a13          	mv	s4,s7
    8000a5bc:	000c0b13          	mv	s6,s8
    8000a5c0:	00e7b423          	sd	a4,8(a5)
    8000a5c4:	01043703          	ld	a4,16(s0)
    8000a5c8:	00090413          	mv	s0,s2
    8000a5cc:	00e7b823          	sd	a4,16(a5)
    8000a5d0:	da1ff06f          	j	8000a370 <_realloc_r+0x1a8>
    8000a5d4:	00040593          	mv	a1,s0
    8000a5d8:	ff4fe0ef          	jal	ra,80008dcc <memmove>
    8000a5dc:	d1dff06f          	j	8000a2f8 <_realloc_r+0x130>
    8000a5e0:	0189b783          	ld	a5,24(s3)
    8000a5e4:	0109b703          	ld	a4,16(s3)
    8000a5e8:	ff8a0613          	addi	a2,s4,-8
    8000a5ec:	04800693          	li	a3,72
    8000a5f0:	00f73c23          	sd	a5,24(a4)
    8000a5f4:	00e7b823          	sd	a4,16(a5)
    8000a5f8:	010c3703          	ld	a4,16(s8)
    8000a5fc:	018c3783          	ld	a5,24(s8)
    8000a600:	010c0913          	addi	s2,s8,16
    8000a604:	017c09b3          	add	s3,s8,s7
    8000a608:	00f73c23          	sd	a5,24(a4)
    8000a60c:	00e7b823          	sd	a4,16(a5)
    8000a610:	04c6e863          	bltu	a3,a2,8000a660 <_realloc_r+0x498>
    8000a614:	02700693          	li	a3,39
    8000a618:	00043703          	ld	a4,0(s0)
    8000a61c:	00090793          	mv	a5,s2
    8000a620:	f8c6f8e3          	bgeu	a3,a2,8000a5b0 <_realloc_r+0x3e8>
    8000a624:	00ec3823          	sd	a4,16(s8)
    8000a628:	00843703          	ld	a4,8(s0)
    8000a62c:	03700793          	li	a5,55
    8000a630:	00ec3c23          	sd	a4,24(s8)
    8000a634:	01043703          	ld	a4,16(s0)
    8000a638:	f6c7f8e3          	bgeu	a5,a2,8000a5a8 <_realloc_r+0x3e0>
    8000a63c:	02ec3023          	sd	a4,32(s8)
    8000a640:	01843703          	ld	a4,24(s0)
    8000a644:	04800793          	li	a5,72
    8000a648:	02ec3423          	sd	a4,40(s8)
    8000a64c:	02043703          	ld	a4,32(s0)
    8000a650:	06f60463          	beq	a2,a5,8000a6b8 <_realloc_r+0x4f0>
    8000a654:	030c0793          	addi	a5,s8,48
    8000a658:	02040413          	addi	s0,s0,32
    8000a65c:	f55ff06f          	j	8000a5b0 <_realloc_r+0x3e8>
    8000a660:	00040593          	mv	a1,s0
    8000a664:	00090513          	mv	a0,s2
    8000a668:	f64fe0ef          	jal	ra,80008dcc <memmove>
    8000a66c:	00090413          	mv	s0,s2
    8000a670:	000b8a13          	mv	s4,s7
    8000a674:	000c0b13          	mv	s6,s8
    8000a678:	cf9ff06f          	j	8000a370 <_realloc_r+0x1a8>
    8000a67c:	01043703          	ld	a4,16(s0)
    8000a680:	00e53823          	sd	a4,16(a0)
    8000a684:	01843703          	ld	a4,24(s0)
    8000a688:	00e53c23          	sd	a4,24(a0)
    8000a68c:	02043683          	ld	a3,32(s0)
    8000a690:	04f60263          	beq	a2,a5,8000a6d4 <_realloc_r+0x50c>
    8000a694:	02040713          	addi	a4,s0,32
    8000a698:	02050793          	addi	a5,a0,32
    8000a69c:	c49ff06f          	j	8000a2e4 <_realloc_r+0x11c>
    8000a6a0:	01043783          	ld	a5,16(s0)
    8000a6a4:	02fc3023          	sd	a5,32(s8)
    8000a6a8:	01843783          	ld	a5,24(s0)
    8000a6ac:	02fc3423          	sd	a5,40(s8)
    8000a6b0:	02043703          	ld	a4,32(s0)
    8000a6b4:	fad610e3          	bne	a2,a3,8000a654 <_realloc_r+0x48c>
    8000a6b8:	02ec3823          	sd	a4,48(s8)
    8000a6bc:	02843703          	ld	a4,40(s0)
    8000a6c0:	040c0793          	addi	a5,s8,64
    8000a6c4:	03040413          	addi	s0,s0,48
    8000a6c8:	02ec3c23          	sd	a4,56(s8)
    8000a6cc:	00043703          	ld	a4,0(s0)
    8000a6d0:	ee1ff06f          	j	8000a5b0 <_realloc_r+0x3e8>
    8000a6d4:	02d53023          	sd	a3,32(a0)
    8000a6d8:	02843683          	ld	a3,40(s0)
    8000a6dc:	03040713          	addi	a4,s0,48
    8000a6e0:	03050793          	addi	a5,a0,48
    8000a6e4:	02d53423          	sd	a3,40(a0)
    8000a6e8:	03043683          	ld	a3,48(s0)
    8000a6ec:	bf9ff06f          	j	8000a2e4 <_realloc_r+0x11c>
    8000a6f0:	00040593          	mv	a1,s0
    8000a6f4:	00090513          	mv	a0,s2
    8000a6f8:	ed4fe0ef          	jal	ra,80008dcc <memmove>
    8000a6fc:	dc5ff06f          	j	8000a4c0 <_realloc_r+0x2f8>
    8000a700:	01043783          	ld	a5,16(s0)
    8000a704:	02fc3023          	sd	a5,32(s8)
    8000a708:	01843783          	ld	a5,24(s0)
    8000a70c:	02fc3423          	sd	a5,40(s8)
    8000a710:	02043703          	ld	a4,32(s0)
    8000a714:	00d60863          	beq	a2,a3,8000a724 <_realloc_r+0x55c>
    8000a718:	030c0793          	addi	a5,s8,48
    8000a71c:	02040413          	addi	s0,s0,32
    8000a720:	d8dff06f          	j	8000a4ac <_realloc_r+0x2e4>
    8000a724:	02ec3823          	sd	a4,48(s8)
    8000a728:	02843703          	ld	a4,40(s0)
    8000a72c:	040c0793          	addi	a5,s8,64
    8000a730:	03040413          	addi	s0,s0,48
    8000a734:	02ec3c23          	sd	a4,56(s8)
    8000a738:	00043703          	ld	a4,0(s0)
    8000a73c:	d71ff06f          	j	8000a4ac <_realloc_r+0x2e4>

000000008000a740 <_sbrk_r>:
    8000a740:	fe010113          	addi	sp,sp,-32
    8000a744:	00813823          	sd	s0,16(sp)
    8000a748:	00913423          	sd	s1,8(sp)
    8000a74c:	00050413          	mv	s0,a0
    8000a750:	00058513          	mv	a0,a1
    8000a754:	00113c23          	sd	ra,24(sp)
    8000a758:	8c01a423          	sw	zero,-1848(gp) # 800151e8 <errno>
    8000a75c:	31c060ef          	jal	ra,80010a78 <_sbrk>
    8000a760:	fff00793          	li	a5,-1
    8000a764:	00f50c63          	beq	a0,a5,8000a77c <_sbrk_r+0x3c>
    8000a768:	01813083          	ld	ra,24(sp)
    8000a76c:	01013403          	ld	s0,16(sp)
    8000a770:	00813483          	ld	s1,8(sp)
    8000a774:	02010113          	addi	sp,sp,32
    8000a778:	00008067          	ret
    8000a77c:	8c81a783          	lw	a5,-1848(gp) # 800151e8 <errno>
    8000a780:	fe0784e3          	beqz	a5,8000a768 <_sbrk_r+0x28>
    8000a784:	01813083          	ld	ra,24(sp)
    8000a788:	00f42023          	sw	a5,0(s0)
    8000a78c:	01013403          	ld	s0,16(sp)
    8000a790:	00813483          	ld	s1,8(sp)
    8000a794:	02010113          	addi	sp,sp,32
    8000a798:	00008067          	ret

000000008000a79c <frexp>:
    8000a79c:	fe010113          	addi	sp,sp,-32
    8000a7a0:	00913423          	sd	s1,8(sp)
    8000a7a4:	800004b7          	lui	s1,0x80000
    8000a7a8:	00813823          	sd	s0,16(sp)
    8000a7ac:	00113c23          	sd	ra,24(sp)
    8000a7b0:	42055613          	srai	a2,a0,0x20
    8000a7b4:	fff4c493          	not	s1,s1
    8000a7b8:	00058413          	mv	s0,a1
    8000a7bc:	0005a023          	sw	zero,0(a1)
    8000a7c0:	00967733          	and	a4,a2,s1
    8000a7c4:	7ff005b7          	lui	a1,0x7ff00
    8000a7c8:	00050793          	mv	a5,a0
    8000a7cc:	06b75a63          	bge	a4,a1,8000a840 <frexp+0xa4>
    8000a7d0:	00a765b3          	or	a1,a4,a0
    8000a7d4:	0005859b          	sext.w	a1,a1
    8000a7d8:	06058463          	beqz	a1,8000a840 <frexp+0xa4>
    8000a7dc:	7ff005b7          	lui	a1,0x7ff00
    8000a7e0:	00060693          	mv	a3,a2
    8000a7e4:	00b67633          	and	a2,a2,a1
    8000a7e8:	00000593          	li	a1,0
    8000a7ec:	00061e63          	bnez	a2,8000a808 <frexp+0x6c>
    8000a7f0:	8281b583          	ld	a1,-2008(gp) # 80015148 <__SDATA_BEGIN__+0x28>
    8000a7f4:	015060ef          	jal	ra,80011008 <__muldf3>
    8000a7f8:	42055693          	srai	a3,a0,0x20
    8000a7fc:	00050793          	mv	a5,a0
    8000a800:	0096f733          	and	a4,a3,s1
    8000a804:	fca00593          	li	a1,-54
    8000a808:	80100637          	lui	a2,0x80100
    8000a80c:	fff60613          	addi	a2,a2,-1 # ffffffff800fffff <t0.2038+0xffffffff000c33b7>
    8000a810:	00c6f6b3          	and	a3,a3,a2
    8000a814:	4147571b          	sraiw	a4,a4,0x14
    8000a818:	3fe00637          	lui	a2,0x3fe00
    8000a81c:	fff00513          	li	a0,-1
    8000a820:	c027071b          	addiw	a4,a4,-1022
    8000a824:	00c6e6b3          	or	a3,a3,a2
    8000a828:	02055513          	srli	a0,a0,0x20
    8000a82c:	00b7073b          	addw	a4,a4,a1
    8000a830:	02069693          	slli	a3,a3,0x20
    8000a834:	00f577b3          	and	a5,a0,a5
    8000a838:	00e42023          	sw	a4,0(s0)
    8000a83c:	00d7e7b3          	or	a5,a5,a3
    8000a840:	01813083          	ld	ra,24(sp)
    8000a844:	01013403          	ld	s0,16(sp)
    8000a848:	00813483          	ld	s1,8(sp)
    8000a84c:	00078513          	mv	a0,a5
    8000a850:	02010113          	addi	sp,sp,32
    8000a854:	00008067          	ret

000000008000a858 <_sprintf_r>:
    8000a858:	f0010113          	addi	sp,sp,-256
    8000a85c:	0d810e93          	addi	t4,sp,216
    8000a860:	0ef13423          	sd	a5,232(sp)
    8000a864:	80000337          	lui	t1,0x80000
    8000a868:	ffff07b7          	lui	a5,0xffff0
    8000a86c:	00058e13          	mv	t3,a1
    8000a870:	fff34313          	not	t1,t1
    8000a874:	0cd13c23          	sd	a3,216(sp)
    8000a878:	20878793          	addi	a5,a5,520 # ffffffffffff0208 <t0.2038+0xffffffff7ffb35c0>
    8000a87c:	01010593          	addi	a1,sp,16
    8000a880:	000e8693          	mv	a3,t4
    8000a884:	0c113423          	sd	ra,200(sp)
    8000a888:	02f12023          	sw	a5,32(sp)
    8000a88c:	0ee13023          	sd	a4,224(sp)
    8000a890:	0f013823          	sd	a6,240(sp)
    8000a894:	0f113c23          	sd	a7,248(sp)
    8000a898:	01c13823          	sd	t3,16(sp)
    8000a89c:	03c13423          	sd	t3,40(sp)
    8000a8a0:	02612823          	sw	t1,48(sp)
    8000a8a4:	00612e23          	sw	t1,28(sp)
    8000a8a8:	01d13423          	sd	t4,8(sp)
    8000a8ac:	370000ef          	jal	ra,8000ac1c <_svfprintf_r>
    8000a8b0:	01013783          	ld	a5,16(sp)
    8000a8b4:	00078023          	sb	zero,0(a5)
    8000a8b8:	0c813083          	ld	ra,200(sp)
    8000a8bc:	10010113          	addi	sp,sp,256
    8000a8c0:	00008067          	ret

000000008000a8c4 <sprintf>:
    8000a8c4:	00050e13          	mv	t3,a0
    8000a8c8:	f0010113          	addi	sp,sp,-256
    8000a8cc:	8401b503          	ld	a0,-1984(gp) # 80015160 <_impure_ptr>
    8000a8d0:	0d010e93          	addi	t4,sp,208
    8000a8d4:	0ef13423          	sd	a5,232(sp)
    8000a8d8:	80000337          	lui	t1,0x80000
    8000a8dc:	ffff07b7          	lui	a5,0xffff0
    8000a8e0:	fff34313          	not	t1,t1
    8000a8e4:	0cc13823          	sd	a2,208(sp)
    8000a8e8:	0cd13c23          	sd	a3,216(sp)
    8000a8ec:	20878793          	addi	a5,a5,520 # ffffffffffff0208 <t0.2038+0xffffffff7ffb35c0>
    8000a8f0:	00058613          	mv	a2,a1
    8000a8f4:	000e8693          	mv	a3,t4
    8000a8f8:	01010593          	addi	a1,sp,16
    8000a8fc:	0c113423          	sd	ra,200(sp)
    8000a900:	02f12023          	sw	a5,32(sp)
    8000a904:	0ee13023          	sd	a4,224(sp)
    8000a908:	0f013823          	sd	a6,240(sp)
    8000a90c:	0f113c23          	sd	a7,248(sp)
    8000a910:	01c13823          	sd	t3,16(sp)
    8000a914:	03c13423          	sd	t3,40(sp)
    8000a918:	02612823          	sw	t1,48(sp)
    8000a91c:	00612e23          	sw	t1,28(sp)
    8000a920:	01d13423          	sd	t4,8(sp)
    8000a924:	2f8000ef          	jal	ra,8000ac1c <_svfprintf_r>
    8000a928:	01013783          	ld	a5,16(sp)
    8000a92c:	00078023          	sb	zero,0(a5)
    8000a930:	0c813083          	ld	ra,200(sp)
    8000a934:	10010113          	addi	sp,sp,256
    8000a938:	00008067          	ret

000000008000a93c <__sread>:
    8000a93c:	ff010113          	addi	sp,sp,-16
    8000a940:	00813023          	sd	s0,0(sp)
    8000a944:	00058413          	mv	s0,a1
    8000a948:	01259583          	lh	a1,18(a1) # 7ff00012 <_start-0x10000a>
    8000a94c:	00113423          	sd	ra,8(sp)
    8000a950:	388040ef          	jal	ra,8000ecd8 <_read_r>
    8000a954:	02054063          	bltz	a0,8000a974 <__sread+0x38>
    8000a958:	09043783          	ld	a5,144(s0)
    8000a95c:	00813083          	ld	ra,8(sp)
    8000a960:	00a787b3          	add	a5,a5,a0
    8000a964:	08f43823          	sd	a5,144(s0)
    8000a968:	00013403          	ld	s0,0(sp)
    8000a96c:	01010113          	addi	sp,sp,16
    8000a970:	00008067          	ret
    8000a974:	01045783          	lhu	a5,16(s0)
    8000a978:	fffff737          	lui	a4,0xfffff
    8000a97c:	fff70713          	addi	a4,a4,-1 # ffffffffffffefff <t0.2038+0xffffffff7ffc23b7>
    8000a980:	00e7f7b3          	and	a5,a5,a4
    8000a984:	00813083          	ld	ra,8(sp)
    8000a988:	00f41823          	sh	a5,16(s0)
    8000a98c:	00013403          	ld	s0,0(sp)
    8000a990:	01010113          	addi	sp,sp,16
    8000a994:	00008067          	ret

000000008000a998 <__seofread>:
    8000a998:	00000513          	li	a0,0
    8000a99c:	00008067          	ret

000000008000a9a0 <__swrite>:
    8000a9a0:	01059783          	lh	a5,16(a1)
    8000a9a4:	fd010113          	addi	sp,sp,-48
    8000a9a8:	02813023          	sd	s0,32(sp)
    8000a9ac:	00913c23          	sd	s1,24(sp)
    8000a9b0:	01213823          	sd	s2,16(sp)
    8000a9b4:	01313423          	sd	s3,8(sp)
    8000a9b8:	02113423          	sd	ra,40(sp)
    8000a9bc:	1007f713          	andi	a4,a5,256
    8000a9c0:	00058413          	mv	s0,a1
    8000a9c4:	00050493          	mv	s1,a0
    8000a9c8:	01259583          	lh	a1,18(a1)
    8000a9cc:	00060913          	mv	s2,a2
    8000a9d0:	00068993          	mv	s3,a3
    8000a9d4:	02071e63          	bnez	a4,8000aa10 <__swrite+0x70>
    8000a9d8:	fffff737          	lui	a4,0xfffff
    8000a9dc:	fff70713          	addi	a4,a4,-1 # ffffffffffffefff <t0.2038+0xffffffff7ffc23b7>
    8000a9e0:	00e7f7b3          	and	a5,a5,a4
    8000a9e4:	00f41823          	sh	a5,16(s0)
    8000a9e8:	02013403          	ld	s0,32(sp)
    8000a9ec:	02813083          	ld	ra,40(sp)
    8000a9f0:	00098693          	mv	a3,s3
    8000a9f4:	00090613          	mv	a2,s2
    8000a9f8:	00813983          	ld	s3,8(sp)
    8000a9fc:	01013903          	ld	s2,16(sp)
    8000aa00:	00048513          	mv	a0,s1
    8000aa04:	01813483          	ld	s1,24(sp)
    8000aa08:	03010113          	addi	sp,sp,48
    8000aa0c:	3b90306f          	j	8000e5c4 <_write_r>
    8000aa10:	00200693          	li	a3,2
    8000aa14:	00000613          	li	a2,0
    8000aa18:	258040ef          	jal	ra,8000ec70 <_lseek_r>
    8000aa1c:	01041783          	lh	a5,16(s0)
    8000aa20:	01241583          	lh	a1,18(s0)
    8000aa24:	fb5ff06f          	j	8000a9d8 <__swrite+0x38>

000000008000aa28 <__sseek>:
    8000aa28:	ff010113          	addi	sp,sp,-16
    8000aa2c:	00813023          	sd	s0,0(sp)
    8000aa30:	00058413          	mv	s0,a1
    8000aa34:	01259583          	lh	a1,18(a1)
    8000aa38:	00113423          	sd	ra,8(sp)
    8000aa3c:	234040ef          	jal	ra,8000ec70 <_lseek_r>
    8000aa40:	fff00793          	li	a5,-1
    8000aa44:	02f50463          	beq	a0,a5,8000aa6c <__sseek+0x44>
    8000aa48:	01045783          	lhu	a5,16(s0)
    8000aa4c:	00001737          	lui	a4,0x1
    8000aa50:	00813083          	ld	ra,8(sp)
    8000aa54:	00e7e7b3          	or	a5,a5,a4
    8000aa58:	08a43823          	sd	a0,144(s0)
    8000aa5c:	00f41823          	sh	a5,16(s0)
    8000aa60:	00013403          	ld	s0,0(sp)
    8000aa64:	01010113          	addi	sp,sp,16
    8000aa68:	00008067          	ret
    8000aa6c:	01045783          	lhu	a5,16(s0)
    8000aa70:	fffff737          	lui	a4,0xfffff
    8000aa74:	fff70713          	addi	a4,a4,-1 # ffffffffffffefff <t0.2038+0xffffffff7ffc23b7>
    8000aa78:	00e7f7b3          	and	a5,a5,a4
    8000aa7c:	00813083          	ld	ra,8(sp)
    8000aa80:	00f41823          	sh	a5,16(s0)
    8000aa84:	00013403          	ld	s0,0(sp)
    8000aa88:	01010113          	addi	sp,sp,16
    8000aa8c:	00008067          	ret

000000008000aa90 <__sclose>:
    8000aa90:	01259583          	lh	a1,18(a1)
    8000aa94:	4c50306f          	j	8000e758 <_close_r>

000000008000aa98 <strcpy>:
    8000aa98:	00b567b3          	or	a5,a0,a1
    8000aa9c:	0077f793          	andi	a5,a5,7
    8000aaa0:	0a079663          	bnez	a5,8000ab4c <strcpy+0xb4>
    8000aaa4:	000257b7          	lui	a5,0x25
    8000aaa8:	1207b683          	ld	a3,288(a5) # 25120 <_start-0x7ffdaefc>
    8000aaac:	0005b703          	ld	a4,0(a1)
    8000aab0:	fff00613          	li	a2,-1
    8000aab4:	00d777b3          	and	a5,a4,a3
    8000aab8:	00d787b3          	add	a5,a5,a3
    8000aabc:	00e7e7b3          	or	a5,a5,a4
    8000aac0:	00d7e7b3          	or	a5,a5,a3
    8000aac4:	0ac79263          	bne	a5,a2,8000ab68 <strcpy+0xd0>
    8000aac8:	00050613          	mv	a2,a0
    8000aacc:	fff00813          	li	a6,-1
    8000aad0:	00e63023          	sd	a4,0(a2) # 3fe00000 <_start-0x4020001c>
    8000aad4:	0085b703          	ld	a4,8(a1)
    8000aad8:	00858593          	addi	a1,a1,8
    8000aadc:	00860613          	addi	a2,a2,8
    8000aae0:	00d777b3          	and	a5,a4,a3
    8000aae4:	00d787b3          	add	a5,a5,a3
    8000aae8:	00e7e7b3          	or	a5,a5,a4
    8000aaec:	00d7e7b3          	or	a5,a5,a3
    8000aaf0:	ff0780e3          	beq	a5,a6,8000aad0 <strcpy+0x38>
    8000aaf4:	0005c783          	lbu	a5,0(a1)
    8000aaf8:	0015c703          	lbu	a4,1(a1)
    8000aafc:	0025c683          	lbu	a3,2(a1)
    8000ab00:	00f60023          	sb	a5,0(a2)
    8000ab04:	04078263          	beqz	a5,8000ab48 <strcpy+0xb0>
    8000ab08:	00e600a3          	sb	a4,1(a2)
    8000ab0c:	02070e63          	beqz	a4,8000ab48 <strcpy+0xb0>
    8000ab10:	0035c783          	lbu	a5,3(a1)
    8000ab14:	00d60123          	sb	a3,2(a2)
    8000ab18:	02068863          	beqz	a3,8000ab48 <strcpy+0xb0>
    8000ab1c:	0045c703          	lbu	a4,4(a1)
    8000ab20:	00f601a3          	sb	a5,3(a2)
    8000ab24:	02078263          	beqz	a5,8000ab48 <strcpy+0xb0>
    8000ab28:	0055c783          	lbu	a5,5(a1)
    8000ab2c:	00e60223          	sb	a4,4(a2)
    8000ab30:	00070c63          	beqz	a4,8000ab48 <strcpy+0xb0>
    8000ab34:	0065c703          	lbu	a4,6(a1)
    8000ab38:	00f602a3          	sb	a5,5(a2)
    8000ab3c:	00078663          	beqz	a5,8000ab48 <strcpy+0xb0>
    8000ab40:	00e60323          	sb	a4,6(a2)
    8000ab44:	02071663          	bnez	a4,8000ab70 <strcpy+0xd8>
    8000ab48:	00008067          	ret
    8000ab4c:	00050793          	mv	a5,a0
    8000ab50:	0005c703          	lbu	a4,0(a1)
    8000ab54:	00178793          	addi	a5,a5,1
    8000ab58:	00158593          	addi	a1,a1,1
    8000ab5c:	fee78fa3          	sb	a4,-1(a5)
    8000ab60:	fe0718e3          	bnez	a4,8000ab50 <strcpy+0xb8>
    8000ab64:	00008067          	ret
    8000ab68:	00050613          	mv	a2,a0
    8000ab6c:	f89ff06f          	j	8000aaf4 <strcpy+0x5c>
    8000ab70:	000603a3          	sb	zero,7(a2)
    8000ab74:	00008067          	ret

000000008000ab78 <strncpy>:
    8000ab78:	00a5e7b3          	or	a5,a1,a0
    8000ab7c:	0077f793          	andi	a5,a5,7
    8000ab80:	00050713          	mv	a4,a0
    8000ab84:	06079663          	bnez	a5,8000abf0 <strncpy+0x78>
    8000ab88:	00700793          	li	a5,7
    8000ab8c:	06c7f263          	bgeu	a5,a2,8000abf0 <strncpy+0x78>
    8000ab90:	000257b7          	lui	a5,0x25
    8000ab94:	1287b303          	ld	t1,296(a5) # 25128 <_start-0x7ffdaef4>
    8000ab98:	8101b883          	ld	a7,-2032(gp) # 80015130 <__SDATA_BEGIN__+0x10>
    8000ab9c:	00700e13          	li	t3,7
    8000aba0:	0005b683          	ld	a3,0(a1)
    8000aba4:	006687b3          	add	a5,a3,t1
    8000aba8:	fff6c813          	not	a6,a3
    8000abac:	0107f7b3          	and	a5,a5,a6
    8000abb0:	0117f7b3          	and	a5,a5,a7
    8000abb4:	02079e63          	bnez	a5,8000abf0 <strncpy+0x78>
    8000abb8:	00d73023          	sd	a3,0(a4)
    8000abbc:	ff860613          	addi	a2,a2,-8
    8000abc0:	00870713          	addi	a4,a4,8
    8000abc4:	00858593          	addi	a1,a1,8
    8000abc8:	fcce6ce3          	bltu	t3,a2,8000aba0 <strncpy+0x28>
    8000abcc:	00158593          	addi	a1,a1,1
    8000abd0:	00170793          	addi	a5,a4,1
    8000abd4:	02060463          	beqz	a2,8000abfc <strncpy+0x84>
    8000abd8:	fff5c683          	lbu	a3,-1(a1)
    8000abdc:	fff60813          	addi	a6,a2,-1
    8000abe0:	fed78fa3          	sb	a3,-1(a5)
    8000abe4:	00068e63          	beqz	a3,8000ac00 <strncpy+0x88>
    8000abe8:	00078713          	mv	a4,a5
    8000abec:	00080613          	mv	a2,a6
    8000abf0:	00158593          	addi	a1,a1,1
    8000abf4:	00170793          	addi	a5,a4,1
    8000abf8:	fe0610e3          	bnez	a2,8000abd8 <strncpy+0x60>
    8000abfc:	00008067          	ret
    8000ac00:	00c70633          	add	a2,a4,a2
    8000ac04:	00080a63          	beqz	a6,8000ac18 <strncpy+0xa0>
    8000ac08:	00178793          	addi	a5,a5,1
    8000ac0c:	fe078fa3          	sb	zero,-1(a5)
    8000ac10:	fec79ce3          	bne	a5,a2,8000ac08 <strncpy+0x90>
    8000ac14:	00008067          	ret
    8000ac18:	00008067          	ret

000000008000ac1c <_svfprintf_r>:
    8000ac1c:	d8010113          	addi	sp,sp,-640
    8000ac20:	26113c23          	sd	ra,632(sp)
    8000ac24:	25613023          	sd	s6,576(sp)
    8000ac28:	23713c23          	sd	s7,568(sp)
    8000ac2c:	23813823          	sd	s8,560(sp)
    8000ac30:	00058b93          	mv	s7,a1
    8000ac34:	00060b13          	mv	s6,a2
    8000ac38:	00d13c23          	sd	a3,24(sp)
    8000ac3c:	26813823          	sd	s0,624(sp)
    8000ac40:	26913423          	sd	s1,616(sp)
    8000ac44:	27213023          	sd	s2,608(sp)
    8000ac48:	25313c23          	sd	s3,600(sp)
    8000ac4c:	25413823          	sd	s4,592(sp)
    8000ac50:	25513423          	sd	s5,584(sp)
    8000ac54:	23913423          	sd	s9,552(sp)
    8000ac58:	23a13023          	sd	s10,544(sp)
    8000ac5c:	21b13c23          	sd	s11,536(sp)
    8000ac60:	00050c13          	mv	s8,a0
    8000ac64:	c9cfd0ef          	jal	ra,80008100 <_localeconv_r>
    8000ac68:	00053783          	ld	a5,0(a0)
    8000ac6c:	00078513          	mv	a0,a5
    8000ac70:	04f13423          	sd	a5,72(sp)
    8000ac74:	b19f60ef          	jal	ra,8000178c <strlen>
    8000ac78:	010bd783          	lhu	a5,16(s7)
    8000ac7c:	10013023          	sd	zero,256(sp)
    8000ac80:	10013423          	sd	zero,264(sp)
    8000ac84:	0807f793          	andi	a5,a5,128
    8000ac88:	04a13023          	sd	a0,64(sp)
    8000ac8c:	00078863          	beqz	a5,8000ac9c <_svfprintf_r+0x80>
    8000ac90:	018bb783          	ld	a5,24(s7)
    8000ac94:	00079463          	bnez	a5,8000ac9c <_svfprintf_r+0x80>
    8000ac98:	4840106f          	j	8000c11c <_svfprintf_r+0x1500>
    8000ac9c:	000237b7          	lui	a5,0x23
    8000aca0:	0b87b783          	ld	a5,184(a5) # 230b8 <_start-0x7ffdcf64>
    8000aca4:	000b0d13          	mv	s10,s6
    8000aca8:	12013023          	sd	zero,288(sp)
    8000acac:	08f13823          	sd	a5,144(sp)
    8000acb0:	000237b7          	lui	a5,0x23
    8000acb4:	0987b783          	ld	a5,152(a5) # 23098 <_start-0x7ffdcf84>
    8000acb8:	10012c23          	sw	zero,280(sp)
    8000acbc:	02013423          	sd	zero,40(sp)
    8000acc0:	08f13423          	sd	a5,136(sp)
    8000acc4:	000237b7          	lui	a5,0x23
    8000acc8:	0a87b783          	ld	a5,168(a5) # 230a8 <_start-0x7ffdcf74>
    8000accc:	04013823          	sd	zero,80(sp)
    8000acd0:	04013c23          	sd	zero,88(sp)
    8000acd4:	08f13c23          	sd	a5,152(sp)
    8000acd8:	19010793          	addi	a5,sp,400
    8000acdc:	10f13823          	sd	a5,272(sp)
    8000ace0:	00078313          	mv	t1,a5
    8000ace4:	000d4783          	lbu	a5,0(s10)
    8000ace8:	06013423          	sd	zero,104(sp)
    8000acec:	08013023          	sd	zero,128(sp)
    8000acf0:	06013023          	sd	zero,96(sp)
    8000acf4:	00013423          	sd	zero,8(sp)
    8000acf8:	24078a63          	beqz	a5,8000af4c <_svfprintf_r+0x330>
    8000acfc:	000d0413          	mv	s0,s10
    8000ad00:	02500713          	li	a4,37
    8000ad04:	2ae78a63          	beq	a5,a4,8000afb8 <_svfprintf_r+0x39c>
    8000ad08:	00144783          	lbu	a5,1(s0)
    8000ad0c:	00140413          	addi	s0,s0,1
    8000ad10:	fe079ae3          	bnez	a5,8000ad04 <_svfprintf_r+0xe8>
    8000ad14:	41a404bb          	subw	s1,s0,s10
    8000ad18:	22048a63          	beqz	s1,8000af4c <_svfprintf_r+0x330>
    8000ad1c:	12013703          	ld	a4,288(sp)
    8000ad20:	11812783          	lw	a5,280(sp)
    8000ad24:	01a33023          	sd	s10,0(t1) # ffffffff80000000 <t0.2038+0xfffffffefffc33b8>
    8000ad28:	00970733          	add	a4,a4,s1
    8000ad2c:	0017879b          	addiw	a5,a5,1
    8000ad30:	00933423          	sd	s1,8(t1)
    8000ad34:	12e13023          	sd	a4,288(sp)
    8000ad38:	10f12c23          	sw	a5,280(sp)
    8000ad3c:	0007871b          	sext.w	a4,a5
    8000ad40:	00700793          	li	a5,7
    8000ad44:	01030313          	addi	t1,t1,16
    8000ad48:	28e7c063          	blt	a5,a4,8000afc8 <_svfprintf_r+0x3ac>
    8000ad4c:	00813703          	ld	a4,8(sp)
    8000ad50:	00044783          	lbu	a5,0(s0)
    8000ad54:	0097073b          	addw	a4,a4,s1
    8000ad58:	00e13423          	sd	a4,8(sp)
    8000ad5c:	1e078863          	beqz	a5,8000af4c <_svfprintf_r+0x330>
    8000ad60:	000237b7          	lui	a5,0x23
    8000ad64:	00144e83          	lbu	t4,1(s0)
    8000ad68:	0c010fa3          	sb	zero,223(sp)
    8000ad6c:	00140413          	addi	s0,s0,1
    8000ad70:	fff00a93          	li	s5,-1
    8000ad74:	00000913          	li	s2,0
    8000ad78:	00000493          	li	s1,0
    8000ad7c:	05a00993          	li	s3,90
    8000ad80:	57878a13          	addi	s4,a5,1400 # 23578 <_start-0x7ffdcaa4>
    8000ad84:	00900b13          	li	s6,9
    8000ad88:	00030c93          	mv	s9,t1
    8000ad8c:	00140413          	addi	s0,s0,1
    8000ad90:	000e8d9b          	sext.w	s11,t4
    8000ad94:	02a00693          	li	a3,42
    8000ad98:	fe0d879b          	addiw	a5,s11,-32
    8000ad9c:	0007871b          	sext.w	a4,a5
    8000ada0:	04e9e863          	bltu	s3,a4,8000adf0 <_svfprintf_r+0x1d4>
    8000ada4:	02079793          	slli	a5,a5,0x20
    8000ada8:	01e7d793          	srli	a5,a5,0x1e
    8000adac:	014787b3          	add	a5,a5,s4
    8000adb0:	0007a783          	lw	a5,0(a5)
    8000adb4:	00078067          	jr	a5
    8000adb8:	00000913          	li	s2,0
    8000adbc:	00044703          	lbu	a4,0(s0)
    8000adc0:	0029179b          	slliw	a5,s2,0x2
    8000adc4:	0127893b          	addw	s2,a5,s2
    8000adc8:	fd0d8d9b          	addiw	s11,s11,-48
    8000adcc:	0019191b          	slliw	s2,s2,0x1
    8000add0:	fd07079b          	addiw	a5,a4,-48
    8000add4:	012d893b          	addw	s2,s11,s2
    8000add8:	00140413          	addi	s0,s0,1
    8000addc:	00070d9b          	sext.w	s11,a4
    8000ade0:	fcfb7ee3          	bgeu	s6,a5,8000adbc <_svfprintf_r+0x1a0>
    8000ade4:	fe0d879b          	addiw	a5,s11,-32
    8000ade8:	0007871b          	sext.w	a4,a5
    8000adec:	fae9fce3          	bgeu	s3,a4,8000ada4 <_svfprintf_r+0x188>
    8000adf0:	000c8313          	mv	t1,s9
    8000adf4:	140d8c63          	beqz	s11,8000af4c <_svfprintf_r+0x330>
    8000adf8:	13b10423          	sb	s11,296(sp)
    8000adfc:	0c010fa3          	sb	zero,223(sp)
    8000ae00:	00100993          	li	s3,1
    8000ae04:	00100a13          	li	s4,1
    8000ae08:	12810d13          	addi	s10,sp,296
    8000ae0c:	00013823          	sd	zero,16(sp)
    8000ae10:	00000a93          	li	s5,0
    8000ae14:	02013c23          	sd	zero,56(sp)
    8000ae18:	02013823          	sd	zero,48(sp)
    8000ae1c:	02013023          	sd	zero,32(sp)
    8000ae20:	0024fc93          	andi	s9,s1,2
    8000ae24:	000c8463          	beqz	s9,8000ae2c <_svfprintf_r+0x210>
    8000ae28:	0029899b          	addiw	s3,s3,2
    8000ae2c:	0844fb13          	andi	s6,s1,132
    8000ae30:	12013783          	ld	a5,288(sp)
    8000ae34:	000b1663          	bnez	s6,8000ae40 <_svfprintf_r+0x224>
    8000ae38:	413906bb          	subw	a3,s2,s3
    8000ae3c:	4ad04ee3          	bgtz	a3,8000baf8 <_svfprintf_r+0xedc>
    8000ae40:	0df14703          	lbu	a4,223(sp)
    8000ae44:	02070c63          	beqz	a4,8000ae7c <_svfprintf_r+0x260>
    8000ae48:	11812703          	lw	a4,280(sp)
    8000ae4c:	0df10693          	addi	a3,sp,223
    8000ae50:	00d33023          	sd	a3,0(t1)
    8000ae54:	0017071b          	addiw	a4,a4,1
    8000ae58:	00100693          	li	a3,1
    8000ae5c:	00178793          	addi	a5,a5,1
    8000ae60:	00d33423          	sd	a3,8(t1)
    8000ae64:	10e12c23          	sw	a4,280(sp)
    8000ae68:	0007069b          	sext.w	a3,a4
    8000ae6c:	12f13023          	sd	a5,288(sp)
    8000ae70:	00700713          	li	a4,7
    8000ae74:	01030313          	addi	t1,t1,16
    8000ae78:	40d74a63          	blt	a4,a3,8000b28c <_svfprintf_r+0x670>
    8000ae7c:	020c8c63          	beqz	s9,8000aeb4 <_svfprintf_r+0x298>
    8000ae80:	11812703          	lw	a4,280(sp)
    8000ae84:	0e010693          	addi	a3,sp,224
    8000ae88:	00d33023          	sd	a3,0(t1)
    8000ae8c:	0017071b          	addiw	a4,a4,1
    8000ae90:	00200693          	li	a3,2
    8000ae94:	00278793          	addi	a5,a5,2
    8000ae98:	00d33423          	sd	a3,8(t1)
    8000ae9c:	10e12c23          	sw	a4,280(sp)
    8000aea0:	0007069b          	sext.w	a3,a4
    8000aea4:	12f13023          	sd	a5,288(sp)
    8000aea8:	00700713          	li	a4,7
    8000aeac:	01030313          	addi	t1,t1,16
    8000aeb0:	52d74ce3          	blt	a4,a3,8000bbe8 <_svfprintf_r+0xfcc>
    8000aeb4:	08000713          	li	a4,128
    8000aeb8:	28eb0ae3          	beq	s6,a4,8000b94c <_svfprintf_r+0xd30>
    8000aebc:	414a8abb          	subw	s5,s5,s4
    8000aec0:	35504ae3          	bgtz	s5,8000ba14 <_svfprintf_r+0xdf8>
    8000aec4:	1004f713          	andi	a4,s1,256
    8000aec8:	10071ce3          	bnez	a4,8000b7e0 <_svfprintf_r+0xbc4>
    8000aecc:	11812703          	lw	a4,280(sp)
    8000aed0:	014787b3          	add	a5,a5,s4
    8000aed4:	01a33023          	sd	s10,0(t1)
    8000aed8:	0017069b          	addiw	a3,a4,1
    8000aedc:	00068713          	mv	a4,a3
    8000aee0:	01433423          	sd	s4,8(t1)
    8000aee4:	10e12c23          	sw	a4,280(sp)
    8000aee8:	12f13023          	sd	a5,288(sp)
    8000aeec:	00700713          	li	a4,7
    8000aef0:	4ad74863          	blt	a4,a3,8000b3a0 <_svfprintf_r+0x784>
    8000aef4:	01030313          	addi	t1,t1,16
    8000aef8:	0044f493          	andi	s1,s1,4
    8000aefc:	00048663          	beqz	s1,8000af08 <_svfprintf_r+0x2ec>
    8000af00:	413904bb          	subw	s1,s2,s3
    8000af04:	509042e3          	bgtz	s1,8000bc08 <_svfprintf_r+0xfec>
    8000af08:	00090713          	mv	a4,s2
    8000af0c:	01395463          	bge	s2,s3,8000af14 <_svfprintf_r+0x2f8>
    8000af10:	00098713          	mv	a4,s3
    8000af14:	00813683          	ld	a3,8(sp)
    8000af18:	00d7073b          	addw	a4,a4,a3
    8000af1c:	00e13423          	sd	a4,8(sp)
    8000af20:	3a0796e3          	bnez	a5,8000bacc <_svfprintf_r+0xeb0>
    8000af24:	01013783          	ld	a5,16(sp)
    8000af28:	10012c23          	sw	zero,280(sp)
    8000af2c:	00078863          	beqz	a5,8000af3c <_svfprintf_r+0x320>
    8000af30:	01013583          	ld	a1,16(sp)
    8000af34:	000c0513          	mv	a0,s8
    8000af38:	c89f90ef          	jal	ra,80004bc0 <_free_r>
    8000af3c:	19010313          	addi	t1,sp,400
    8000af40:	00040d13          	mv	s10,s0
    8000af44:	000d4783          	lbu	a5,0(s10)
    8000af48:	da079ae3          	bnez	a5,8000acfc <_svfprintf_r+0xe0>
    8000af4c:	12013783          	ld	a5,288(sp)
    8000af50:	00078463          	beqz	a5,8000af58 <_svfprintf_r+0x33c>
    8000af54:	1510106f          	j	8000c8a4 <_svfprintf_r+0x1c88>
    8000af58:	010bd783          	lhu	a5,16(s7)
    8000af5c:	0407f793          	andi	a5,a5,64
    8000af60:	00078463          	beqz	a5,8000af68 <_svfprintf_r+0x34c>
    8000af64:	0040206f          	j	8000cf68 <_svfprintf_r+0x234c>
    8000af68:	27813083          	ld	ra,632(sp)
    8000af6c:	27013403          	ld	s0,624(sp)
    8000af70:	00813503          	ld	a0,8(sp)
    8000af74:	26813483          	ld	s1,616(sp)
    8000af78:	26013903          	ld	s2,608(sp)
    8000af7c:	25813983          	ld	s3,600(sp)
    8000af80:	25013a03          	ld	s4,592(sp)
    8000af84:	24813a83          	ld	s5,584(sp)
    8000af88:	24013b03          	ld	s6,576(sp)
    8000af8c:	23813b83          	ld	s7,568(sp)
    8000af90:	23013c03          	ld	s8,560(sp)
    8000af94:	22813c83          	ld	s9,552(sp)
    8000af98:	22013d03          	ld	s10,544(sp)
    8000af9c:	21813d83          	ld	s11,536(sp)
    8000afa0:	28010113          	addi	sp,sp,640
    8000afa4:	00008067          	ret
    8000afa8:	0104e493          	ori	s1,s1,16
    8000afac:	00044e83          	lbu	t4,0(s0)
    8000afb0:	0004849b          	sext.w	s1,s1
    8000afb4:	dd9ff06f          	j	8000ad8c <_svfprintf_r+0x170>
    8000afb8:	41a404bb          	subw	s1,s0,s10
    8000afbc:	d60490e3          	bnez	s1,8000ad1c <_svfprintf_r+0x100>
    8000afc0:	00044783          	lbu	a5,0(s0)
    8000afc4:	d99ff06f          	j	8000ad5c <_svfprintf_r+0x140>
    8000afc8:	11010613          	addi	a2,sp,272
    8000afcc:	000b8593          	mv	a1,s7
    8000afd0:	000c0513          	mv	a0,s8
    8000afd4:	71d030ef          	jal	ra,8000eef0 <__ssprint_r>
    8000afd8:	f80510e3          	bnez	a0,8000af58 <_svfprintf_r+0x33c>
    8000afdc:	19010313          	addi	t1,sp,400
    8000afe0:	d6dff06f          	j	8000ad4c <_svfprintf_r+0x130>
    8000afe4:	0084f793          	andi	a5,s1,8
    8000afe8:	000c8313          	mv	t1,s9
    8000afec:	00078463          	beqz	a5,8000aff4 <_svfprintf_r+0x3d8>
    8000aff0:	0100106f          	j	8000c000 <_svfprintf_r+0x13e4>
    8000aff4:	01813783          	ld	a5,24(sp)
    8000aff8:	01913823          	sd	s9,16(sp)
    8000affc:	0007b503          	ld	a0,0(a5)
    8000b000:	00878c93          	addi	s9,a5,8
    8000b004:	01913c23          	sd	s9,24(sp)
    8000b008:	4b4070ef          	jal	ra,800124bc <__extenddftf2>
    8000b00c:	01013303          	ld	t1,16(sp)
    8000b010:	10a13023          	sd	a0,256(sp)
    8000b014:	10b13423          	sd	a1,264(sp)
    8000b018:	10010513          	addi	a0,sp,256
    8000b01c:	00613823          	sd	t1,16(sp)
    8000b020:	870fd0ef          	jal	ra,80008090 <_ldcheck>
    8000b024:	0ea12423          	sw	a0,232(sp)
    8000b028:	00200793          	li	a5,2
    8000b02c:	01013303          	ld	t1,16(sp)
    8000b030:	00f51463          	bne	a0,a5,8000b038 <_svfprintf_r+0x41c>
    8000b034:	56c0106f          	j	8000c5a0 <_svfprintf_r+0x1984>
    8000b038:	00100793          	li	a5,1
    8000b03c:	00f51463          	bne	a0,a5,8000b044 <_svfprintf_r+0x428>
    8000b040:	7080106f          	j	8000c748 <_svfprintf_r+0x1b2c>
    8000b044:	06100793          	li	a5,97
    8000b048:	00fd9463          	bne	s11,a5,8000b050 <_svfprintf_r+0x434>
    8000b04c:	6b90106f          	j	8000cf04 <_svfprintf_r+0x22e8>
    8000b050:	04100793          	li	a5,65
    8000b054:	00fd9463          	bne	s11,a5,8000b05c <_svfprintf_r+0x440>
    8000b058:	3450106f          	j	8000cb9c <_svfprintf_r+0x1f80>
    8000b05c:	fdfdf713          	andi	a4,s11,-33
    8000b060:	fff00793          	li	a5,-1
    8000b064:	02e13823          	sd	a4,48(sp)
    8000b068:	00fa9463          	bne	s5,a5,8000b070 <_svfprintf_r+0x454>
    8000b06c:	0850106f          	j	8000c8f0 <_svfprintf_r+0x1cd4>
    8000b070:	04700793          	li	a5,71
    8000b074:	00f71463          	bne	a4,a5,8000b07c <_svfprintf_r+0x460>
    8000b078:	6e10106f          	j	8000cf58 <_svfprintf_r+0x233c>
    8000b07c:	10813a03          	ld	s4,264(sp)
    8000b080:	1004e793          	ori	a5,s1,256
    8000b084:	02913c23          	sd	s1,56(sp)
    8000b088:	10013b03          	ld	s6,256(sp)
    8000b08c:	0007879b          	sext.w	a5,a5
    8000b090:	000a5463          	bgez	s4,8000b098 <_svfprintf_r+0x47c>
    8000b094:	53d0106f          	j	8000cdd0 <_svfprintf_r+0x21b4>
    8000b098:	06013823          	sd	zero,112(sp)
    8000b09c:	00078493          	mv	s1,a5
    8000b0a0:	00013823          	sd	zero,16(sp)
    8000b0a4:	03013703          	ld	a4,48(sp)
    8000b0a8:	04600793          	li	a5,70
    8000b0ac:	00f71463          	bne	a4,a5,8000b0b4 <_svfprintf_r+0x498>
    8000b0b0:	1390106f          	j	8000c9e8 <_svfprintf_r+0x1dcc>
    8000b0b4:	04500793          	li	a5,69
    8000b0b8:	02613023          	sd	t1,32(sp)
    8000b0bc:	00f71463          	bne	a4,a5,8000b0c4 <_svfprintf_r+0x4a8>
    8000b0c0:	60d0106f          	j	8000cecc <_svfprintf_r+0x22b0>
    8000b0c4:	0e810793          	addi	a5,sp,232
    8000b0c8:	000a8713          	mv	a4,s5
    8000b0cc:	0f810893          	addi	a7,sp,248
    8000b0d0:	0ec10813          	addi	a6,sp,236
    8000b0d4:	00200693          	li	a3,2
    8000b0d8:	000b0593          	mv	a1,s6
    8000b0dc:	000a0613          	mv	a2,s4
    8000b0e0:	000c0513          	mv	a0,s8
    8000b0e4:	d61fb0ef          	jal	ra,80006e44 <_ldtoa_r>
    8000b0e8:	03013703          	ld	a4,48(sp)
    8000b0ec:	04700793          	li	a5,71
    8000b0f0:	02013303          	ld	t1,32(sp)
    8000b0f4:	00050d13          	mv	s10,a0
    8000b0f8:	00f70463          	beq	a4,a5,8000b100 <_svfprintf_r+0x4e4>
    8000b0fc:	0540206f          	j	8000d150 <_svfprintf_r+0x2534>
    8000b100:	03813783          	ld	a5,56(sp)
    8000b104:	0017f793          	andi	a5,a5,1
    8000b108:	00078463          	beqz	a5,8000b110 <_svfprintf_r+0x4f4>
    8000b10c:	5710106f          	j	8000ce7c <_svfprintf_r+0x2260>
    8000b110:	0f813683          	ld	a3,248(sp)
    8000b114:	41a687bb          	subw	a5,a3,s10
    8000b118:	02f13423          	sd	a5,40(sp)
    8000b11c:	0e812703          	lw	a4,232(sp)
    8000b120:	04700793          	li	a5,71
    8000b124:	02e13023          	sd	a4,32(sp)
    8000b128:	03013703          	ld	a4,48(sp)
    8000b12c:	00f71463          	bne	a4,a5,8000b134 <_svfprintf_r+0x518>
    8000b130:	7f80106f          	j	8000c928 <_svfprintf_r+0x1d0c>
    8000b134:	03013703          	ld	a4,48(sp)
    8000b138:	04600793          	li	a5,70
    8000b13c:	00f71463          	bne	a4,a5,8000b144 <_svfprintf_r+0x528>
    8000b140:	2390106f          	j	8000cb78 <_svfprintf_r+0x1f5c>
    8000b144:	02013783          	ld	a5,32(sp)
    8000b148:	03013583          	ld	a1,48(sp)
    8000b14c:	04100613          	li	a2,65
    8000b150:	fff7879b          	addiw	a5,a5,-1
    8000b154:	0ef12423          	sw	a5,232(sp)
    8000b158:	0ffdf713          	andi	a4,s11,255
    8000b15c:	00000693          	li	a3,0
    8000b160:	00c59863          	bne	a1,a2,8000b170 <_svfprintf_r+0x554>
    8000b164:	00f7071b          	addiw	a4,a4,15
    8000b168:	0ff77713          	andi	a4,a4,255
    8000b16c:	00100693          	li	a3,1
    8000b170:	0ee10823          	sb	a4,240(sp)
    8000b174:	02b00713          	li	a4,43
    8000b178:	0007da63          	bgez	a5,8000b18c <_svfprintf_r+0x570>
    8000b17c:	02013703          	ld	a4,32(sp)
    8000b180:	00100793          	li	a5,1
    8000b184:	40e787bb          	subw	a5,a5,a4
    8000b188:	02d00713          	li	a4,45
    8000b18c:	0ee108a3          	sb	a4,241(sp)
    8000b190:	00900713          	li	a4,9
    8000b194:	00f74463          	blt	a4,a5,8000b19c <_svfprintf_r+0x580>
    8000b198:	6e10106f          	j	8000d078 <_svfprintf_r+0x245c>
    8000b19c:	0ff10513          	addi	a0,sp,255
    8000b1a0:	00050593          	mv	a1,a0
    8000b1a4:	00a00693          	li	a3,10
    8000b1a8:	06300e13          	li	t3,99
    8000b1ac:	02d7e73b          	remw	a4,a5,a3
    8000b1b0:	00058613          	mv	a2,a1
    8000b1b4:	00078813          	mv	a6,a5
    8000b1b8:	fff58593          	addi	a1,a1,-1
    8000b1bc:	0307071b          	addiw	a4,a4,48
    8000b1c0:	fee60fa3          	sb	a4,-1(a2)
    8000b1c4:	02d7c7bb          	divw	a5,a5,a3
    8000b1c8:	ff0e42e3          	blt	t3,a6,8000b1ac <_svfprintf_r+0x590>
    8000b1cc:	0307879b          	addiw	a5,a5,48
    8000b1d0:	0ff7f693          	andi	a3,a5,255
    8000b1d4:	fed58fa3          	sb	a3,-1(a1)
    8000b1d8:	ffe60793          	addi	a5,a2,-2
    8000b1dc:	00a7e463          	bltu	a5,a0,8000b1e4 <_svfprintf_r+0x5c8>
    8000b1e0:	7a50106f          	j	8000d184 <_svfprintf_r+0x2568>
    8000b1e4:	0f210713          	addi	a4,sp,242
    8000b1e8:	0080006f          	j	8000b1f0 <_svfprintf_r+0x5d4>
    8000b1ec:	0007c683          	lbu	a3,0(a5)
    8000b1f0:	00d70023          	sb	a3,0(a4)
    8000b1f4:	00178793          	addi	a5,a5,1
    8000b1f8:	00170713          	addi	a4,a4,1
    8000b1fc:	fea798e3          	bne	a5,a0,8000b1ec <_svfprintf_r+0x5d0>
    8000b200:	10110793          	addi	a5,sp,257
    8000b204:	0f210713          	addi	a4,sp,242
    8000b208:	40c787b3          	sub	a5,a5,a2
    8000b20c:	00f707b3          	add	a5,a4,a5
    8000b210:	0f010713          	addi	a4,sp,240
    8000b214:	40e787bb          	subw	a5,a5,a4
    8000b218:	04f13c23          	sd	a5,88(sp)
    8000b21c:	05813783          	ld	a5,88(sp)
    8000b220:	02813683          	ld	a3,40(sp)
    8000b224:	00100713          	li	a4,1
    8000b228:	00d78a3b          	addw	s4,a5,a3
    8000b22c:	000a0793          	mv	a5,s4
    8000b230:	00d74463          	blt	a4,a3,8000b238 <_svfprintf_r+0x61c>
    8000b234:	6950106f          	j	8000d0c8 <_svfprintf_r+0x24ac>
    8000b238:	04013703          	ld	a4,64(sp)
    8000b23c:	00e78a3b          	addw	s4,a5,a4
    8000b240:	03813783          	ld	a5,56(sp)
    8000b244:	fffa4993          	not	s3,s4
    8000b248:	43f9d993          	srai	s3,s3,0x3f
    8000b24c:	bff7f493          	andi	s1,a5,-1025
    8000b250:	0004849b          	sext.w	s1,s1
    8000b254:	013a79b3          	and	s3,s4,s3
    8000b258:	1004e493          	ori	s1,s1,256
    8000b25c:	0009899b          	sext.w	s3,s3
    8000b260:	02013c23          	sd	zero,56(sp)
    8000b264:	02013823          	sd	zero,48(sp)
    8000b268:	02013023          	sd	zero,32(sp)
    8000b26c:	07013783          	ld	a5,112(sp)
    8000b270:	00079463          	bnez	a5,8000b278 <_svfprintf_r+0x65c>
    8000b274:	72c0106f          	j	8000c9a0 <_svfprintf_r+0x1d84>
    8000b278:	02d00793          	li	a5,45
    8000b27c:	0cf10fa3          	sb	a5,223(sp)
    8000b280:	00000a93          	li	s5,0
    8000b284:	0019899b          	addiw	s3,s3,1
    8000b288:	b99ff06f          	j	8000ae20 <_svfprintf_r+0x204>
    8000b28c:	11010613          	addi	a2,sp,272
    8000b290:	000b8593          	mv	a1,s7
    8000b294:	000c0513          	mv	a0,s8
    8000b298:	459030ef          	jal	ra,8000eef0 <__ssprint_r>
    8000b29c:	040512e3          	bnez	a0,8000bae0 <_svfprintf_r+0xec4>
    8000b2a0:	12013783          	ld	a5,288(sp)
    8000b2a4:	19010313          	addi	t1,sp,400
    8000b2a8:	bd5ff06f          	j	8000ae7c <_svfprintf_r+0x260>
    8000b2ac:	11812583          	lw	a1,280(sp)
    8000b2b0:	00178a93          	addi	s5,a5,1
    8000b2b4:	02813783          	ld	a5,40(sp)
    8000b2b8:	0015871b          	addiw	a4,a1,1
    8000b2bc:	00100613          	li	a2,1
    8000b2c0:	01a33023          	sd	s10,0(t1)
    8000b2c4:	00070693          	mv	a3,a4
    8000b2c8:	01030a13          	addi	s4,t1,16
    8000b2cc:	36f658e3          	bge	a2,a5,8000be3c <_svfprintf_r+0x1220>
    8000b2d0:	00100613          	li	a2,1
    8000b2d4:	10d12c23          	sw	a3,280(sp)
    8000b2d8:	00c33423          	sd	a2,8(t1)
    8000b2dc:	13513023          	sd	s5,288(sp)
    8000b2e0:	00700693          	li	a3,7
    8000b2e4:	48e6cee3          	blt	a3,a4,8000bf80 <_svfprintf_r+0x1364>
    8000b2e8:	04013783          	ld	a5,64(sp)
    8000b2ec:	04813683          	ld	a3,72(sp)
    8000b2f0:	00170b1b          	addiw	s6,a4,1
    8000b2f4:	00fa8ab3          	add	s5,s5,a5
    8000b2f8:	00da3023          	sd	a3,0(s4)
    8000b2fc:	00fa3423          	sd	a5,8(s4)
    8000b300:	13513023          	sd	s5,288(sp)
    8000b304:	11612c23          	sw	s6,280(sp)
    8000b308:	00700713          	li	a4,7
    8000b30c:	010a0a13          	addi	s4,s4,16
    8000b310:	49674ae3          	blt	a4,s6,8000bfa4 <_svfprintf_r+0x1388>
    8000b314:	10013503          	ld	a0,256(sp)
    8000b318:	10813583          	ld	a1,264(sp)
    8000b31c:	001b0e1b          	addiw	t3,s6,1
    8000b320:	00000693          	li	a3,0
    8000b324:	00000613          	li	a2,0
    8000b328:	03c12023          	sw	t3,32(sp)
    8000b32c:	000060ef          	jal	ra,8001132c <__eqtf2>
    8000b330:	02012e03          	lw	t3,32(sp)
    8000b334:	02813783          	ld	a5,40(sp)
    8000b338:	010a0313          	addi	t1,s4,16
    8000b33c:	000e069b          	sext.w	a3,t3
    8000b340:	fff78d9b          	addiw	s11,a5,-1
    8000b344:	32050ce3          	beqz	a0,8000be7c <_svfprintf_r+0x1260>
    8000b348:	001d0813          	addi	a6,s10,1
    8000b34c:	01ba8ab3          	add	s5,s5,s11
    8000b350:	010a3023          	sd	a6,0(s4)
    8000b354:	01ba3423          	sd	s11,8(s4)
    8000b358:	13513023          	sd	s5,288(sp)
    8000b35c:	11c12c23          	sw	t3,280(sp)
    8000b360:	00700713          	li	a4,7
    8000b364:	00d75463          	bge	a4,a3,8000b36c <_svfprintf_r+0x750>
    8000b368:	0380106f          	j	8000c3a0 <_svfprintf_r+0x1784>
    8000b36c:	020a0713          	addi	a4,s4,32
    8000b370:	002b069b          	addiw	a3,s6,2
    8000b374:	00030a13          	mv	s4,t1
    8000b378:	00070313          	mv	t1,a4
    8000b37c:	05813603          	ld	a2,88(sp)
    8000b380:	0f010713          	addi	a4,sp,240
    8000b384:	00ea3023          	sd	a4,0(s4)
    8000b388:	015607b3          	add	a5,a2,s5
    8000b38c:	00ca3423          	sd	a2,8(s4)
    8000b390:	12f13023          	sd	a5,288(sp)
    8000b394:	10d12c23          	sw	a3,280(sp)
    8000b398:	00700713          	li	a4,7
    8000b39c:	b4d75ee3          	bge	a4,a3,8000aef8 <_svfprintf_r+0x2dc>
    8000b3a0:	11010613          	addi	a2,sp,272
    8000b3a4:	000b8593          	mv	a1,s7
    8000b3a8:	000c0513          	mv	a0,s8
    8000b3ac:	345030ef          	jal	ra,8000eef0 <__ssprint_r>
    8000b3b0:	72051863          	bnez	a0,8000bae0 <_svfprintf_r+0xec4>
    8000b3b4:	12013783          	ld	a5,288(sp)
    8000b3b8:	19010313          	addi	t1,sp,400
    8000b3bc:	b3dff06f          	j	8000aef8 <_svfprintf_r+0x2dc>
    8000b3c0:	01813703          	ld	a4,24(sp)
    8000b3c4:	000c8313          	mv	t1,s9
    8000b3c8:	0c010fa3          	sb	zero,223(sp)
    8000b3cc:	00072783          	lw	a5,0(a4)
    8000b3d0:	00870713          	addi	a4,a4,8
    8000b3d4:	00e13c23          	sd	a4,24(sp)
    8000b3d8:	12f10423          	sb	a5,296(sp)
    8000b3dc:	00100993          	li	s3,1
    8000b3e0:	00100a13          	li	s4,1
    8000b3e4:	12810d13          	addi	s10,sp,296
    8000b3e8:	a25ff06f          	j	8000ae0c <_svfprintf_r+0x1f0>
    8000b3ec:	01813783          	ld	a5,24(sp)
    8000b3f0:	0c010fa3          	sb	zero,223(sp)
    8000b3f4:	000c8313          	mv	t1,s9
    8000b3f8:	0007bd03          	ld	s10,0(a5)
    8000b3fc:	00878c93          	addi	s9,a5,8
    8000b400:	000d1463          	bnez	s10,8000b408 <_svfprintf_r+0x7ec>
    8000b404:	1fc0106f          	j	8000c600 <_svfprintf_r+0x19e4>
    8000b408:	fff00793          	li	a5,-1
    8000b40c:	52fa8ce3          	beq	s5,a5,8000c144 <_svfprintf_r+0x1528>
    8000b410:	000a8613          	mv	a2,s5
    8000b414:	00000593          	li	a1,0
    8000b418:	000d0513          	mv	a0,s10
    8000b41c:	00613c23          	sd	t1,24(sp)
    8000b420:	8e1fd0ef          	jal	ra,80008d00 <memchr>
    8000b424:	00a13823          	sd	a0,16(sp)
    8000b428:	01813303          	ld	t1,24(sp)
    8000b42c:	00051463          	bnez	a0,8000b434 <_svfprintf_r+0x818>
    8000b430:	6a80106f          	j	8000cad8 <_svfprintf_r+0x1ebc>
    8000b434:	01013783          	ld	a5,16(sp)
    8000b438:	01913c23          	sd	s9,24(sp)
    8000b43c:	00013823          	sd	zero,16(sp)
    8000b440:	41a78a3b          	subw	s4,a5,s10
    8000b444:	0df14783          	lbu	a5,223(sp)
    8000b448:	fffa4993          	not	s3,s4
    8000b44c:	43f9d993          	srai	s3,s3,0x3f
    8000b450:	02013c23          	sd	zero,56(sp)
    8000b454:	02013823          	sd	zero,48(sp)
    8000b458:	02013023          	sd	zero,32(sp)
    8000b45c:	0149f9b3          	and	s3,s3,s4
    8000b460:	00000a93          	li	s5,0
    8000b464:	9a078ee3          	beqz	a5,8000ae20 <_svfprintf_r+0x204>
    8000b468:	0019899b          	addiw	s3,s3,1
    8000b46c:	9b5ff06f          	j	8000ae20 <_svfprintf_r+0x204>
    8000b470:	0104e493          	ori	s1,s1,16
    8000b474:	000c8313          	mv	t1,s9
    8000b478:	0004849b          	sext.w	s1,s1
    8000b47c:	01813683          	ld	a3,24(sp)
    8000b480:	0204f793          	andi	a5,s1,32
    8000b484:	00868713          	addi	a4,a3,8
    8000b488:	2a0784e3          	beqz	a5,8000bf30 <_svfprintf_r+0x1314>
    8000b48c:	0006b983          	ld	s3,0(a3)
    8000b490:	bff4f493          	andi	s1,s1,-1025
    8000b494:	00048b1b          	sext.w	s6,s1
    8000b498:	00e13c23          	sd	a4,24(sp)
    8000b49c:	00000793          	li	a5,0
    8000b4a0:	0c010fa3          	sb	zero,223(sp)
    8000b4a4:	fff00713          	li	a4,-1
    8000b4a8:	2cea8e63          	beq	s5,a4,8000b784 <_svfprintf_r+0xb68>
    8000b4ac:	f7fb7493          	andi	s1,s6,-129
    8000b4b0:	0004849b          	sext.w	s1,s1
    8000b4b4:	2c099663          	bnez	s3,8000b780 <_svfprintf_r+0xb64>
    8000b4b8:	440a9463          	bnez	s5,8000b900 <_svfprintf_r+0xce4>
    8000b4bc:	1a0798e3          	bnez	a5,8000be6c <_svfprintf_r+0x1250>
    8000b4c0:	001b7a13          	andi	s4,s6,1
    8000b4c4:	18c10d13          	addi	s10,sp,396
    8000b4c8:	300a1ce3          	bnez	s4,8000bfe0 <_svfprintf_r+0x13c4>
    8000b4cc:	0df14783          	lbu	a5,223(sp)
    8000b4d0:	000a099b          	sext.w	s3,s4
    8000b4d4:	015a5463          	bge	s4,s5,8000b4dc <_svfprintf_r+0x8c0>
    8000b4d8:	000a899b          	sext.w	s3,s5
    8000b4dc:	00013823          	sd	zero,16(sp)
    8000b4e0:	02013c23          	sd	zero,56(sp)
    8000b4e4:	02013823          	sd	zero,48(sp)
    8000b4e8:	02013023          	sd	zero,32(sp)
    8000b4ec:	f6079ee3          	bnez	a5,8000b468 <_svfprintf_r+0x84c>
    8000b4f0:	931ff06f          	j	8000ae20 <_svfprintf_r+0x204>
    8000b4f4:	00044e83          	lbu	t4,0(s0)
    8000b4f8:	06800793          	li	a5,104
    8000b4fc:	3afe8ee3          	beq	t4,a5,8000c0b8 <_svfprintf_r+0x149c>
    8000b500:	0404e493          	ori	s1,s1,64
    8000b504:	0004849b          	sext.w	s1,s1
    8000b508:	885ff06f          	j	8000ad8c <_svfprintf_r+0x170>
    8000b50c:	01813683          	ld	a3,24(sp)
    8000b510:	0204f793          	andi	a5,s1,32
    8000b514:	000c8313          	mv	t1,s9
    8000b518:	0006b703          	ld	a4,0(a3)
    8000b51c:	00868693          	addi	a3,a3,8
    8000b520:	00d13c23          	sd	a3,24(sp)
    8000b524:	02079a63          	bnez	a5,8000b558 <_svfprintf_r+0x93c>
    8000b528:	0104f793          	andi	a5,s1,16
    8000b52c:	02079663          	bnez	a5,8000b558 <_svfprintf_r+0x93c>
    8000b530:	0404f793          	andi	a5,s1,64
    8000b534:	00078463          	beqz	a5,8000b53c <_svfprintf_r+0x920>
    8000b538:	3200106f          	j	8000c858 <_svfprintf_r+0x1c3c>
    8000b53c:	2004f493          	andi	s1,s1,512
    8000b540:	00813783          	ld	a5,8(sp)
    8000b544:	00049463          	bnez	s1,8000b54c <_svfprintf_r+0x930>
    8000b548:	1cd0106f          	j	8000cf14 <_svfprintf_r+0x22f8>
    8000b54c:	00f70023          	sb	a5,0(a4)
    8000b550:	00040d13          	mv	s10,s0
    8000b554:	9f1ff06f          	j	8000af44 <_svfprintf_r+0x328>
    8000b558:	00813783          	ld	a5,8(sp)
    8000b55c:	00040d13          	mv	s10,s0
    8000b560:	00f73023          	sd	a5,0(a4)
    8000b564:	9e1ff06f          	j	8000af44 <_svfprintf_r+0x328>
    8000b568:	00044e83          	lbu	t4,0(s0)
    8000b56c:	06c00793          	li	a5,108
    8000b570:	38fe8ce3          	beq	t4,a5,8000c108 <_svfprintf_r+0x14ec>
    8000b574:	0104e493          	ori	s1,s1,16
    8000b578:	0004849b          	sext.w	s1,s1
    8000b57c:	811ff06f          	j	8000ad8c <_svfprintf_r+0x170>
    8000b580:	0204e493          	ori	s1,s1,32
    8000b584:	00044e83          	lbu	t4,0(s0)
    8000b588:	0004849b          	sext.w	s1,s1
    8000b58c:	801ff06f          	j	8000ad8c <_svfprintf_r+0x170>
    8000b590:	01813703          	ld	a4,24(sp)
    8000b594:	03000793          	li	a5,48
    8000b598:	0ef10023          	sb	a5,224(sp)
    8000b59c:	07800793          	li	a5,120
    8000b5a0:	0ef100a3          	sb	a5,225(sp)
    8000b5a4:	00870793          	addi	a5,a4,8
    8000b5a8:	00f13c23          	sd	a5,24(sp)
    8000b5ac:	000237b7          	lui	a5,0x23
    8000b5b0:	ed878793          	addi	a5,a5,-296 # 22ed8 <_start-0x7ffdd144>
    8000b5b4:	0024e493          	ori	s1,s1,2
    8000b5b8:	04f13823          	sd	a5,80(sp)
    8000b5bc:	00073983          	ld	s3,0(a4)
    8000b5c0:	000c8313          	mv	t1,s9
    8000b5c4:	00048b1b          	sext.w	s6,s1
    8000b5c8:	00200793          	li	a5,2
    8000b5cc:	07800d93          	li	s11,120
    8000b5d0:	ed1ff06f          	j	8000b4a0 <_svfprintf_r+0x884>
    8000b5d4:	0104e493          	ori	s1,s1,16
    8000b5d8:	000c8313          	mv	t1,s9
    8000b5dc:	00048b1b          	sext.w	s6,s1
    8000b5e0:	01813683          	ld	a3,24(sp)
    8000b5e4:	020b7793          	andi	a5,s6,32
    8000b5e8:	00868713          	addi	a4,a3,8
    8000b5ec:	160784e3          	beqz	a5,8000bf54 <_svfprintf_r+0x1338>
    8000b5f0:	0006b983          	ld	s3,0(a3)
    8000b5f4:	00100793          	li	a5,1
    8000b5f8:	00e13c23          	sd	a4,24(sp)
    8000b5fc:	ea5ff06f          	j	8000b4a0 <_svfprintf_r+0x884>
    8000b600:	0084e493          	ori	s1,s1,8
    8000b604:	00044e83          	lbu	t4,0(s0)
    8000b608:	0004849b          	sext.w	s1,s1
    8000b60c:	f80ff06f          	j	8000ad8c <_svfprintf_r+0x170>
    8000b610:	0804e493          	ori	s1,s1,128
    8000b614:	00044e83          	lbu	t4,0(s0)
    8000b618:	0004849b          	sext.w	s1,s1
    8000b61c:	f70ff06f          	j	8000ad8c <_svfprintf_r+0x170>
    8000b620:	00044d83          	lbu	s11,0(s0)
    8000b624:	00140793          	addi	a5,s0,1
    8000b628:	00dd9463          	bne	s11,a3,8000b630 <_svfprintf_r+0xa14>
    8000b62c:	2fd0106f          	j	8000d128 <_svfprintf_r+0x250c>
    8000b630:	fd0d871b          	addiw	a4,s11,-48
    8000b634:	00078413          	mv	s0,a5
    8000b638:	00000a93          	li	s5,0
    8000b63c:	f4eb6e63          	bltu	s6,a4,8000ad98 <_svfprintf_r+0x17c>
    8000b640:	00044d83          	lbu	s11,0(s0)
    8000b644:	002a979b          	slliw	a5,s5,0x2
    8000b648:	01578abb          	addw	s5,a5,s5
    8000b64c:	001a9a9b          	slliw	s5,s5,0x1
    8000b650:	00ea8abb          	addw	s5,s5,a4
    8000b654:	fd0d871b          	addiw	a4,s11,-48
    8000b658:	00140413          	addi	s0,s0,1
    8000b65c:	feeb72e3          	bgeu	s6,a4,8000b640 <_svfprintf_r+0xa24>
    8000b660:	f38ff06f          	j	8000ad98 <_svfprintf_r+0x17c>
    8000b664:	00044e83          	lbu	t4,0(s0)
    8000b668:	0044e493          	ori	s1,s1,4
    8000b66c:	0004849b          	sext.w	s1,s1
    8000b670:	f1cff06f          	j	8000ad8c <_svfprintf_r+0x170>
    8000b674:	02b00793          	li	a5,43
    8000b678:	00044e83          	lbu	t4,0(s0)
    8000b67c:	0cf10fa3          	sb	a5,223(sp)
    8000b680:	f0cff06f          	j	8000ad8c <_svfprintf_r+0x170>
    8000b684:	01813783          	ld	a5,24(sp)
    8000b688:	00044e83          	lbu	t4,0(s0)
    8000b68c:	0007a903          	lw	s2,0(a5)
    8000b690:	00878793          	addi	a5,a5,8
    8000b694:	00f13c23          	sd	a5,24(sp)
    8000b698:	ee095a63          	bgez	s2,8000ad8c <_svfprintf_r+0x170>
    8000b69c:	4120093b          	negw	s2,s2
    8000b6a0:	fc9ff06f          	j	8000b668 <_svfprintf_r+0xa4c>
    8000b6a4:	000c0513          	mv	a0,s8
    8000b6a8:	a59fc0ef          	jal	ra,80008100 <_localeconv_r>
    8000b6ac:	00853783          	ld	a5,8(a0)
    8000b6b0:	00078513          	mv	a0,a5
    8000b6b4:	06f13023          	sd	a5,96(sp)
    8000b6b8:	8d4f60ef          	jal	ra,8000178c <strlen>
    8000b6bc:	00050793          	mv	a5,a0
    8000b6c0:	000c0513          	mv	a0,s8
    8000b6c4:	00078d93          	mv	s11,a5
    8000b6c8:	08f13023          	sd	a5,128(sp)
    8000b6cc:	a35fc0ef          	jal	ra,80008100 <_localeconv_r>
    8000b6d0:	01053783          	ld	a5,16(a0)
    8000b6d4:	00044e83          	lbu	t4,0(s0)
    8000b6d8:	06f13423          	sd	a5,104(sp)
    8000b6dc:	ea0d8863          	beqz	s11,8000ad8c <_svfprintf_r+0x170>
    8000b6e0:	ea078663          	beqz	a5,8000ad8c <_svfprintf_r+0x170>
    8000b6e4:	0007c783          	lbu	a5,0(a5)
    8000b6e8:	ea078263          	beqz	a5,8000ad8c <_svfprintf_r+0x170>
    8000b6ec:	4004e493          	ori	s1,s1,1024
    8000b6f0:	0004849b          	sext.w	s1,s1
    8000b6f4:	e98ff06f          	j	8000ad8c <_svfprintf_r+0x170>
    8000b6f8:	0014e493          	ori	s1,s1,1
    8000b6fc:	00044e83          	lbu	t4,0(s0)
    8000b700:	0004849b          	sext.w	s1,s1
    8000b704:	e88ff06f          	j	8000ad8c <_svfprintf_r+0x170>
    8000b708:	0df14783          	lbu	a5,223(sp)
    8000b70c:	00044e83          	lbu	t4,0(s0)
    8000b710:	e6079e63          	bnez	a5,8000ad8c <_svfprintf_r+0x170>
    8000b714:	02000793          	li	a5,32
    8000b718:	0cf10fa3          	sb	a5,223(sp)
    8000b71c:	e70ff06f          	j	8000ad8c <_svfprintf_r+0x170>
    8000b720:	0104e493          	ori	s1,s1,16
    8000b724:	000c8313          	mv	t1,s9
    8000b728:	0004849b          	sext.w	s1,s1
    8000b72c:	01813683          	ld	a3,24(sp)
    8000b730:	0204f793          	andi	a5,s1,32
    8000b734:	00868713          	addi	a4,a3,8
    8000b738:	7a078e63          	beqz	a5,8000bef4 <_svfprintf_r+0x12d8>
    8000b73c:	0006b783          	ld	a5,0(a3)
    8000b740:	00078993          	mv	s3,a5
    8000b744:	7c07c863          	bltz	a5,8000bf14 <_svfprintf_r+0x12f8>
    8000b748:	fff00793          	li	a5,-1
    8000b74c:	5efa86e3          	beq	s5,a5,8000c538 <_svfprintf_r+0x191c>
    8000b750:	f7f4f493          	andi	s1,s1,-129
    8000b754:	00e13c23          	sd	a4,24(sp)
    8000b758:	00048b1b          	sext.w	s6,s1
    8000b75c:	70098463          	beqz	s3,8000be64 <_svfprintf_r+0x1248>
    8000b760:	00900793          	li	a5,9
    8000b764:	4737e4e3          	bltu	a5,s3,8000c3cc <_svfprintf_r+0x17b0>
    8000b768:	0309899b          	addiw	s3,s3,48
    8000b76c:	193105a3          	sb	s3,395(sp)
    8000b770:	000b0493          	mv	s1,s6
    8000b774:	00100a13          	li	s4,1
    8000b778:	18b10d13          	addi	s10,sp,395
    8000b77c:	d51ff06f          	j	8000b4cc <_svfprintf_r+0x8b0>
    8000b780:	00048b13          	mv	s6,s1
    8000b784:	00100713          	li	a4,1
    8000b788:	fce78ce3          	beq	a5,a4,8000b760 <_svfprintf_r+0xb44>
    8000b78c:	00200713          	li	a4,2
    8000b790:	18e78463          	beq	a5,a4,8000b918 <_svfprintf_r+0xcfc>
    8000b794:	18c10a13          	addi	s4,sp,396
    8000b798:	000a0d13          	mv	s10,s4
    8000b79c:	0079f793          	andi	a5,s3,7
    8000b7a0:	03078793          	addi	a5,a5,48
    8000b7a4:	fefd0fa3          	sb	a5,-1(s10)
    8000b7a8:	0039d993          	srli	s3,s3,0x3
    8000b7ac:	000d0713          	mv	a4,s10
    8000b7b0:	fffd0d13          	addi	s10,s10,-1
    8000b7b4:	fe0994e3          	bnez	s3,8000b79c <_svfprintf_r+0xb80>
    8000b7b8:	001b7693          	andi	a3,s6,1
    8000b7bc:	18068263          	beqz	a3,8000b940 <_svfprintf_r+0xd24>
    8000b7c0:	03000693          	li	a3,48
    8000b7c4:	16d78e63          	beq	a5,a3,8000b940 <_svfprintf_r+0xd24>
    8000b7c8:	ffe70713          	addi	a4,a4,-2
    8000b7cc:	fedd0fa3          	sb	a3,-1(s10)
    8000b7d0:	40ea0a3b          	subw	s4,s4,a4
    8000b7d4:	000b0493          	mv	s1,s6
    8000b7d8:	00070d13          	mv	s10,a4
    8000b7dc:	cf1ff06f          	j	8000b4cc <_svfprintf_r+0x8b0>
    8000b7e0:	06500713          	li	a4,101
    8000b7e4:	adb754e3          	bge	a4,s11,8000b2ac <_svfprintf_r+0x690>
    8000b7e8:	10013503          	ld	a0,256(sp)
    8000b7ec:	10813583          	ld	a1,264(sp)
    8000b7f0:	00000613          	li	a2,0
    8000b7f4:	00000693          	li	a3,0
    8000b7f8:	06613c23          	sd	t1,120(sp)
    8000b7fc:	06f13823          	sd	a5,112(sp)
    8000b800:	32d050ef          	jal	ra,8001132c <__eqtf2>
    8000b804:	07013783          	ld	a5,112(sp)
    8000b808:	07813303          	ld	t1,120(sp)
    8000b80c:	4a051863          	bnez	a0,8000bcbc <_svfprintf_r+0x10a0>
    8000b810:	11812703          	lw	a4,280(sp)
    8000b814:	000236b7          	lui	a3,0x23
    8000b818:	ef868693          	addi	a3,a3,-264 # 22ef8 <_start-0x7ffdd124>
    8000b81c:	0017071b          	addiw	a4,a4,1
    8000b820:	00d33023          	sd	a3,0(t1)
    8000b824:	00178793          	addi	a5,a5,1
    8000b828:	00100693          	li	a3,1
    8000b82c:	00d33423          	sd	a3,8(t1)
    8000b830:	10e12c23          	sw	a4,280(sp)
    8000b834:	0007069b          	sext.w	a3,a4
    8000b838:	12f13023          	sd	a5,288(sp)
    8000b83c:	00700713          	li	a4,7
    8000b840:	01030313          	addi	t1,t1,16
    8000b844:	50d740e3          	blt	a4,a3,8000c544 <_svfprintf_r+0x1928>
    8000b848:	0e812703          	lw	a4,232(sp)
    8000b84c:	02813683          	ld	a3,40(sp)
    8000b850:	76d75c63          	bge	a4,a3,8000bfc8 <_svfprintf_r+0x13ac>
    8000b854:	04813703          	ld	a4,72(sp)
    8000b858:	04013683          	ld	a3,64(sp)
    8000b85c:	01030313          	addi	t1,t1,16
    8000b860:	fee33823          	sd	a4,-16(t1)
    8000b864:	11812703          	lw	a4,280(sp)
    8000b868:	00d787b3          	add	a5,a5,a3
    8000b86c:	fed33c23          	sd	a3,-8(t1)
    8000b870:	0017071b          	addiw	a4,a4,1
    8000b874:	0007069b          	sext.w	a3,a4
    8000b878:	10e12c23          	sw	a4,280(sp)
    8000b87c:	12f13023          	sd	a5,288(sp)
    8000b880:	00700713          	li	a4,7
    8000b884:	04d744e3          	blt	a4,a3,8000c0cc <_svfprintf_r+0x14b0>
    8000b888:	02813703          	ld	a4,40(sp)
    8000b88c:	fff70a1b          	addiw	s4,a4,-1
    8000b890:	e7405463          	blez	s4,8000aef8 <_svfprintf_r+0x2dc>
    8000b894:	000238b7          	lui	a7,0x23
    8000b898:	01000693          	li	a3,16
    8000b89c:	11812703          	lw	a4,280(sp)
    8000b8a0:	6f888c93          	addi	s9,a7,1784 # 236f8 <_start-0x7ffdc924>
    8000b8a4:	01000b13          	li	s6,16
    8000b8a8:	00700a93          	li	s5,7
    8000b8ac:	0146c863          	blt	a3,s4,8000b8bc <_svfprintf_r+0xca0>
    8000b8b0:	4b50006f          	j	8000c564 <_svfprintf_r+0x1948>
    8000b8b4:	ff0a0a1b          	addiw	s4,s4,-16
    8000b8b8:	4b4b56e3          	bge	s6,s4,8000c564 <_svfprintf_r+0x1948>
    8000b8bc:	0017071b          	addiw	a4,a4,1
    8000b8c0:	01078793          	addi	a5,a5,16
    8000b8c4:	01933023          	sd	s9,0(t1)
    8000b8c8:	01633423          	sd	s6,8(t1)
    8000b8cc:	12f13023          	sd	a5,288(sp)
    8000b8d0:	10e12c23          	sw	a4,280(sp)
    8000b8d4:	01030313          	addi	t1,t1,16
    8000b8d8:	fceadee3          	bge	s5,a4,8000b8b4 <_svfprintf_r+0xc98>
    8000b8dc:	11010613          	addi	a2,sp,272
    8000b8e0:	000b8593          	mv	a1,s7
    8000b8e4:	000c0513          	mv	a0,s8
    8000b8e8:	608030ef          	jal	ra,8000eef0 <__ssprint_r>
    8000b8ec:	1e051a63          	bnez	a0,8000bae0 <_svfprintf_r+0xec4>
    8000b8f0:	12013783          	ld	a5,288(sp)
    8000b8f4:	11812703          	lw	a4,280(sp)
    8000b8f8:	19010313          	addi	t1,sp,400
    8000b8fc:	fb9ff06f          	j	8000b8b4 <_svfprintf_r+0xc98>
    8000b900:	00100713          	li	a4,1
    8000b904:	00e79463          	bne	a5,a4,8000b90c <_svfprintf_r+0xcf0>
    8000b908:	56c0106f          	j	8000ce74 <_svfprintf_r+0x2258>
    8000b90c:	00200713          	li	a4,2
    8000b910:	00048b13          	mv	s6,s1
    8000b914:	e8e790e3          	bne	a5,a4,8000b794 <_svfprintf_r+0xb78>
    8000b918:	05013703          	ld	a4,80(sp)
    8000b91c:	18c10a13          	addi	s4,sp,396
    8000b920:	000a0d13          	mv	s10,s4
    8000b924:	00f9f793          	andi	a5,s3,15
    8000b928:	00f707b3          	add	a5,a4,a5
    8000b92c:	0007c783          	lbu	a5,0(a5)
    8000b930:	0049d993          	srli	s3,s3,0x4
    8000b934:	fffd0d13          	addi	s10,s10,-1
    8000b938:	00fd0023          	sb	a5,0(s10)
    8000b93c:	fe0994e3          	bnez	s3,8000b924 <_svfprintf_r+0xd08>
    8000b940:	41aa0a3b          	subw	s4,s4,s10
    8000b944:	000b0493          	mv	s1,s6
    8000b948:	b85ff06f          	j	8000b4cc <_svfprintf_r+0x8b0>
    8000b94c:	41390b3b          	subw	s6,s2,s3
    8000b950:	d7605663          	blez	s6,8000aebc <_svfprintf_r+0x2a0>
    8000b954:	000238b7          	lui	a7,0x23
    8000b958:	01000613          	li	a2,16
    8000b95c:	11812703          	lw	a4,280(sp)
    8000b960:	6f888c93          	addi	s9,a7,1784 # 236f8 <_start-0x7ffdc924>
    8000b964:	01000f13          	li	t5,16
    8000b968:	00700f93          	li	t6,7
    8000b96c:	01664863          	blt	a2,s6,8000b97c <_svfprintf_r+0xd60>
    8000b970:	05c0006f          	j	8000b9cc <_svfprintf_r+0xdb0>
    8000b974:	ff0b0b1b          	addiw	s6,s6,-16
    8000b978:	056f5a63          	bge	t5,s6,8000b9cc <_svfprintf_r+0xdb0>
    8000b97c:	0017071b          	addiw	a4,a4,1
    8000b980:	01078793          	addi	a5,a5,16
    8000b984:	01933023          	sd	s9,0(t1)
    8000b988:	01e33423          	sd	t5,8(t1)
    8000b98c:	12f13023          	sd	a5,288(sp)
    8000b990:	10e12c23          	sw	a4,280(sp)
    8000b994:	01030313          	addi	t1,t1,16
    8000b998:	fcefdee3          	bge	t6,a4,8000b974 <_svfprintf_r+0xd58>
    8000b99c:	11010613          	addi	a2,sp,272
    8000b9a0:	000b8593          	mv	a1,s7
    8000b9a4:	000c0513          	mv	a0,s8
    8000b9a8:	548030ef          	jal	ra,8000eef0 <__ssprint_r>
    8000b9ac:	12051a63          	bnez	a0,8000bae0 <_svfprintf_r+0xec4>
    8000b9b0:	01000f13          	li	t5,16
    8000b9b4:	ff0b0b1b          	addiw	s6,s6,-16
    8000b9b8:	12013783          	ld	a5,288(sp)
    8000b9bc:	11812703          	lw	a4,280(sp)
    8000b9c0:	19010313          	addi	t1,sp,400
    8000b9c4:	00700f93          	li	t6,7
    8000b9c8:	fb6f4ae3          	blt	t5,s6,8000b97c <_svfprintf_r+0xd60>
    8000b9cc:	0017069b          	addiw	a3,a4,1
    8000b9d0:	016787b3          	add	a5,a5,s6
    8000b9d4:	01933023          	sd	s9,0(t1)
    8000b9d8:	01633423          	sd	s6,8(t1)
    8000b9dc:	12f13023          	sd	a5,288(sp)
    8000b9e0:	10d12c23          	sw	a3,280(sp)
    8000b9e4:	00700713          	li	a4,7
    8000b9e8:	01030313          	addi	t1,t1,16
    8000b9ec:	ccd75863          	bge	a4,a3,8000aebc <_svfprintf_r+0x2a0>
    8000b9f0:	11010613          	addi	a2,sp,272
    8000b9f4:	000b8593          	mv	a1,s7
    8000b9f8:	000c0513          	mv	a0,s8
    8000b9fc:	4f4030ef          	jal	ra,8000eef0 <__ssprint_r>
    8000ba00:	0e051063          	bnez	a0,8000bae0 <_svfprintf_r+0xec4>
    8000ba04:	414a8abb          	subw	s5,s5,s4
    8000ba08:	12013783          	ld	a5,288(sp)
    8000ba0c:	19010313          	addi	t1,sp,400
    8000ba10:	cb505a63          	blez	s5,8000aec4 <_svfprintf_r+0x2a8>
    8000ba14:	000238b7          	lui	a7,0x23
    8000ba18:	01000693          	li	a3,16
    8000ba1c:	11812703          	lw	a4,280(sp)
    8000ba20:	6f888c93          	addi	s9,a7,1784 # 236f8 <_start-0x7ffdc924>
    8000ba24:	01000f13          	li	t5,16
    8000ba28:	00700b13          	li	s6,7
    8000ba2c:	0156c863          	blt	a3,s5,8000ba3c <_svfprintf_r+0xe20>
    8000ba30:	0580006f          	j	8000ba88 <_svfprintf_r+0xe6c>
    8000ba34:	ff0a8a9b          	addiw	s5,s5,-16
    8000ba38:	055f5863          	bge	t5,s5,8000ba88 <_svfprintf_r+0xe6c>
    8000ba3c:	0017071b          	addiw	a4,a4,1
    8000ba40:	01078793          	addi	a5,a5,16
    8000ba44:	01933023          	sd	s9,0(t1)
    8000ba48:	01e33423          	sd	t5,8(t1)
    8000ba4c:	12f13023          	sd	a5,288(sp)
    8000ba50:	10e12c23          	sw	a4,280(sp)
    8000ba54:	01030313          	addi	t1,t1,16
    8000ba58:	fceb5ee3          	bge	s6,a4,8000ba34 <_svfprintf_r+0xe18>
    8000ba5c:	11010613          	addi	a2,sp,272
    8000ba60:	000b8593          	mv	a1,s7
    8000ba64:	000c0513          	mv	a0,s8
    8000ba68:	488030ef          	jal	ra,8000eef0 <__ssprint_r>
    8000ba6c:	06051a63          	bnez	a0,8000bae0 <_svfprintf_r+0xec4>
    8000ba70:	01000f13          	li	t5,16
    8000ba74:	ff0a8a9b          	addiw	s5,s5,-16
    8000ba78:	12013783          	ld	a5,288(sp)
    8000ba7c:	11812703          	lw	a4,280(sp)
    8000ba80:	19010313          	addi	t1,sp,400
    8000ba84:	fb5f4ce3          	blt	t5,s5,8000ba3c <_svfprintf_r+0xe20>
    8000ba88:	0017069b          	addiw	a3,a4,1
    8000ba8c:	015787b3          	add	a5,a5,s5
    8000ba90:	01933023          	sd	s9,0(t1)
    8000ba94:	01533423          	sd	s5,8(t1)
    8000ba98:	12f13023          	sd	a5,288(sp)
    8000ba9c:	10d12c23          	sw	a3,280(sp)
    8000baa0:	00700713          	li	a4,7
    8000baa4:	01030313          	addi	t1,t1,16
    8000baa8:	c0d75e63          	bge	a4,a3,8000aec4 <_svfprintf_r+0x2a8>
    8000baac:	11010613          	addi	a2,sp,272
    8000bab0:	000b8593          	mv	a1,s7
    8000bab4:	000c0513          	mv	a0,s8
    8000bab8:	438030ef          	jal	ra,8000eef0 <__ssprint_r>
    8000babc:	02051263          	bnez	a0,8000bae0 <_svfprintf_r+0xec4>
    8000bac0:	12013783          	ld	a5,288(sp)
    8000bac4:	19010313          	addi	t1,sp,400
    8000bac8:	bfcff06f          	j	8000aec4 <_svfprintf_r+0x2a8>
    8000bacc:	11010613          	addi	a2,sp,272
    8000bad0:	000b8593          	mv	a1,s7
    8000bad4:	000c0513          	mv	a0,s8
    8000bad8:	418030ef          	jal	ra,8000eef0 <__ssprint_r>
    8000badc:	c4050463          	beqz	a0,8000af24 <_svfprintf_r+0x308>
    8000bae0:	01013783          	ld	a5,16(sp)
    8000bae4:	c6078a63          	beqz	a5,8000af58 <_svfprintf_r+0x33c>
    8000bae8:	01013583          	ld	a1,16(sp)
    8000baec:	000c0513          	mv	a0,s8
    8000baf0:	8d0f90ef          	jal	ra,80004bc0 <_free_r>
    8000baf4:	c64ff06f          	j	8000af58 <_svfprintf_r+0x33c>
    8000baf8:	000238b7          	lui	a7,0x23
    8000bafc:	01000613          	li	a2,16
    8000bb00:	11812703          	lw	a4,280(sp)
    8000bb04:	6e888893          	addi	a7,a7,1768 # 236e8 <_start-0x7ffdc934>
    8000bb08:	08d65c63          	bge	a2,a3,8000bba0 <_svfprintf_r+0xf84>
    8000bb0c:	06813823          	sd	s0,112(sp)
    8000bb10:	06913c23          	sd	s1,120(sp)
    8000bb14:	000c0413          	mv	s0,s8
    8000bb18:	000b8493          	mv	s1,s7
    8000bb1c:	01000f13          	li	t5,16
    8000bb20:	00700393          	li	t2,7
    8000bb24:	00068b93          	mv	s7,a3
    8000bb28:	00088c13          	mv	s8,a7
    8000bb2c:	00c0006f          	j	8000bb38 <_svfprintf_r+0xf1c>
    8000bb30:	ff0b8b9b          	addiw	s7,s7,-16
    8000bb34:	057f5a63          	bge	t5,s7,8000bb88 <_svfprintf_r+0xf6c>
    8000bb38:	0017071b          	addiw	a4,a4,1
    8000bb3c:	01078793          	addi	a5,a5,16
    8000bb40:	01833023          	sd	s8,0(t1)
    8000bb44:	01e33423          	sd	t5,8(t1)
    8000bb48:	12f13023          	sd	a5,288(sp)
    8000bb4c:	10e12c23          	sw	a4,280(sp)
    8000bb50:	01030313          	addi	t1,t1,16
    8000bb54:	fce3dee3          	bge	t2,a4,8000bb30 <_svfprintf_r+0xf14>
    8000bb58:	11010613          	addi	a2,sp,272
    8000bb5c:	00048593          	mv	a1,s1
    8000bb60:	00040513          	mv	a0,s0
    8000bb64:	38c030ef          	jal	ra,8000eef0 <__ssprint_r>
    8000bb68:	1a0514e3          	bnez	a0,8000c510 <_svfprintf_r+0x18f4>
    8000bb6c:	01000f13          	li	t5,16
    8000bb70:	ff0b8b9b          	addiw	s7,s7,-16
    8000bb74:	12013783          	ld	a5,288(sp)
    8000bb78:	11812703          	lw	a4,280(sp)
    8000bb7c:	19010313          	addi	t1,sp,400
    8000bb80:	00700393          	li	t2,7
    8000bb84:	fb7f4ae3          	blt	t5,s7,8000bb38 <_svfprintf_r+0xf1c>
    8000bb88:	000b8693          	mv	a3,s7
    8000bb8c:	000c0893          	mv	a7,s8
    8000bb90:	00048b93          	mv	s7,s1
    8000bb94:	00040c13          	mv	s8,s0
    8000bb98:	07813483          	ld	s1,120(sp)
    8000bb9c:	07013403          	ld	s0,112(sp)
    8000bba0:	0017071b          	addiw	a4,a4,1
    8000bba4:	00d787b3          	add	a5,a5,a3
    8000bba8:	00d33423          	sd	a3,8(t1)
    8000bbac:	01133023          	sd	a7,0(t1)
    8000bbb0:	0007069b          	sext.w	a3,a4
    8000bbb4:	10e12c23          	sw	a4,280(sp)
    8000bbb8:	12f13023          	sd	a5,288(sp)
    8000bbbc:	00700713          	li	a4,7
    8000bbc0:	01030313          	addi	t1,t1,16
    8000bbc4:	a6d75e63          	bge	a4,a3,8000ae40 <_svfprintf_r+0x224>
    8000bbc8:	11010613          	addi	a2,sp,272
    8000bbcc:	000b8593          	mv	a1,s7
    8000bbd0:	000c0513          	mv	a0,s8
    8000bbd4:	31c030ef          	jal	ra,8000eef0 <__ssprint_r>
    8000bbd8:	f00514e3          	bnez	a0,8000bae0 <_svfprintf_r+0xec4>
    8000bbdc:	12013783          	ld	a5,288(sp)
    8000bbe0:	19010313          	addi	t1,sp,400
    8000bbe4:	a5cff06f          	j	8000ae40 <_svfprintf_r+0x224>
    8000bbe8:	11010613          	addi	a2,sp,272
    8000bbec:	000b8593          	mv	a1,s7
    8000bbf0:	000c0513          	mv	a0,s8
    8000bbf4:	2fc030ef          	jal	ra,8000eef0 <__ssprint_r>
    8000bbf8:	ee0514e3          	bnez	a0,8000bae0 <_svfprintf_r+0xec4>
    8000bbfc:	12013783          	ld	a5,288(sp)
    8000bc00:	19010313          	addi	t1,sp,400
    8000bc04:	ab0ff06f          	j	8000aeb4 <_svfprintf_r+0x298>
    8000bc08:	000238b7          	lui	a7,0x23
    8000bc0c:	6e888893          	addi	a7,a7,1768 # 236e8 <_start-0x7ffdc934>
    8000bc10:	01000693          	li	a3,16
    8000bc14:	11812703          	lw	a4,280(sp)
    8000bc18:	01000a13          	li	s4,16
    8000bc1c:	00700b13          	li	s6,7
    8000bc20:	00088a93          	mv	s5,a7
    8000bc24:	0096c863          	blt	a3,s1,8000bc34 <_svfprintf_r+0x1018>
    8000bc28:	0580006f          	j	8000bc80 <_svfprintf_r+0x1064>
    8000bc2c:	ff04849b          	addiw	s1,s1,-16
    8000bc30:	049a5663          	bge	s4,s1,8000bc7c <_svfprintf_r+0x1060>
    8000bc34:	0017071b          	addiw	a4,a4,1
    8000bc38:	01078793          	addi	a5,a5,16
    8000bc3c:	01533023          	sd	s5,0(t1)
    8000bc40:	01433423          	sd	s4,8(t1)
    8000bc44:	12f13023          	sd	a5,288(sp)
    8000bc48:	10e12c23          	sw	a4,280(sp)
    8000bc4c:	01030313          	addi	t1,t1,16
    8000bc50:	fceb5ee3          	bge	s6,a4,8000bc2c <_svfprintf_r+0x1010>
    8000bc54:	11010613          	addi	a2,sp,272
    8000bc58:	000b8593          	mv	a1,s7
    8000bc5c:	000c0513          	mv	a0,s8
    8000bc60:	290030ef          	jal	ra,8000eef0 <__ssprint_r>
    8000bc64:	e6051ee3          	bnez	a0,8000bae0 <_svfprintf_r+0xec4>
    8000bc68:	ff04849b          	addiw	s1,s1,-16
    8000bc6c:	12013783          	ld	a5,288(sp)
    8000bc70:	11812703          	lw	a4,280(sp)
    8000bc74:	19010313          	addi	t1,sp,400
    8000bc78:	fa9a4ee3          	blt	s4,s1,8000bc34 <_svfprintf_r+0x1018>
    8000bc7c:	000a8893          	mv	a7,s5
    8000bc80:	0017069b          	addiw	a3,a4,1
    8000bc84:	009787b3          	add	a5,a5,s1
    8000bc88:	01133023          	sd	a7,0(t1)
    8000bc8c:	00933423          	sd	s1,8(t1)
    8000bc90:	12f13023          	sd	a5,288(sp)
    8000bc94:	10d12c23          	sw	a3,280(sp)
    8000bc98:	00700713          	li	a4,7
    8000bc9c:	a6d75663          	bge	a4,a3,8000af08 <_svfprintf_r+0x2ec>
    8000bca0:	11010613          	addi	a2,sp,272
    8000bca4:	000b8593          	mv	a1,s7
    8000bca8:	000c0513          	mv	a0,s8
    8000bcac:	244030ef          	jal	ra,8000eef0 <__ssprint_r>
    8000bcb0:	e20518e3          	bnez	a0,8000bae0 <_svfprintf_r+0xec4>
    8000bcb4:	12013783          	ld	a5,288(sp)
    8000bcb8:	a50ff06f          	j	8000af08 <_svfprintf_r+0x2ec>
    8000bcbc:	0e812603          	lw	a2,232(sp)
    8000bcc0:	76c05e63          	blez	a2,8000c43c <_svfprintf_r+0x1820>
    8000bcc4:	02013703          	ld	a4,32(sp)
    8000bcc8:	02813683          	ld	a3,40(sp)
    8000bccc:	00070a1b          	sext.w	s4,a4
    8000bcd0:	36e6cc63          	blt	a3,a4,8000c048 <_svfprintf_r+0x142c>
    8000bcd4:	03405663          	blez	s4,8000bd00 <_svfprintf_r+0x10e4>
    8000bcd8:	11812703          	lw	a4,280(sp)
    8000bcdc:	014787b3          	add	a5,a5,s4
    8000bce0:	01a33023          	sd	s10,0(t1)
    8000bce4:	0017069b          	addiw	a3,a4,1
    8000bce8:	01433423          	sd	s4,8(t1)
    8000bcec:	12f13023          	sd	a5,288(sp)
    8000bcf0:	10d12c23          	sw	a3,280(sp)
    8000bcf4:	00700713          	li	a4,7
    8000bcf8:	01030313          	addi	t1,t1,16
    8000bcfc:	30d74ae3          	blt	a4,a3,8000c810 <_svfprintf_r+0x1bf4>
    8000bd00:	fffa4713          	not	a4,s4
    8000bd04:	43f75713          	srai	a4,a4,0x3f
    8000bd08:	00ea7a33          	and	s4,s4,a4
    8000bd0c:	02013703          	ld	a4,32(sp)
    8000bd10:	41470a3b          	subw	s4,a4,s4
    8000bd14:	47404a63          	bgtz	s4,8000c188 <_svfprintf_r+0x156c>
    8000bd18:	02013683          	ld	a3,32(sp)
    8000bd1c:	4004f713          	andi	a4,s1,1024
    8000bd20:	00dd0ab3          	add	s5,s10,a3
    8000bd24:	4c071863          	bnez	a4,8000c1f4 <_svfprintf_r+0x15d8>
    8000bd28:	0e812703          	lw	a4,232(sp)
    8000bd2c:	02813683          	ld	a3,40(sp)
    8000bd30:	00d74663          	blt	a4,a3,8000bd3c <_svfprintf_r+0x1120>
    8000bd34:	0014f693          	andi	a3,s1,1
    8000bd38:	300680e3          	beqz	a3,8000c838 <_svfprintf_r+0x1c1c>
    8000bd3c:	04813683          	ld	a3,72(sp)
    8000bd40:	04013603          	ld	a2,64(sp)
    8000bd44:	01030313          	addi	t1,t1,16
    8000bd48:	fed33823          	sd	a3,-16(t1)
    8000bd4c:	11812683          	lw	a3,280(sp)
    8000bd50:	00c787b3          	add	a5,a5,a2
    8000bd54:	fec33c23          	sd	a2,-8(t1)
    8000bd58:	0016869b          	addiw	a3,a3,1
    8000bd5c:	0006861b          	sext.w	a2,a3
    8000bd60:	10d12c23          	sw	a3,280(sp)
    8000bd64:	12f13023          	sd	a5,288(sp)
    8000bd68:	00700693          	li	a3,7
    8000bd6c:	54c6c2e3          	blt	a3,a2,8000cab0 <_svfprintf_r+0x1e94>
    8000bd70:	02813683          	ld	a3,40(sp)
    8000bd74:	40e6863b          	subw	a2,a3,a4
    8000bd78:	00dd06b3          	add	a3,s10,a3
    8000bd7c:	415686bb          	subw	a3,a3,s5
    8000bd80:	00060713          	mv	a4,a2
    8000bd84:	00c6d463          	bge	a3,a2,8000bd8c <_svfprintf_r+0x1170>
    8000bd88:	00068713          	mv	a4,a3
    8000bd8c:	00070a1b          	sext.w	s4,a4
    8000bd90:	03405663          	blez	s4,8000bdbc <_svfprintf_r+0x11a0>
    8000bd94:	11812703          	lw	a4,280(sp)
    8000bd98:	014787b3          	add	a5,a5,s4
    8000bd9c:	01533023          	sd	s5,0(t1)
    8000bda0:	0017069b          	addiw	a3,a4,1
    8000bda4:	01433423          	sd	s4,8(t1)
    8000bda8:	12f13023          	sd	a5,288(sp)
    8000bdac:	10d12c23          	sw	a3,280(sp)
    8000bdb0:	00700713          	li	a4,7
    8000bdb4:	01030313          	addi	t1,t1,16
    8000bdb8:	58d742e3          	blt	a4,a3,8000cb3c <_svfprintf_r+0x1f20>
    8000bdbc:	fffa4713          	not	a4,s4
    8000bdc0:	43f75713          	srai	a4,a4,0x3f
    8000bdc4:	00ea7a33          	and	s4,s4,a4
    8000bdc8:	41460a3b          	subw	s4,a2,s4
    8000bdcc:	93405663          	blez	s4,8000aef8 <_svfprintf_r+0x2dc>
    8000bdd0:	000238b7          	lui	a7,0x23
    8000bdd4:	01000693          	li	a3,16
    8000bdd8:	11812703          	lw	a4,280(sp)
    8000bddc:	6f888c93          	addi	s9,a7,1784 # 236f8 <_start-0x7ffdc924>
    8000bde0:	01000b13          	li	s6,16
    8000bde4:	00700a93          	li	s5,7
    8000bde8:	0146c863          	blt	a3,s4,8000bdf8 <_svfprintf_r+0x11dc>
    8000bdec:	7780006f          	j	8000c564 <_svfprintf_r+0x1948>
    8000bdf0:	ff0a0a1b          	addiw	s4,s4,-16
    8000bdf4:	774b5863          	bge	s6,s4,8000c564 <_svfprintf_r+0x1948>
    8000bdf8:	0017071b          	addiw	a4,a4,1
    8000bdfc:	01078793          	addi	a5,a5,16
    8000be00:	01933023          	sd	s9,0(t1)
    8000be04:	01633423          	sd	s6,8(t1)
    8000be08:	12f13023          	sd	a5,288(sp)
    8000be0c:	10e12c23          	sw	a4,280(sp)
    8000be10:	01030313          	addi	t1,t1,16
    8000be14:	fceadee3          	bge	s5,a4,8000bdf0 <_svfprintf_r+0x11d4>
    8000be18:	11010613          	addi	a2,sp,272
    8000be1c:	000b8593          	mv	a1,s7
    8000be20:	000c0513          	mv	a0,s8
    8000be24:	0cc030ef          	jal	ra,8000eef0 <__ssprint_r>
    8000be28:	ca051ce3          	bnez	a0,8000bae0 <_svfprintf_r+0xec4>
    8000be2c:	12013783          	ld	a5,288(sp)
    8000be30:	11812703          	lw	a4,280(sp)
    8000be34:	19010313          	addi	t1,sp,400
    8000be38:	fb9ff06f          	j	8000bdf0 <_svfprintf_r+0x11d4>
    8000be3c:	0014f513          	andi	a0,s1,1
    8000be40:	c8051863          	bnez	a0,8000b2d0 <_svfprintf_r+0x6b4>
    8000be44:	00c33423          	sd	a2,8(t1)
    8000be48:	13513023          	sd	s5,288(sp)
    8000be4c:	10e12c23          	sw	a4,280(sp)
    8000be50:	00700693          	li	a3,7
    8000be54:	54e6c663          	blt	a3,a4,8000c3a0 <_svfprintf_r+0x1784>
    8000be58:	0025869b          	addiw	a3,a1,2
    8000be5c:	02030313          	addi	t1,t1,32
    8000be60:	d1cff06f          	j	8000b37c <_svfprintf_r+0x760>
    8000be64:	900a92e3          	bnez	s5,8000b768 <_svfprintf_r+0xb4c>
    8000be68:	000b0493          	mv	s1,s6
    8000be6c:	00000a93          	li	s5,0
    8000be70:	00000a13          	li	s4,0
    8000be74:	18c10d13          	addi	s10,sp,396
    8000be78:	e54ff06f          	j	8000b4cc <_svfprintf_r+0x8b0>
    8000be7c:	d1b05063          	blez	s11,8000b37c <_svfprintf_r+0x760>
    8000be80:	01000613          	li	a2,16
    8000be84:	01b64463          	blt	a2,s11,8000be8c <_svfprintf_r+0x1270>
    8000be88:	2540106f          	j	8000d0dc <_svfprintf_r+0x24c0>
    8000be8c:	000238b7          	lui	a7,0x23
    8000be90:	6f888c93          	addi	s9,a7,1784 # 236f8 <_start-0x7ffdc924>
    8000be94:	01000693          	li	a3,16
    8000be98:	00700d13          	li	s10,7
    8000be9c:	0100006f          	j	8000beac <_svfprintf_r+0x1290>
    8000bea0:	ff0d8d9b          	addiw	s11,s11,-16
    8000bea4:	03b6d0e3          	bge	a3,s11,8000c6c4 <_svfprintf_r+0x1aa8>
    8000bea8:	001b0e1b          	addiw	t3,s6,1
    8000beac:	010a8a93          	addi	s5,s5,16
    8000beb0:	019a3023          	sd	s9,0(s4)
    8000beb4:	00da3423          	sd	a3,8(s4)
    8000beb8:	13513023          	sd	s5,288(sp)
    8000bebc:	000e0b1b          	sext.w	s6,t3
    8000bec0:	11c12c23          	sw	t3,280(sp)
    8000bec4:	010a0a13          	addi	s4,s4,16
    8000bec8:	fd6d5ce3          	bge	s10,s6,8000bea0 <_svfprintf_r+0x1284>
    8000becc:	11010613          	addi	a2,sp,272
    8000bed0:	000b8593          	mv	a1,s7
    8000bed4:	000c0513          	mv	a0,s8
    8000bed8:	018030ef          	jal	ra,8000eef0 <__ssprint_r>
    8000bedc:	c00512e3          	bnez	a0,8000bae0 <_svfprintf_r+0xec4>
    8000bee0:	12013a83          	ld	s5,288(sp)
    8000bee4:	11812b03          	lw	s6,280(sp)
    8000bee8:	19010a13          	addi	s4,sp,400
    8000beec:	01000693          	li	a3,16
    8000bef0:	fb1ff06f          	j	8000bea0 <_svfprintf_r+0x1284>
    8000bef4:	0104f793          	andi	a5,s1,16
    8000bef8:	0e079c63          	bnez	a5,8000bff0 <_svfprintf_r+0x13d4>
    8000befc:	0404f793          	andi	a5,s1,64
    8000bf00:	020788e3          	beqz	a5,8000c730 <_svfprintf_r+0x1b14>
    8000bf04:	01813783          	ld	a5,24(sp)
    8000bf08:	00079983          	lh	s3,0(a5)
    8000bf0c:	00098793          	mv	a5,s3
    8000bf10:	8207dce3          	bgez	a5,8000b748 <_svfprintf_r+0xb2c>
    8000bf14:	02d00793          	li	a5,45
    8000bf18:	0cf10fa3          	sb	a5,223(sp)
    8000bf1c:	413009b3          	neg	s3,s3
    8000bf20:	00e13c23          	sd	a4,24(sp)
    8000bf24:	00048b13          	mv	s6,s1
    8000bf28:	00100793          	li	a5,1
    8000bf2c:	d78ff06f          	j	8000b4a4 <_svfprintf_r+0x888>
    8000bf30:	0104f793          	andi	a5,s1,16
    8000bf34:	10079463          	bnez	a5,8000c03c <_svfprintf_r+0x1420>
    8000bf38:	01813683          	ld	a3,24(sp)
    8000bf3c:	0404f793          	andi	a5,s1,64
    8000bf40:	0006a983          	lw	s3,0(a3)
    8000bf44:	7a078a63          	beqz	a5,8000c6f8 <_svfprintf_r+0x1adc>
    8000bf48:	03099993          	slli	s3,s3,0x30
    8000bf4c:	0309d993          	srli	s3,s3,0x30
    8000bf50:	d40ff06f          	j	8000b490 <_svfprintf_r+0x874>
    8000bf54:	010b7793          	andi	a5,s6,16
    8000bf58:	0c079863          	bnez	a5,8000c028 <_svfprintf_r+0x140c>
    8000bf5c:	01813683          	ld	a3,24(sp)
    8000bf60:	040b7793          	andi	a5,s6,64
    8000bf64:	0006a983          	lw	s3,0(a3)
    8000bf68:	7a078063          	beqz	a5,8000c708 <_svfprintf_r+0x1aec>
    8000bf6c:	03099993          	slli	s3,s3,0x30
    8000bf70:	0309d993          	srli	s3,s3,0x30
    8000bf74:	00e13c23          	sd	a4,24(sp)
    8000bf78:	00100793          	li	a5,1
    8000bf7c:	d24ff06f          	j	8000b4a0 <_svfprintf_r+0x884>
    8000bf80:	11010613          	addi	a2,sp,272
    8000bf84:	000b8593          	mv	a1,s7
    8000bf88:	000c0513          	mv	a0,s8
    8000bf8c:	765020ef          	jal	ra,8000eef0 <__ssprint_r>
    8000bf90:	b40518e3          	bnez	a0,8000bae0 <_svfprintf_r+0xec4>
    8000bf94:	12013a83          	ld	s5,288(sp)
    8000bf98:	11812703          	lw	a4,280(sp)
    8000bf9c:	19010a13          	addi	s4,sp,400
    8000bfa0:	b48ff06f          	j	8000b2e8 <_svfprintf_r+0x6cc>
    8000bfa4:	11010613          	addi	a2,sp,272
    8000bfa8:	000b8593          	mv	a1,s7
    8000bfac:	000c0513          	mv	a0,s8
    8000bfb0:	741020ef          	jal	ra,8000eef0 <__ssprint_r>
    8000bfb4:	b20516e3          	bnez	a0,8000bae0 <_svfprintf_r+0xec4>
    8000bfb8:	12013a83          	ld	s5,288(sp)
    8000bfbc:	11812b03          	lw	s6,280(sp)
    8000bfc0:	19010a13          	addi	s4,sp,400
    8000bfc4:	b50ff06f          	j	8000b314 <_svfprintf_r+0x6f8>
    8000bfc8:	0014f713          	andi	a4,s1,1
    8000bfcc:	00071463          	bnez	a4,8000bfd4 <_svfprintf_r+0x13b8>
    8000bfd0:	f29fe06f          	j	8000aef8 <_svfprintf_r+0x2dc>
    8000bfd4:	881ff06f          	j	8000b854 <_svfprintf_r+0xc38>
    8000bfd8:	000c8313          	mv	t1,s9
    8000bfdc:	f50ff06f          	j	8000b72c <_svfprintf_r+0xb10>
    8000bfe0:	03000793          	li	a5,48
    8000bfe4:	18f105a3          	sb	a5,395(sp)
    8000bfe8:	18b10d13          	addi	s10,sp,395
    8000bfec:	ce0ff06f          	j	8000b4cc <_svfprintf_r+0x8b0>
    8000bff0:	01813783          	ld	a5,24(sp)
    8000bff4:	0007b783          	ld	a5,0(a5)
    8000bff8:	00078993          	mv	s3,a5
    8000bffc:	f48ff06f          	j	8000b744 <_svfprintf_r+0xb28>
    8000c000:	01813783          	ld	a5,24(sp)
    8000c004:	00f78c93          	addi	s9,a5,15
    8000c008:	ff0cfc93          	andi	s9,s9,-16
    8000c00c:	000cb703          	ld	a4,0(s9)
    8000c010:	008cb783          	ld	a5,8(s9)
    8000c014:	010c8693          	addi	a3,s9,16
    8000c018:	00d13c23          	sd	a3,24(sp)
    8000c01c:	10e13023          	sd	a4,256(sp)
    8000c020:	10f13423          	sd	a5,264(sp)
    8000c024:	ff5fe06f          	j	8000b018 <_svfprintf_r+0x3fc>
    8000c028:	01813783          	ld	a5,24(sp)
    8000c02c:	00e13c23          	sd	a4,24(sp)
    8000c030:	0007b983          	ld	s3,0(a5)
    8000c034:	00100793          	li	a5,1
    8000c038:	c68ff06f          	j	8000b4a0 <_svfprintf_r+0x884>
    8000c03c:	01813783          	ld	a5,24(sp)
    8000c040:	0007b983          	ld	s3,0(a5)
    8000c044:	c4cff06f          	j	8000b490 <_svfprintf_r+0x874>
    8000c048:	00068a1b          	sext.w	s4,a3
    8000c04c:	c94046e3          	bgtz	s4,8000bcd8 <_svfprintf_r+0x10bc>
    8000c050:	cb1ff06f          	j	8000bd00 <_svfprintf_r+0x10e4>
    8000c054:	000c8313          	mv	t1,s9
    8000c058:	00048b13          	mv	s6,s1
    8000c05c:	d84ff06f          	j	8000b5e0 <_svfprintf_r+0x9c4>
    8000c060:	000237b7          	lui	a5,0x23
    8000c064:	ed878793          	addi	a5,a5,-296 # 22ed8 <_start-0x7ffdd144>
    8000c068:	000c8313          	mv	t1,s9
    8000c06c:	04f13823          	sd	a5,80(sp)
    8000c070:	01813683          	ld	a3,24(sp)
    8000c074:	0204f793          	andi	a5,s1,32
    8000c078:	00868713          	addi	a4,a3,8
    8000c07c:	2e078863          	beqz	a5,8000c36c <_svfprintf_r+0x1750>
    8000c080:	0006b983          	ld	s3,0(a3)
    8000c084:	0014f793          	andi	a5,s1,1
    8000c088:	00078e63          	beqz	a5,8000c0a4 <_svfprintf_r+0x1488>
    8000c08c:	00098c63          	beqz	s3,8000c0a4 <_svfprintf_r+0x1488>
    8000c090:	0024e493          	ori	s1,s1,2
    8000c094:	03000793          	li	a5,48
    8000c098:	0ef10023          	sb	a5,224(sp)
    8000c09c:	0fb100a3          	sb	s11,225(sp)
    8000c0a0:	0004849b          	sext.w	s1,s1
    8000c0a4:	bff4f493          	andi	s1,s1,-1025
    8000c0a8:	00048b1b          	sext.w	s6,s1
    8000c0ac:	00e13c23          	sd	a4,24(sp)
    8000c0b0:	00200793          	li	a5,2
    8000c0b4:	becff06f          	j	8000b4a0 <_svfprintf_r+0x884>
    8000c0b8:	2004e493          	ori	s1,s1,512
    8000c0bc:	00144e83          	lbu	t4,1(s0)
    8000c0c0:	0004849b          	sext.w	s1,s1
    8000c0c4:	00140413          	addi	s0,s0,1
    8000c0c8:	cc5fe06f          	j	8000ad8c <_svfprintf_r+0x170>
    8000c0cc:	11010613          	addi	a2,sp,272
    8000c0d0:	000b8593          	mv	a1,s7
    8000c0d4:	000c0513          	mv	a0,s8
    8000c0d8:	619020ef          	jal	ra,8000eef0 <__ssprint_r>
    8000c0dc:	a00512e3          	bnez	a0,8000bae0 <_svfprintf_r+0xec4>
    8000c0e0:	12013783          	ld	a5,288(sp)
    8000c0e4:	19010313          	addi	t1,sp,400
    8000c0e8:	fa0ff06f          	j	8000b888 <_svfprintf_r+0xc6c>
    8000c0ec:	000c8313          	mv	t1,s9
    8000c0f0:	b8cff06f          	j	8000b47c <_svfprintf_r+0x860>
    8000c0f4:	000237b7          	lui	a5,0x23
    8000c0f8:	ec078793          	addi	a5,a5,-320 # 22ec0 <_start-0x7ffdd15c>
    8000c0fc:	000c8313          	mv	t1,s9
    8000c100:	04f13823          	sd	a5,80(sp)
    8000c104:	f6dff06f          	j	8000c070 <_svfprintf_r+0x1454>
    8000c108:	0204e493          	ori	s1,s1,32
    8000c10c:	00144e83          	lbu	t4,1(s0)
    8000c110:	0004849b          	sext.w	s1,s1
    8000c114:	00140413          	addi	s0,s0,1
    8000c118:	c75fe06f          	j	8000ad8c <_svfprintf_r+0x170>
    8000c11c:	04000593          	li	a1,64
    8000c120:	000c0513          	mv	a0,s8
    8000c124:	b58fc0ef          	jal	ra,8000847c <_malloc_r>
    8000c128:	00abb023          	sd	a0,0(s7)
    8000c12c:	00abbc23          	sd	a0,24(s7)
    8000c130:	00051463          	bnez	a0,8000c138 <_svfprintf_r+0x151c>
    8000c134:	03c0106f          	j	8000d170 <_svfprintf_r+0x2554>
    8000c138:	04000793          	li	a5,64
    8000c13c:	02fba023          	sw	a5,32(s7)
    8000c140:	b5dfe06f          	j	8000ac9c <_svfprintf_r+0x80>
    8000c144:	000d0513          	mv	a0,s10
    8000c148:	06613823          	sd	t1,112(sp)
    8000c14c:	e40f50ef          	jal	ra,8000178c <strlen>
    8000c150:	00050a1b          	sext.w	s4,a0
    8000c154:	0df14783          	lbu	a5,223(sp)
    8000c158:	fffa4993          	not	s3,s4
    8000c15c:	43f9d993          	srai	s3,s3,0x3f
    8000c160:	01913c23          	sd	s9,24(sp)
    8000c164:	00013823          	sd	zero,16(sp)
    8000c168:	02013c23          	sd	zero,56(sp)
    8000c16c:	02013823          	sd	zero,48(sp)
    8000c170:	02013023          	sd	zero,32(sp)
    8000c174:	07013303          	ld	t1,112(sp)
    8000c178:	0149f9b3          	and	s3,s3,s4
    8000c17c:	00000a93          	li	s5,0
    8000c180:	ae079463          	bnez	a5,8000b468 <_svfprintf_r+0x84c>
    8000c184:	c9dfe06f          	j	8000ae20 <_svfprintf_r+0x204>
    8000c188:	000238b7          	lui	a7,0x23
    8000c18c:	01000693          	li	a3,16
    8000c190:	11812703          	lw	a4,280(sp)
    8000c194:	6f888c93          	addi	s9,a7,1784 # 236f8 <_start-0x7ffdc924>
    8000c198:	01000d93          	li	s11,16
    8000c19c:	00700a93          	li	s5,7
    8000c1a0:	0146c863          	blt	a3,s4,8000c1b0 <_svfprintf_r+0x1594>
    8000c1a4:	5c80006f          	j	8000c76c <_svfprintf_r+0x1b50>
    8000c1a8:	ff0a0a1b          	addiw	s4,s4,-16
    8000c1ac:	5d4dd063          	bge	s11,s4,8000c76c <_svfprintf_r+0x1b50>
    8000c1b0:	0017071b          	addiw	a4,a4,1
    8000c1b4:	01078793          	addi	a5,a5,16
    8000c1b8:	01933023          	sd	s9,0(t1)
    8000c1bc:	01b33423          	sd	s11,8(t1)
    8000c1c0:	12f13023          	sd	a5,288(sp)
    8000c1c4:	10e12c23          	sw	a4,280(sp)
    8000c1c8:	01030313          	addi	t1,t1,16
    8000c1cc:	fceadee3          	bge	s5,a4,8000c1a8 <_svfprintf_r+0x158c>
    8000c1d0:	11010613          	addi	a2,sp,272
    8000c1d4:	000b8593          	mv	a1,s7
    8000c1d8:	000c0513          	mv	a0,s8
    8000c1dc:	515020ef          	jal	ra,8000eef0 <__ssprint_r>
    8000c1e0:	900510e3          	bnez	a0,8000bae0 <_svfprintf_r+0xec4>
    8000c1e4:	12013783          	ld	a5,288(sp)
    8000c1e8:	11812703          	lw	a4,280(sp)
    8000c1ec:	19010313          	addi	t1,sp,400
    8000c1f0:	fb9ff06f          	j	8000c1a8 <_svfprintf_r+0x158c>
    8000c1f4:	02813703          	ld	a4,40(sp)
    8000c1f8:	06913823          	sd	s1,112(sp)
    8000c1fc:	03813483          	ld	s1,56(sp)
    8000c200:	03313c23          	sd	s3,56(sp)
    8000c204:	03013983          	ld	s3,48(sp)
    8000c208:	00ed0733          	add	a4,s10,a4
    8000c20c:	00023eb7          	lui	t4,0x23
    8000c210:	02813023          	sd	s0,32(sp)
    8000c214:	07213c23          	sd	s2,120(sp)
    8000c218:	03a13823          	sd	s10,48(sp)
    8000c21c:	06813403          	ld	s0,104(sp)
    8000c220:	000b8d13          	mv	s10,s7
    8000c224:	08013903          	ld	s2,128(sp)
    8000c228:	00700a13          	li	s4,7
    8000c22c:	01000d93          	li	s11,16
    8000c230:	6f8e8c93          	addi	s9,t4,1784 # 236f8 <_start-0x7ffdc924>
    8000c234:	00070b93          	mv	s7,a4
    8000c238:	0a098063          	beqz	s3,8000c2d8 <_svfprintf_r+0x16bc>
    8000c23c:	0a049063          	bnez	s1,8000c2dc <_svfprintf_r+0x16c0>
    8000c240:	fff40413          	addi	s0,s0,-1
    8000c244:	fff9899b          	addiw	s3,s3,-1
    8000c248:	06013703          	ld	a4,96(sp)
    8000c24c:	012787b3          	add	a5,a5,s2
    8000c250:	01233423          	sd	s2,8(t1)
    8000c254:	00e33023          	sd	a4,0(t1)
    8000c258:	11812703          	lw	a4,280(sp)
    8000c25c:	12f13023          	sd	a5,288(sp)
    8000c260:	01030313          	addi	t1,t1,16
    8000c264:	0017069b          	addiw	a3,a4,1
    8000c268:	10d12c23          	sw	a3,280(sp)
    8000c26c:	10da4a63          	blt	s4,a3,8000c380 <_svfprintf_r+0x1764>
    8000c270:	00044603          	lbu	a2,0(s0)
    8000c274:	415b853b          	subw	a0,s7,s5
    8000c278:	0006071b          	sext.w	a4,a2
    8000c27c:	00070693          	mv	a3,a4
    8000c280:	00e55463          	bge	a0,a4,8000c288 <_svfprintf_r+0x166c>
    8000c284:	00050693          	mv	a3,a0
    8000c288:	00068b1b          	sext.w	s6,a3
    8000c28c:	03605863          	blez	s6,8000c2bc <_svfprintf_r+0x16a0>
    8000c290:	11812703          	lw	a4,280(sp)
    8000c294:	016787b3          	add	a5,a5,s6
    8000c298:	01533023          	sd	s5,0(t1)
    8000c29c:	0017061b          	addiw	a2,a4,1
    8000c2a0:	01633423          	sd	s6,8(t1)
    8000c2a4:	12f13023          	sd	a5,288(sp)
    8000c2a8:	10c12c23          	sw	a2,280(sp)
    8000c2ac:	2cca4663          	blt	s4,a2,8000c578 <_svfprintf_r+0x195c>
    8000c2b0:	00044603          	lbu	a2,0(s0)
    8000c2b4:	01030313          	addi	t1,t1,16
    8000c2b8:	0006071b          	sext.w	a4,a2
    8000c2bc:	fffb4513          	not	a0,s6
    8000c2c0:	43f55513          	srai	a0,a0,0x3f
    8000c2c4:	00ab76b3          	and	a3,s6,a0
    8000c2c8:	40d70b3b          	subw	s6,a4,a3
    8000c2cc:	01604c63          	bgtz	s6,8000c2e4 <_svfprintf_r+0x16c8>
    8000c2d0:	00ca8ab3          	add	s5,s5,a2
    8000c2d4:	f60994e3          	bnez	s3,8000c23c <_svfprintf_r+0x1620>
    8000c2d8:	62048063          	beqz	s1,8000c8f8 <_svfprintf_r+0x1cdc>
    8000c2dc:	fff4849b          	addiw	s1,s1,-1
    8000c2e0:	f69ff06f          	j	8000c248 <_svfprintf_r+0x162c>
    8000c2e4:	11812683          	lw	a3,280(sp)
    8000c2e8:	016dc863          	blt	s11,s6,8000c2f8 <_svfprintf_r+0x16dc>
    8000c2ec:	0540006f          	j	8000c340 <_svfprintf_r+0x1724>
    8000c2f0:	ff0b0b1b          	addiw	s6,s6,-16
    8000c2f4:	056dd663          	bge	s11,s6,8000c340 <_svfprintf_r+0x1724>
    8000c2f8:	0016869b          	addiw	a3,a3,1
    8000c2fc:	01078793          	addi	a5,a5,16
    8000c300:	01933023          	sd	s9,0(t1)
    8000c304:	01b33423          	sd	s11,8(t1)
    8000c308:	12f13023          	sd	a5,288(sp)
    8000c30c:	10d12c23          	sw	a3,280(sp)
    8000c310:	01030313          	addi	t1,t1,16
    8000c314:	fcda5ee3          	bge	s4,a3,8000c2f0 <_svfprintf_r+0x16d4>
    8000c318:	11010613          	addi	a2,sp,272
    8000c31c:	000d0593          	mv	a1,s10
    8000c320:	000c0513          	mv	a0,s8
    8000c324:	3cd020ef          	jal	ra,8000eef0 <__ssprint_r>
    8000c328:	4c051a63          	bnez	a0,8000c7fc <_svfprintf_r+0x1be0>
    8000c32c:	ff0b0b1b          	addiw	s6,s6,-16
    8000c330:	12013783          	ld	a5,288(sp)
    8000c334:	11812683          	lw	a3,280(sp)
    8000c338:	19010313          	addi	t1,sp,400
    8000c33c:	fb6dcee3          	blt	s11,s6,8000c2f8 <_svfprintf_r+0x16dc>
    8000c340:	0016871b          	addiw	a4,a3,1
    8000c344:	016787b3          	add	a5,a5,s6
    8000c348:	01933023          	sd	s9,0(t1)
    8000c34c:	01633423          	sd	s6,8(t1)
    8000c350:	12f13023          	sd	a5,288(sp)
    8000c354:	10e12c23          	sw	a4,280(sp)
    8000c358:	64ea4e63          	blt	s4,a4,8000c9b4 <_svfprintf_r+0x1d98>
    8000c35c:	00044603          	lbu	a2,0(s0)
    8000c360:	01030313          	addi	t1,t1,16
    8000c364:	00ca8ab3          	add	s5,s5,a2
    8000c368:	f6dff06f          	j	8000c2d4 <_svfprintf_r+0x16b8>
    8000c36c:	0104f793          	andi	a5,s1,16
    8000c370:	1a078663          	beqz	a5,8000c51c <_svfprintf_r+0x1900>
    8000c374:	01813783          	ld	a5,24(sp)
    8000c378:	0007b983          	ld	s3,0(a5)
    8000c37c:	d09ff06f          	j	8000c084 <_svfprintf_r+0x1468>
    8000c380:	11010613          	addi	a2,sp,272
    8000c384:	000d0593          	mv	a1,s10
    8000c388:	000c0513          	mv	a0,s8
    8000c38c:	365020ef          	jal	ra,8000eef0 <__ssprint_r>
    8000c390:	46051663          	bnez	a0,8000c7fc <_svfprintf_r+0x1be0>
    8000c394:	12013783          	ld	a5,288(sp)
    8000c398:	19010313          	addi	t1,sp,400
    8000c39c:	ed5ff06f          	j	8000c270 <_svfprintf_r+0x1654>
    8000c3a0:	11010613          	addi	a2,sp,272
    8000c3a4:	000b8593          	mv	a1,s7
    8000c3a8:	000c0513          	mv	a0,s8
    8000c3ac:	345020ef          	jal	ra,8000eef0 <__ssprint_r>
    8000c3b0:	f2051863          	bnez	a0,8000bae0 <_svfprintf_r+0xec4>
    8000c3b4:	11812683          	lw	a3,280(sp)
    8000c3b8:	12013a83          	ld	s5,288(sp)
    8000c3bc:	1a010313          	addi	t1,sp,416
    8000c3c0:	0016869b          	addiw	a3,a3,1
    8000c3c4:	19010a13          	addi	s4,sp,400
    8000c3c8:	fb5fe06f          	j	8000b37c <_svfprintf_r+0x760>
    8000c3cc:	18c10a13          	addi	s4,sp,396
    8000c3d0:	06813803          	ld	a6,104(sp)
    8000c3d4:	400b7693          	andi	a3,s6,1024
    8000c3d8:	00000593          	li	a1,0
    8000c3dc:	000a0613          	mv	a2,s4
    8000c3e0:	00a00493          	li	s1,10
    8000c3e4:	00900713          	li	a4,9
    8000c3e8:	0ff00c93          	li	s9,255
    8000c3ec:	0140006f          	j	8000c400 <_svfprintf_r+0x17e4>
    8000c3f0:	0299d7b3          	divu	a5,s3,s1
    8000c3f4:	03377a63          	bgeu	a4,s3,8000c428 <_svfprintf_r+0x180c>
    8000c3f8:	00078993          	mv	s3,a5
    8000c3fc:	000d0613          	mv	a2,s10
    8000c400:	fff60d13          	addi	s10,a2,-1
    8000c404:	0015859b          	addiw	a1,a1,1
    8000c408:	0299f7b3          	remu	a5,s3,s1
    8000c40c:	0307879b          	addiw	a5,a5,48
    8000c410:	fef60fa3          	sb	a5,-1(a2)
    8000c414:	fc068ee3          	beqz	a3,8000c3f0 <_svfprintf_r+0x17d4>
    8000c418:	00084783          	lbu	a5,0(a6)
    8000c41c:	fcf59ae3          	bne	a1,a5,8000c3f0 <_svfprintf_r+0x17d4>
    8000c420:	fd9788e3          	beq	a5,s9,8000c3f0 <_svfprintf_r+0x17d4>
    8000c424:	39376663          	bltu	a4,s3,8000c7b0 <_svfprintf_r+0x1b94>
    8000c428:	07013423          	sd	a6,104(sp)
    8000c42c:	02b13423          	sd	a1,40(sp)
    8000c430:	41aa0a3b          	subw	s4,s4,s10
    8000c434:	000b0493          	mv	s1,s6
    8000c438:	894ff06f          	j	8000b4cc <_svfprintf_r+0x8b0>
    8000c43c:	11812703          	lw	a4,280(sp)
    8000c440:	000236b7          	lui	a3,0x23
    8000c444:	ef868693          	addi	a3,a3,-264 # 22ef8 <_start-0x7ffdd124>
    8000c448:	0017071b          	addiw	a4,a4,1
    8000c44c:	00d33023          	sd	a3,0(t1)
    8000c450:	00178793          	addi	a5,a5,1
    8000c454:	00100693          	li	a3,1
    8000c458:	00d33423          	sd	a3,8(t1)
    8000c45c:	10e12c23          	sw	a4,280(sp)
    8000c460:	0007069b          	sext.w	a3,a4
    8000c464:	12f13023          	sd	a5,288(sp)
    8000c468:	00700713          	li	a4,7
    8000c46c:	01030313          	addi	t1,t1,16
    8000c470:	06d74e63          	blt	a4,a3,8000c4ec <_svfprintf_r+0x18d0>
    8000c474:	1a061663          	bnez	a2,8000c620 <_svfprintf_r+0x1a04>
    8000c478:	02813683          	ld	a3,40(sp)
    8000c47c:	0014f713          	andi	a4,s1,1
    8000c480:	00e6e733          	or	a4,a3,a4
    8000c484:	00071463          	bnez	a4,8000c48c <_svfprintf_r+0x1870>
    8000c488:	a71fe06f          	j	8000aef8 <_svfprintf_r+0x2dc>
    8000c48c:	04813703          	ld	a4,72(sp)
    8000c490:	04013683          	ld	a3,64(sp)
    8000c494:	00e33023          	sd	a4,0(t1)
    8000c498:	11812703          	lw	a4,280(sp)
    8000c49c:	00f687b3          	add	a5,a3,a5
    8000c4a0:	00d33423          	sd	a3,8(t1)
    8000c4a4:	0017071b          	addiw	a4,a4,1
    8000c4a8:	0007069b          	sext.w	a3,a4
    8000c4ac:	10e12c23          	sw	a4,280(sp)
    8000c4b0:	12f13023          	sd	a5,288(sp)
    8000c4b4:	00700713          	li	a4,7
    8000c4b8:	40d74663          	blt	a4,a3,8000c8c4 <_svfprintf_r+0x1ca8>
    8000c4bc:	01030313          	addi	t1,t1,16
    8000c4c0:	02813703          	ld	a4,40(sp)
    8000c4c4:	0016861b          	addiw	a2,a3,1
    8000c4c8:	01a33023          	sd	s10,0(t1)
    8000c4cc:	00f707b3          	add	a5,a4,a5
    8000c4d0:	00e33423          	sd	a4,8(t1)
    8000c4d4:	12f13023          	sd	a5,288(sp)
    8000c4d8:	10c12c23          	sw	a2,280(sp)
    8000c4dc:	00700713          	li	a4,7
    8000c4e0:	00c74463          	blt	a4,a2,8000c4e8 <_svfprintf_r+0x18cc>
    8000c4e4:	a11fe06f          	j	8000aef4 <_svfprintf_r+0x2d8>
    8000c4e8:	eb9fe06f          	j	8000b3a0 <_svfprintf_r+0x784>
    8000c4ec:	11010613          	addi	a2,sp,272
    8000c4f0:	000b8593          	mv	a1,s7
    8000c4f4:	000c0513          	mv	a0,s8
    8000c4f8:	1f9020ef          	jal	ra,8000eef0 <__ssprint_r>
    8000c4fc:	de051263          	bnez	a0,8000bae0 <_svfprintf_r+0xec4>
    8000c500:	0e812603          	lw	a2,232(sp)
    8000c504:	12013783          	ld	a5,288(sp)
    8000c508:	19010313          	addi	t1,sp,400
    8000c50c:	f69ff06f          	j	8000c474 <_svfprintf_r+0x1858>
    8000c510:	00040c13          	mv	s8,s0
    8000c514:	00048b93          	mv	s7,s1
    8000c518:	dc8ff06f          	j	8000bae0 <_svfprintf_r+0xec4>
    8000c51c:	01813683          	ld	a3,24(sp)
    8000c520:	0404f793          	andi	a5,s1,64
    8000c524:	0006a983          	lw	s3,0(a3)
    8000c528:	1e078c63          	beqz	a5,8000c720 <_svfprintf_r+0x1b04>
    8000c52c:	03099993          	slli	s3,s3,0x30
    8000c530:	0309d993          	srli	s3,s3,0x30
    8000c534:	b51ff06f          	j	8000c084 <_svfprintf_r+0x1468>
    8000c538:	00048b13          	mv	s6,s1
    8000c53c:	00e13c23          	sd	a4,24(sp)
    8000c540:	a20ff06f          	j	8000b760 <_svfprintf_r+0xb44>
    8000c544:	11010613          	addi	a2,sp,272
    8000c548:	000b8593          	mv	a1,s7
    8000c54c:	000c0513          	mv	a0,s8
    8000c550:	1a1020ef          	jal	ra,8000eef0 <__ssprint_r>
    8000c554:	d8051663          	bnez	a0,8000bae0 <_svfprintf_r+0xec4>
    8000c558:	12013783          	ld	a5,288(sp)
    8000c55c:	19010313          	addi	t1,sp,400
    8000c560:	ae8ff06f          	j	8000b848 <_svfprintf_r+0xc2c>
    8000c564:	0017069b          	addiw	a3,a4,1
    8000c568:	00068713          	mv	a4,a3
    8000c56c:	014787b3          	add	a5,a5,s4
    8000c570:	01933023          	sd	s9,0(t1)
    8000c574:	96dfe06f          	j	8000aee0 <_svfprintf_r+0x2c4>
    8000c578:	11010613          	addi	a2,sp,272
    8000c57c:	000d0593          	mv	a1,s10
    8000c580:	000c0513          	mv	a0,s8
    8000c584:	16d020ef          	jal	ra,8000eef0 <__ssprint_r>
    8000c588:	26051a63          	bnez	a0,8000c7fc <_svfprintf_r+0x1be0>
    8000c58c:	00044603          	lbu	a2,0(s0)
    8000c590:	12013783          	ld	a5,288(sp)
    8000c594:	19010313          	addi	t1,sp,400
    8000c598:	0006071b          	sext.w	a4,a2
    8000c59c:	d21ff06f          	j	8000c2bc <_svfprintf_r+0x16a0>
    8000c5a0:	10013503          	ld	a0,256(sp)
    8000c5a4:	10813583          	ld	a1,264(sp)
    8000c5a8:	00000613          	li	a2,0
    8000c5ac:	00000693          	li	a3,0
    8000c5b0:	6e9040ef          	jal	ra,80011498 <__letf2>
    8000c5b4:	01013303          	ld	t1,16(sp)
    8000c5b8:	42054263          	bltz	a0,8000c9dc <_svfprintf_r+0x1dc0>
    8000c5bc:	0df14783          	lbu	a5,223(sp)
    8000c5c0:	04700713          	li	a4,71
    8000c5c4:	25b75063          	bge	a4,s11,8000c804 <_svfprintf_r+0x1be8>
    8000c5c8:	00023837          	lui	a6,0x23
    8000c5cc:	ea880d13          	addi	s10,a6,-344 # 22ea8 <_start-0x7ffdd174>
    8000c5d0:	f7f4f493          	andi	s1,s1,-129
    8000c5d4:	00013823          	sd	zero,16(sp)
    8000c5d8:	02013c23          	sd	zero,56(sp)
    8000c5dc:	02013823          	sd	zero,48(sp)
    8000c5e0:	02013023          	sd	zero,32(sp)
    8000c5e4:	0004849b          	sext.w	s1,s1
    8000c5e8:	00300993          	li	s3,3
    8000c5ec:	00300a13          	li	s4,3
    8000c5f0:	00000a93          	li	s5,0
    8000c5f4:	00078463          	beqz	a5,8000c5fc <_svfprintf_r+0x19e0>
    8000c5f8:	e71fe06f          	j	8000b468 <_svfprintf_r+0x84c>
    8000c5fc:	825fe06f          	j	8000ae20 <_svfprintf_r+0x204>
    8000c600:	00600793          	li	a5,6
    8000c604:	000a8a1b          	sext.w	s4,s5
    8000c608:	2357e463          	bltu	a5,s5,8000c830 <_svfprintf_r+0x1c14>
    8000c60c:	00023837          	lui	a6,0x23
    8000c610:	000a0993          	mv	s3,s4
    8000c614:	01913c23          	sd	s9,24(sp)
    8000c618:	ef080d13          	addi	s10,a6,-272 # 22ef0 <_start-0x7ffdd12c>
    8000c61c:	ff0fe06f          	j	8000ae0c <_svfprintf_r+0x1f0>
    8000c620:	04813703          	ld	a4,72(sp)
    8000c624:	04013683          	ld	a3,64(sp)
    8000c628:	01030313          	addi	t1,t1,16
    8000c62c:	fee33823          	sd	a4,-16(t1)
    8000c630:	11812703          	lw	a4,280(sp)
    8000c634:	00f687b3          	add	a5,a3,a5
    8000c638:	fed33c23          	sd	a3,-8(t1)
    8000c63c:	0017071b          	addiw	a4,a4,1
    8000c640:	0007069b          	sext.w	a3,a4
    8000c644:	10e12c23          	sw	a4,280(sp)
    8000c648:	12f13023          	sd	a5,288(sp)
    8000c64c:	00700713          	li	a4,7
    8000c650:	26d74a63          	blt	a4,a3,8000c8c4 <_svfprintf_r+0x1ca8>
    8000c654:	e60656e3          	bgez	a2,8000c4c0 <_svfprintf_r+0x18a4>
    8000c658:	000238b7          	lui	a7,0x23
    8000c65c:	ff000713          	li	a4,-16
    8000c660:	40c00b3b          	negw	s6,a2
    8000c664:	6f888c93          	addi	s9,a7,1784 # 236f8 <_start-0x7ffdc924>
    8000c668:	01000a13          	li	s4,16
    8000c66c:	00700a93          	li	s5,7
    8000c670:	00e64863          	blt	a2,a4,8000c680 <_svfprintf_r+0x1a64>
    8000c674:	0110006f          	j	8000ce84 <_svfprintf_r+0x2268>
    8000c678:	ff0b0b1b          	addiw	s6,s6,-16
    8000c67c:	016a54e3          	bge	s4,s6,8000ce84 <_svfprintf_r+0x2268>
    8000c680:	0016869b          	addiw	a3,a3,1
    8000c684:	01078793          	addi	a5,a5,16
    8000c688:	01933023          	sd	s9,0(t1)
    8000c68c:	01433423          	sd	s4,8(t1)
    8000c690:	12f13023          	sd	a5,288(sp)
    8000c694:	10d12c23          	sw	a3,280(sp)
    8000c698:	01030313          	addi	t1,t1,16
    8000c69c:	fcdadee3          	bge	s5,a3,8000c678 <_svfprintf_r+0x1a5c>
    8000c6a0:	11010613          	addi	a2,sp,272
    8000c6a4:	000b8593          	mv	a1,s7
    8000c6a8:	000c0513          	mv	a0,s8
    8000c6ac:	045020ef          	jal	ra,8000eef0 <__ssprint_r>
    8000c6b0:	c2051863          	bnez	a0,8000bae0 <_svfprintf_r+0xec4>
    8000c6b4:	12013783          	ld	a5,288(sp)
    8000c6b8:	11812683          	lw	a3,280(sp)
    8000c6bc:	19010313          	addi	t1,sp,400
    8000c6c0:	fb9ff06f          	j	8000c678 <_svfprintf_r+0x1a5c>
    8000c6c4:	001b069b          	addiw	a3,s6,1
    8000c6c8:	010a0613          	addi	a2,s4,16
    8000c6cc:	01ba8ab3          	add	s5,s5,s11
    8000c6d0:	019a3023          	sd	s9,0(s4)
    8000c6d4:	01ba3423          	sd	s11,8(s4)
    8000c6d8:	13513023          	sd	s5,288(sp)
    8000c6dc:	10d12c23          	sw	a3,280(sp)
    8000c6e0:	00700713          	li	a4,7
    8000c6e4:	cad74ee3          	blt	a4,a3,8000c3a0 <_svfprintf_r+0x1784>
    8000c6e8:	0016869b          	addiw	a3,a3,1
    8000c6ec:	01060313          	addi	t1,a2,16
    8000c6f0:	00060a13          	mv	s4,a2
    8000c6f4:	c89fe06f          	j	8000b37c <_svfprintf_r+0x760>
    8000c6f8:	2004f793          	andi	a5,s1,512
    8000c6fc:	18078e63          	beqz	a5,8000c898 <_svfprintf_r+0x1c7c>
    8000c700:	0ff9f993          	andi	s3,s3,255
    8000c704:	d8dfe06f          	j	8000b490 <_svfprintf_r+0x874>
    8000c708:	200b7793          	andi	a5,s6,512
    8000c70c:	16078c63          	beqz	a5,8000c884 <_svfprintf_r+0x1c68>
    8000c710:	0ff9f993          	andi	s3,s3,255
    8000c714:	00e13c23          	sd	a4,24(sp)
    8000c718:	00100793          	li	a5,1
    8000c71c:	d85fe06f          	j	8000b4a0 <_svfprintf_r+0x884>
    8000c720:	2004f793          	andi	a5,s1,512
    8000c724:	14078a63          	beqz	a5,8000c878 <_svfprintf_r+0x1c5c>
    8000c728:	0ff9f993          	andi	s3,s3,255
    8000c72c:	959ff06f          	j	8000c084 <_svfprintf_r+0x1468>
    8000c730:	2004f793          	andi	a5,s1,512
    8000c734:	12078a63          	beqz	a5,8000c868 <_svfprintf_r+0x1c4c>
    8000c738:	01813783          	ld	a5,24(sp)
    8000c73c:	00078983          	lb	s3,0(a5)
    8000c740:	00098793          	mv	a5,s3
    8000c744:	800ff06f          	j	8000b744 <_svfprintf_r+0xb28>
    8000c748:	10813783          	ld	a5,264(sp)
    8000c74c:	1607d863          	bgez	a5,8000c8bc <_svfprintf_r+0x1ca0>
    8000c750:	02d00793          	li	a5,45
    8000c754:	0cf10fa3          	sb	a5,223(sp)
    8000c758:	04700713          	li	a4,71
    8000c75c:	41b75863          	bge	a4,s11,8000cb6c <_svfprintf_r+0x1f50>
    8000c760:	00023837          	lui	a6,0x23
    8000c764:	eb880d13          	addi	s10,a6,-328 # 22eb8 <_start-0x7ffdd164>
    8000c768:	e69ff06f          	j	8000c5d0 <_svfprintf_r+0x19b4>
    8000c76c:	0017069b          	addiw	a3,a4,1
    8000c770:	014787b3          	add	a5,a5,s4
    8000c774:	01933023          	sd	s9,0(t1)
    8000c778:	01433423          	sd	s4,8(t1)
    8000c77c:	12f13023          	sd	a5,288(sp)
    8000c780:	10d12c23          	sw	a3,280(sp)
    8000c784:	00700713          	li	a4,7
    8000c788:	01030313          	addi	t1,t1,16
    8000c78c:	d8d75663          	bge	a4,a3,8000bd18 <_svfprintf_r+0x10fc>
    8000c790:	11010613          	addi	a2,sp,272
    8000c794:	000b8593          	mv	a1,s7
    8000c798:	000c0513          	mv	a0,s8
    8000c79c:	754020ef          	jal	ra,8000eef0 <__ssprint_r>
    8000c7a0:	b4051063          	bnez	a0,8000bae0 <_svfprintf_r+0xec4>
    8000c7a4:	12013783          	ld	a5,288(sp)
    8000c7a8:	19010313          	addi	t1,sp,400
    8000c7ac:	d6cff06f          	j	8000bd18 <_svfprintf_r+0x10fc>
    8000c7b0:	08013783          	ld	a5,128(sp)
    8000c7b4:	06013583          	ld	a1,96(sp)
    8000c7b8:	02d13423          	sd	a3,40(sp)
    8000c7bc:	40fd0d33          	sub	s10,s10,a5
    8000c7c0:	00078613          	mv	a2,a5
    8000c7c4:	000d0513          	mv	a0,s10
    8000c7c8:	02613023          	sd	t1,32(sp)
    8000c7cc:	01013823          	sd	a6,16(sp)
    8000c7d0:	ba8fe0ef          	jal	ra,8000ab78 <strncpy>
    8000c7d4:	01013803          	ld	a6,16(sp)
    8000c7d8:	0299d7b3          	divu	a5,s3,s1
    8000c7dc:	02013303          	ld	t1,32(sp)
    8000c7e0:	00184603          	lbu	a2,1(a6)
    8000c7e4:	02813683          	ld	a3,40(sp)
    8000c7e8:	00000593          	li	a1,0
    8000c7ec:	00c03633          	snez	a2,a2
    8000c7f0:	00c80833          	add	a6,a6,a2
    8000c7f4:	00900713          	li	a4,9
    8000c7f8:	c01ff06f          	j	8000c3f8 <_svfprintf_r+0x17dc>
    8000c7fc:	000d0b93          	mv	s7,s10
    8000c800:	ae0ff06f          	j	8000bae0 <_svfprintf_r+0xec4>
    8000c804:	00023837          	lui	a6,0x23
    8000c808:	ea080d13          	addi	s10,a6,-352 # 22ea0 <_start-0x7ffdd17c>
    8000c80c:	dc5ff06f          	j	8000c5d0 <_svfprintf_r+0x19b4>
    8000c810:	11010613          	addi	a2,sp,272
    8000c814:	000b8593          	mv	a1,s7
    8000c818:	000c0513          	mv	a0,s8
    8000c81c:	6d4020ef          	jal	ra,8000eef0 <__ssprint_r>
    8000c820:	ac051063          	bnez	a0,8000bae0 <_svfprintf_r+0xec4>
    8000c824:	12013783          	ld	a5,288(sp)
    8000c828:	19010313          	addi	t1,sp,400
    8000c82c:	cd4ff06f          	j	8000bd00 <_svfprintf_r+0x10e4>
    8000c830:	00600a13          	li	s4,6
    8000c834:	dd9ff06f          	j	8000c60c <_svfprintf_r+0x19f0>
    8000c838:	02813683          	ld	a3,40(sp)
    8000c83c:	00dd0833          	add	a6,s10,a3
    8000c840:	40e6863b          	subw	a2,a3,a4
    8000c844:	41580f3b          	subw	t5,a6,s5
    8000c848:	00060a13          	mv	s4,a2
    8000c84c:	d6cf5863          	bge	t5,a2,8000bdbc <_svfprintf_r+0x11a0>
    8000c850:	000f0a1b          	sext.w	s4,t5
    8000c854:	d68ff06f          	j	8000bdbc <_svfprintf_r+0x11a0>
    8000c858:	00813783          	ld	a5,8(sp)
    8000c85c:	00040d13          	mv	s10,s0
    8000c860:	00f71023          	sh	a5,0(a4)
    8000c864:	ee0fe06f          	j	8000af44 <_svfprintf_r+0x328>
    8000c868:	01813783          	ld	a5,24(sp)
    8000c86c:	0007a983          	lw	s3,0(a5)
    8000c870:	00098793          	mv	a5,s3
    8000c874:	ed1fe06f          	j	8000b744 <_svfprintf_r+0xb28>
    8000c878:	02099993          	slli	s3,s3,0x20
    8000c87c:	0209d993          	srli	s3,s3,0x20
    8000c880:	805ff06f          	j	8000c084 <_svfprintf_r+0x1468>
    8000c884:	02099993          	slli	s3,s3,0x20
    8000c888:	0209d993          	srli	s3,s3,0x20
    8000c88c:	00e13c23          	sd	a4,24(sp)
    8000c890:	00100793          	li	a5,1
    8000c894:	c0dfe06f          	j	8000b4a0 <_svfprintf_r+0x884>
    8000c898:	02099993          	slli	s3,s3,0x20
    8000c89c:	0209d993          	srli	s3,s3,0x20
    8000c8a0:	bf1fe06f          	j	8000b490 <_svfprintf_r+0x874>
    8000c8a4:	11010613          	addi	a2,sp,272
    8000c8a8:	000b8593          	mv	a1,s7
    8000c8ac:	000c0513          	mv	a0,s8
    8000c8b0:	640020ef          	jal	ra,8000eef0 <__ssprint_r>
    8000c8b4:	010bd783          	lhu	a5,16(s7)
    8000c8b8:	ea4fe06f          	j	8000af5c <_svfprintf_r+0x340>
    8000c8bc:	0df14783          	lbu	a5,223(sp)
    8000c8c0:	e99ff06f          	j	8000c758 <_svfprintf_r+0x1b3c>
    8000c8c4:	11010613          	addi	a2,sp,272
    8000c8c8:	000b8593          	mv	a1,s7
    8000c8cc:	000c0513          	mv	a0,s8
    8000c8d0:	620020ef          	jal	ra,8000eef0 <__ssprint_r>
    8000c8d4:	a0051663          	bnez	a0,8000bae0 <_svfprintf_r+0xec4>
    8000c8d8:	0e812603          	lw	a2,232(sp)
    8000c8dc:	12013783          	ld	a5,288(sp)
    8000c8e0:	11812683          	lw	a3,280(sp)
    8000c8e4:	19010313          	addi	t1,sp,400
    8000c8e8:	bc065ce3          	bgez	a2,8000c4c0 <_svfprintf_r+0x18a4>
    8000c8ec:	d6dff06f          	j	8000c658 <_svfprintf_r+0x1a3c>
    8000c8f0:	00600a93          	li	s5,6
    8000c8f4:	f88fe06f          	j	8000b07c <_svfprintf_r+0x460>
    8000c8f8:	02813703          	ld	a4,40(sp)
    8000c8fc:	000d0b93          	mv	s7,s10
    8000c900:	03013d03          	ld	s10,48(sp)
    8000c904:	06813423          	sd	s0,104(sp)
    8000c908:	07013483          	ld	s1,112(sp)
    8000c90c:	00ed0733          	add	a4,s10,a4
    8000c910:	02013403          	ld	s0,32(sp)
    8000c914:	07813903          	ld	s2,120(sp)
    8000c918:	03813983          	ld	s3,56(sp)
    8000c91c:	c1577663          	bgeu	a4,s5,8000bd28 <_svfprintf_r+0x110c>
    8000c920:	00070a93          	mv	s5,a4
    8000c924:	c04ff06f          	j	8000bd28 <_svfprintf_r+0x110c>
    8000c928:	02013703          	ld	a4,32(sp)
    8000c92c:	ffd00793          	li	a5,-3
    8000c930:	00f74463          	blt	a4,a5,8000c938 <_svfprintf_r+0x1d1c>
    8000c934:	00eada63          	bge	s5,a4,8000c948 <_svfprintf_r+0x1d2c>
    8000c938:	ffed8d9b          	addiw	s11,s11,-2
    8000c93c:	fdfdf793          	andi	a5,s11,-33
    8000c940:	02f13823          	sd	a5,48(sp)
    8000c944:	801fe06f          	j	8000b144 <_svfprintf_r+0x528>
    8000c948:	02013703          	ld	a4,32(sp)
    8000c94c:	02813783          	ld	a5,40(sp)
    8000c950:	1af74a63          	blt	a4,a5,8000cb04 <_svfprintf_r+0x1ee8>
    8000c954:	03813783          	ld	a5,56(sp)
    8000c958:	00070a13          	mv	s4,a4
    8000c95c:	0017f793          	andi	a5,a5,1
    8000c960:	00078663          	beqz	a5,8000c96c <_svfprintf_r+0x1d50>
    8000c964:	04013783          	ld	a5,64(sp)
    8000c968:	00e78a3b          	addw	s4,a5,a4
    8000c96c:	03813783          	ld	a5,56(sp)
    8000c970:	4007f793          	andi	a5,a5,1024
    8000c974:	00078663          	beqz	a5,8000c980 <_svfprintf_r+0x1d64>
    8000c978:	02013783          	ld	a5,32(sp)
    8000c97c:	66f04663          	bgtz	a5,8000cfe8 <_svfprintf_r+0x23cc>
    8000c980:	fffa4993          	not	s3,s4
    8000c984:	43f9d993          	srai	s3,s3,0x3f
    8000c988:	013a79b3          	and	s3,s4,s3
    8000c98c:	0009899b          	sext.w	s3,s3
    8000c990:	06700d93          	li	s11,103
    8000c994:	02013c23          	sd	zero,56(sp)
    8000c998:	02013823          	sd	zero,48(sp)
    8000c99c:	8d1fe06f          	j	8000b26c <_svfprintf_r+0x650>
    8000c9a0:	0df14783          	lbu	a5,223(sp)
    8000c9a4:	00000a93          	li	s5,0
    8000c9a8:	00078463          	beqz	a5,8000c9b0 <_svfprintf_r+0x1d94>
    8000c9ac:	abdfe06f          	j	8000b468 <_svfprintf_r+0x84c>
    8000c9b0:	c70fe06f          	j	8000ae20 <_svfprintf_r+0x204>
    8000c9b4:	11010613          	addi	a2,sp,272
    8000c9b8:	000d0593          	mv	a1,s10
    8000c9bc:	000c0513          	mv	a0,s8
    8000c9c0:	530020ef          	jal	ra,8000eef0 <__ssprint_r>
    8000c9c4:	e2051ce3          	bnez	a0,8000c7fc <_svfprintf_r+0x1be0>
    8000c9c8:	00044603          	lbu	a2,0(s0)
    8000c9cc:	12013783          	ld	a5,288(sp)
    8000c9d0:	19010313          	addi	t1,sp,400
    8000c9d4:	00ca8ab3          	add	s5,s5,a2
    8000c9d8:	8fdff06f          	j	8000c2d4 <_svfprintf_r+0x16b8>
    8000c9dc:	02d00793          	li	a5,45
    8000c9e0:	0cf10fa3          	sb	a5,223(sp)
    8000c9e4:	bddff06f          	j	8000c5c0 <_svfprintf_r+0x19a4>
    8000c9e8:	0e810793          	addi	a5,sp,232
    8000c9ec:	000a8713          	mv	a4,s5
    8000c9f0:	0f810893          	addi	a7,sp,248
    8000c9f4:	0ec10813          	addi	a6,sp,236
    8000c9f8:	00300693          	li	a3,3
    8000c9fc:	000b0593          	mv	a1,s6
    8000ca00:	000a0613          	mv	a2,s4
    8000ca04:	000c0513          	mv	a0,s8
    8000ca08:	02613023          	sd	t1,32(sp)
    8000ca0c:	c38fa0ef          	jal	ra,80006e44 <_ldtoa_r>
    8000ca10:	00054703          	lbu	a4,0(a0)
    8000ca14:	03000793          	li	a5,48
    8000ca18:	02013303          	ld	t1,32(sp)
    8000ca1c:	00050d13          	mv	s10,a0
    8000ca20:	06f70063          	beq	a4,a5,8000ca80 <_svfprintf_r+0x1e64>
    8000ca24:	0e812783          	lw	a5,232(sp)
    8000ca28:	015787b3          	add	a5,a5,s5
    8000ca2c:	00fd09b3          	add	s3,s10,a5
    8000ca30:	00000693          	li	a3,0
    8000ca34:	00000613          	li	a2,0
    8000ca38:	000b0513          	mv	a0,s6
    8000ca3c:	000a0593          	mv	a1,s4
    8000ca40:	02613023          	sd	t1,32(sp)
    8000ca44:	0e9040ef          	jal	ra,8001132c <__eqtf2>
    8000ca48:	02013303          	ld	t1,32(sp)
    8000ca4c:	00098693          	mv	a3,s3
    8000ca50:	00051463          	bnez	a0,8000ca58 <_svfprintf_r+0x1e3c>
    8000ca54:	ec0fe06f          	j	8000b114 <_svfprintf_r+0x4f8>
    8000ca58:	0f813683          	ld	a3,248(sp)
    8000ca5c:	0136e463          	bltu	a3,s3,8000ca64 <_svfprintf_r+0x1e48>
    8000ca60:	eb4fe06f          	j	8000b114 <_svfprintf_r+0x4f8>
    8000ca64:	03000713          	li	a4,48
    8000ca68:	00168793          	addi	a5,a3,1
    8000ca6c:	0ef13c23          	sd	a5,248(sp)
    8000ca70:	00e68023          	sb	a4,0(a3)
    8000ca74:	0f813683          	ld	a3,248(sp)
    8000ca78:	ff36e8e3          	bltu	a3,s3,8000ca68 <_svfprintf_r+0x1e4c>
    8000ca7c:	e98fe06f          	j	8000b114 <_svfprintf_r+0x4f8>
    8000ca80:	00000613          	li	a2,0
    8000ca84:	00000693          	li	a3,0
    8000ca88:	000b0513          	mv	a0,s6
    8000ca8c:	000a0593          	mv	a1,s4
    8000ca90:	02613023          	sd	t1,32(sp)
    8000ca94:	099040ef          	jal	ra,8001132c <__eqtf2>
    8000ca98:	02013303          	ld	t1,32(sp)
    8000ca9c:	f80504e3          	beqz	a0,8000ca24 <_svfprintf_r+0x1e08>
    8000caa0:	00100713          	li	a4,1
    8000caa4:	415707bb          	subw	a5,a4,s5
    8000caa8:	0ef12423          	sw	a5,232(sp)
    8000caac:	f7dff06f          	j	8000ca28 <_svfprintf_r+0x1e0c>
    8000cab0:	11010613          	addi	a2,sp,272
    8000cab4:	000b8593          	mv	a1,s7
    8000cab8:	000c0513          	mv	a0,s8
    8000cabc:	434020ef          	jal	ra,8000eef0 <__ssprint_r>
    8000cac0:	00050463          	beqz	a0,8000cac8 <_svfprintf_r+0x1eac>
    8000cac4:	81cff06f          	j	8000bae0 <_svfprintf_r+0xec4>
    8000cac8:	0e812703          	lw	a4,232(sp)
    8000cacc:	12013783          	ld	a5,288(sp)
    8000cad0:	19010313          	addi	t1,sp,400
    8000cad4:	a9cff06f          	j	8000bd70 <_svfprintf_r+0x1154>
    8000cad8:	0df14783          	lbu	a5,223(sp)
    8000cadc:	01913c23          	sd	s9,24(sp)
    8000cae0:	02013c23          	sd	zero,56(sp)
    8000cae4:	02013823          	sd	zero,48(sp)
    8000cae8:	02013023          	sd	zero,32(sp)
    8000caec:	000a8993          	mv	s3,s5
    8000caf0:	000a8a13          	mv	s4,s5
    8000caf4:	00000a93          	li	s5,0
    8000caf8:	00078463          	beqz	a5,8000cb00 <_svfprintf_r+0x1ee4>
    8000cafc:	96dfe06f          	j	8000b468 <_svfprintf_r+0x84c>
    8000cb00:	b20fe06f          	j	8000ae20 <_svfprintf_r+0x204>
    8000cb04:	02813703          	ld	a4,40(sp)
    8000cb08:	04013783          	ld	a5,64(sp)
    8000cb0c:	06700d93          	li	s11,103
    8000cb10:	00e78a3b          	addw	s4,a5,a4
    8000cb14:	02013703          	ld	a4,32(sp)
    8000cb18:	58e05863          	blez	a4,8000d0a8 <_svfprintf_r+0x248c>
    8000cb1c:	03813783          	ld	a5,56(sp)
    8000cb20:	4007f793          	andi	a5,a5,1024
    8000cb24:	4c079463          	bnez	a5,8000cfec <_svfprintf_r+0x23d0>
    8000cb28:	fffa4993          	not	s3,s4
    8000cb2c:	43f9d993          	srai	s3,s3,0x3f
    8000cb30:	013a79b3          	and	s3,s4,s3
    8000cb34:	0009899b          	sext.w	s3,s3
    8000cb38:	e5dff06f          	j	8000c994 <_svfprintf_r+0x1d78>
    8000cb3c:	11010613          	addi	a2,sp,272
    8000cb40:	000b8593          	mv	a1,s7
    8000cb44:	000c0513          	mv	a0,s8
    8000cb48:	3a8020ef          	jal	ra,8000eef0 <__ssprint_r>
    8000cb4c:	00050463          	beqz	a0,8000cb54 <_svfprintf_r+0x1f38>
    8000cb50:	f91fe06f          	j	8000bae0 <_svfprintf_r+0xec4>
    8000cb54:	0e812603          	lw	a2,232(sp)
    8000cb58:	02813703          	ld	a4,40(sp)
    8000cb5c:	12013783          	ld	a5,288(sp)
    8000cb60:	19010313          	addi	t1,sp,400
    8000cb64:	40c7063b          	subw	a2,a4,a2
    8000cb68:	a54ff06f          	j	8000bdbc <_svfprintf_r+0x11a0>
    8000cb6c:	00023837          	lui	a6,0x23
    8000cb70:	eb080d13          	addi	s10,a6,-336 # 22eb0 <_start-0x7ffdd16c>
    8000cb74:	a5dff06f          	j	8000c5d0 <_svfprintf_r+0x19b4>
    8000cb78:	03813783          	ld	a5,56(sp)
    8000cb7c:	02013703          	ld	a4,32(sp)
    8000cb80:	0017f793          	andi	a5,a5,1
    8000cb84:	00fae7b3          	or	a5,s5,a5
    8000cb88:	56e05263          	blez	a4,8000d0ec <_svfprintf_r+0x24d0>
    8000cb8c:	44079463          	bnez	a5,8000cfd4 <_svfprintf_r+0x23b8>
    8000cb90:	02013a03          	ld	s4,32(sp)
    8000cb94:	06600d93          	li	s11,102
    8000cb98:	f85ff06f          	j	8000cb1c <_svfprintf_r+0x1f00>
    8000cb9c:	03000793          	li	a5,48
    8000cba0:	0ef10023          	sb	a5,224(sp)
    8000cba4:	05800713          	li	a4,88
    8000cba8:	0024e793          	ori	a5,s1,2
    8000cbac:	0007879b          	sext.w	a5,a5
    8000cbb0:	0ee100a3          	sb	a4,225(sp)
    8000cbb4:	02f13c23          	sd	a5,56(sp)
    8000cbb8:	06300713          	li	a4,99
    8000cbbc:	00013823          	sd	zero,16(sp)
    8000cbc0:	12810d13          	addi	s10,sp,296
    8000cbc4:	29574663          	blt	a4,s5,8000ce50 <_svfprintf_r+0x2234>
    8000cbc8:	10813a03          	ld	s4,264(sp)
    8000cbcc:	fdfdf793          	andi	a5,s11,-33
    8000cbd0:	1024e493          	ori	s1,s1,258
    8000cbd4:	02f13823          	sd	a5,48(sp)
    8000cbd8:	06013823          	sd	zero,112(sp)
    8000cbdc:	10013b03          	ld	s6,256(sp)
    8000cbe0:	0004849b          	sext.w	s1,s1
    8000cbe4:	1e0a4a63          	bltz	s4,8000cdd8 <_svfprintf_r+0x21bc>
    8000cbe8:	06100793          	li	a5,97
    8000cbec:	38fd8463          	beq	s11,a5,8000cf74 <_svfprintf_r+0x2358>
    8000cbf0:	04100793          	li	a5,65
    8000cbf4:	00fd8463          	beq	s11,a5,8000cbfc <_svfprintf_r+0x1fe0>
    8000cbf8:	cacfe06f          	j	8000b0a4 <_svfprintf_r+0x488>
    8000cbfc:	000a0593          	mv	a1,s4
    8000cc00:	000b0513          	mv	a0,s6
    8000cc04:	02613423          	sd	t1,40(sp)
    8000cc08:	1a5050ef          	jal	ra,800125ac <__trunctfdf2>
    8000cc0c:	0e810593          	addi	a1,sp,232
    8000cc10:	b8dfd0ef          	jal	ra,8000a79c <frexp>
    8000cc14:	0a9050ef          	jal	ra,800124bc <__extenddftf2>
    8000cc18:	09013683          	ld	a3,144(sp)
    8000cc1c:	00000613          	li	a2,0
    8000cc20:	159040ef          	jal	ra,80011578 <__multf3>
    8000cc24:	00000613          	li	a2,0
    8000cc28:	00000693          	li	a3,0
    8000cc2c:	00050a13          	mv	s4,a0
    8000cc30:	02b13023          	sd	a1,32(sp)
    8000cc34:	6f8040ef          	jal	ra,8001132c <__eqtf2>
    8000cc38:	02013f03          	ld	t5,32(sp)
    8000cc3c:	02813303          	ld	t1,40(sp)
    8000cc40:	00051663          	bnez	a0,8000cc4c <_svfprintf_r+0x2030>
    8000cc44:	00100793          	li	a5,1
    8000cc48:	0ef12423          	sw	a5,232(sp)
    8000cc4c:	000237b7          	lui	a5,0x23
    8000cc50:	ec078793          	addi	a5,a5,-320 # 22ec0 <_start-0x7ffdd15c>
    8000cc54:	02f13023          	sd	a5,32(sp)
    8000cc58:	020a9793          	slli	a5,s5,0x20
    8000cc5c:	0207d793          	srli	a5,a5,0x20
    8000cc60:	00178793          	addi	a5,a5,1
    8000cc64:	015d073b          	addw	a4,s10,s5
    8000cc68:	00fd07b3          	add	a5,s10,a5
    8000cc6c:	03b13423          	sd	s11,40(sp)
    8000cc70:	06813c23          	sd	s0,120(sp)
    8000cc74:	0a913023          	sd	s1,160(sp)
    8000cc78:	0b513823          	sd	s5,176(sp)
    8000cc7c:	02013403          	ld	s0,32(sp)
    8000cc80:	000a0a93          	mv	s5,s4
    8000cc84:	00078d93          	mv	s11,a5
    8000cc88:	0b213423          	sd	s2,168(sp)
    8000cc8c:	0a613c23          	sd	t1,184(sp)
    8000cc90:	0d813023          	sd	s8,192(sp)
    8000cc94:	0d713423          	sd	s7,200(sp)
    8000cc98:	000d0a13          	mv	s4,s10
    8000cc9c:	000f0b13          	mv	s6,t5
    8000cca0:	00070493          	mv	s1,a4
    8000cca4:	0140006f          	j	8000ccb8 <_svfprintf_r+0x209c>
    8000cca8:	00000613          	li	a2,0
    8000ccac:	00000693          	li	a3,0
    8000ccb0:	67c040ef          	jal	ra,8001132c <__eqtf2>
    8000ccb4:	26050663          	beqz	a0,8000cf20 <_svfprintf_r+0x2304>
    8000ccb8:	08813683          	ld	a3,136(sp)
    8000ccbc:	00000613          	li	a2,0
    8000ccc0:	000a8513          	mv	a0,s5
    8000ccc4:	000b0593          	mv	a1,s6
    8000ccc8:	0b1040ef          	jal	ra,80011578 <__multf3>
    8000cccc:	00058913          	mv	s2,a1
    8000ccd0:	00050993          	mv	s3,a0
    8000ccd4:	6f8050ef          	jal	ra,800123cc <__fixtfsi>
    8000ccd8:	00050b9b          	sext.w	s7,a0
    8000ccdc:	000b8513          	mv	a0,s7
    8000cce0:	754050ef          	jal	ra,80012434 <__floatsitf>
    8000cce4:	00058693          	mv	a3,a1
    8000cce8:	00050613          	mv	a2,a0
    8000ccec:	00090593          	mv	a1,s2
    8000ccf0:	00098513          	mv	a0,s3
    8000ccf4:	6fd040ef          	jal	ra,80011bf0 <__subtf3>
    8000ccf8:	017406b3          	add	a3,s0,s7
    8000ccfc:	0006c683          	lbu	a3,0(a3)
    8000cd00:	000a0913          	mv	s2,s4
    8000cd04:	001a0a13          	addi	s4,s4,1
    8000cd08:	feda0fa3          	sb	a3,-1(s4)
    8000cd0c:	00050c13          	mv	s8,a0
    8000cd10:	00050a93          	mv	s5,a0
    8000cd14:	00058b13          	mv	s6,a1
    8000cd18:	414489bb          	subw	s3,s1,s4
    8000cd1c:	f94d96e3          	bne	s11,s4,8000cca8 <_svfprintf_r+0x208c>
    8000cd20:	02813d83          	ld	s11,40(sp)
    8000cd24:	000b8993          	mv	s3,s7
    8000cd28:	03213423          	sd	s2,40(sp)
    8000cd2c:	0a013483          	ld	s1,160(sp)
    8000cd30:	0b013a83          	ld	s5,176(sp)
    8000cd34:	0b813303          	ld	t1,184(sp)
    8000cd38:	0a813903          	ld	s2,168(sp)
    8000cd3c:	0c813b83          	ld	s7,200(sp)
    8000cd40:	0c013c03          	ld	s8,192(sp)
    8000cd44:	fff00793          	li	a5,-1
    8000cd48:	07813403          	ld	s0,120(sp)
    8000cd4c:	00050893          	mv	a7,a0
    8000cd50:	000a0c93          	mv	s9,s4
    8000cd54:	06f13c23          	sd	a5,120(sp)
    8000cd58:	09813683          	ld	a3,152(sp)
    8000cd5c:	00000613          	li	a2,0
    8000cd60:	00088513          	mv	a0,a7
    8000cd64:	000b0593          	mv	a1,s6
    8000cd68:	0a613023          	sd	t1,160(sp)
    8000cd6c:	0b113423          	sd	a7,168(sp)
    8000cd70:	648040ef          	jal	ra,800113b8 <__getf2>
    8000cd74:	0a013303          	ld	t1,160(sp)
    8000cd78:	06a04c63          	bgtz	a0,8000cdf0 <_svfprintf_r+0x21d4>
    8000cd7c:	0a813883          	ld	a7,168(sp)
    8000cd80:	09813683          	ld	a3,152(sp)
    8000cd84:	00000613          	li	a2,0
    8000cd88:	00088513          	mv	a0,a7
    8000cd8c:	000b0593          	mv	a1,s6
    8000cd90:	59c040ef          	jal	ra,8001132c <__eqtf2>
    8000cd94:	0a013303          	ld	t1,160(sp)
    8000cd98:	00051663          	bnez	a0,8000cda4 <_svfprintf_r+0x2188>
    8000cd9c:	0019f993          	andi	s3,s3,1
    8000cda0:	04099863          	bnez	s3,8000cdf0 <_svfprintf_r+0x21d4>
    8000cda4:	07813783          	ld	a5,120(sp)
    8000cda8:	03000693          	li	a3,48
    8000cdac:	0017871b          	addiw	a4,a5,1
    8000cdb0:	00ec8733          	add	a4,s9,a4
    8000cdb4:	0007c863          	bltz	a5,8000cdc4 <_svfprintf_r+0x21a8>
    8000cdb8:	001c8c93          	addi	s9,s9,1
    8000cdbc:	fedc8fa3          	sb	a3,-1(s9)
    8000cdc0:	ff971ce3          	bne	a4,s9,8000cdb8 <_svfprintf_r+0x219c>
    8000cdc4:	41ac87bb          	subw	a5,s9,s10
    8000cdc8:	02f13423          	sd	a5,40(sp)
    8000cdcc:	b50fe06f          	j	8000b11c <_svfprintf_r+0x500>
    8000cdd0:	00013823          	sd	zero,16(sp)
    8000cdd4:	00078493          	mv	s1,a5
    8000cdd8:	fff00793          	li	a5,-1
    8000cddc:	03f79793          	slli	a5,a5,0x3f
    8000cde0:	00fa4a33          	xor	s4,s4,a5
    8000cde4:	02d00793          	li	a5,45
    8000cde8:	06f13823          	sd	a5,112(sp)
    8000cdec:	dfdff06f          	j	8000cbe8 <_svfprintf_r+0x1fcc>
    8000cdf0:	02813783          	ld	a5,40(sp)
    8000cdf4:	000c8713          	mv	a4,s9
    8000cdf8:	0ef13c23          	sd	a5,248(sp)
    8000cdfc:	02013783          	ld	a5,32(sp)
    8000ce00:	fffcc683          	lbu	a3,-1(s9)
    8000ce04:	00f7c603          	lbu	a2,15(a5)
    8000ce08:	02d61063          	bne	a2,a3,8000ce28 <_svfprintf_r+0x220c>
    8000ce0c:	03000593          	li	a1,48
    8000ce10:	feb70fa3          	sb	a1,-1(a4)
    8000ce14:	0f813703          	ld	a4,248(sp)
    8000ce18:	fff70793          	addi	a5,a4,-1
    8000ce1c:	0ef13c23          	sd	a5,248(sp)
    8000ce20:	fff74683          	lbu	a3,-1(a4)
    8000ce24:	fed606e3          	beq	a2,a3,8000ce10 <_svfprintf_r+0x21f4>
    8000ce28:	0016861b          	addiw	a2,a3,1
    8000ce2c:	03900593          	li	a1,57
    8000ce30:	0ff67613          	andi	a2,a2,255
    8000ce34:	00b68663          	beq	a3,a1,8000ce40 <_svfprintf_r+0x2224>
    8000ce38:	fec70fa3          	sb	a2,-1(a4)
    8000ce3c:	f89ff06f          	j	8000cdc4 <_svfprintf_r+0x21a8>
    8000ce40:	02013783          	ld	a5,32(sp)
    8000ce44:	00a7c603          	lbu	a2,10(a5)
    8000ce48:	fec70fa3          	sb	a2,-1(a4)
    8000ce4c:	f79ff06f          	j	8000cdc4 <_svfprintf_r+0x21a8>
    8000ce50:	001a859b          	addiw	a1,s5,1
    8000ce54:	000c0513          	mv	a0,s8
    8000ce58:	00613823          	sd	t1,16(sp)
    8000ce5c:	e20fb0ef          	jal	ra,8000847c <_malloc_r>
    8000ce60:	01013303          	ld	t1,16(sp)
    8000ce64:	00050d13          	mv	s10,a0
    8000ce68:	2e050a63          	beqz	a0,8000d15c <_svfprintf_r+0x2540>
    8000ce6c:	00a13823          	sd	a0,16(sp)
    8000ce70:	d59ff06f          	j	8000cbc8 <_svfprintf_r+0x1fac>
    8000ce74:	00048b13          	mv	s6,s1
    8000ce78:	8f1fe06f          	j	8000b768 <_svfprintf_r+0xb4c>
    8000ce7c:	015d09b3          	add	s3,s10,s5
    8000ce80:	bb1ff06f          	j	8000ca30 <_svfprintf_r+0x1e14>
    8000ce84:	0016869b          	addiw	a3,a3,1
    8000ce88:	016787b3          	add	a5,a5,s6
    8000ce8c:	01933023          	sd	s9,0(t1)
    8000ce90:	01633423          	sd	s6,8(t1)
    8000ce94:	12f13023          	sd	a5,288(sp)
    8000ce98:	10d12c23          	sw	a3,280(sp)
    8000ce9c:	00700713          	li	a4,7
    8000cea0:	e0d75e63          	bge	a4,a3,8000c4bc <_svfprintf_r+0x18a0>
    8000cea4:	11010613          	addi	a2,sp,272
    8000cea8:	000b8593          	mv	a1,s7
    8000ceac:	000c0513          	mv	a0,s8
    8000ceb0:	040020ef          	jal	ra,8000eef0 <__ssprint_r>
    8000ceb4:	00050463          	beqz	a0,8000cebc <_svfprintf_r+0x22a0>
    8000ceb8:	c29fe06f          	j	8000bae0 <_svfprintf_r+0xec4>
    8000cebc:	12013783          	ld	a5,288(sp)
    8000cec0:	11812683          	lw	a3,280(sp)
    8000cec4:	19010313          	addi	t1,sp,400
    8000cec8:	df8ff06f          	j	8000c4c0 <_svfprintf_r+0x18a4>
    8000cecc:	001a899b          	addiw	s3,s5,1
    8000ced0:	00098713          	mv	a4,s3
    8000ced4:	0f810893          	addi	a7,sp,248
    8000ced8:	0ec10813          	addi	a6,sp,236
    8000cedc:	0e810793          	addi	a5,sp,232
    8000cee0:	00200693          	li	a3,2
    8000cee4:	000b0593          	mv	a1,s6
    8000cee8:	000a0613          	mv	a2,s4
    8000ceec:	000c0513          	mv	a0,s8
    8000cef0:	f55f90ef          	jal	ra,80006e44 <_ldtoa_r>
    8000cef4:	00050d13          	mv	s10,a0
    8000cef8:	02013303          	ld	t1,32(sp)
    8000cefc:	013d09b3          	add	s3,s10,s3
    8000cf00:	b31ff06f          	j	8000ca30 <_svfprintf_r+0x1e14>
    8000cf04:	03000793          	li	a5,48
    8000cf08:	0ef10023          	sb	a5,224(sp)
    8000cf0c:	07800713          	li	a4,120
    8000cf10:	c99ff06f          	j	8000cba8 <_svfprintf_r+0x1f8c>
    8000cf14:	00f72023          	sw	a5,0(a4)
    8000cf18:	00040d13          	mv	s10,s0
    8000cf1c:	828fe06f          	j	8000af44 <_svfprintf_r+0x328>
    8000cf20:	02813d83          	ld	s11,40(sp)
    8000cf24:	07813403          	ld	s0,120(sp)
    8000cf28:	03213423          	sd	s2,40(sp)
    8000cf2c:	07313c23          	sd	s3,120(sp)
    8000cf30:	000c0893          	mv	a7,s8
    8000cf34:	000b8993          	mv	s3,s7
    8000cf38:	0a013483          	ld	s1,160(sp)
    8000cf3c:	0b013a83          	ld	s5,176(sp)
    8000cf40:	0b813303          	ld	t1,184(sp)
    8000cf44:	0a813903          	ld	s2,168(sp)
    8000cf48:	0c813b83          	ld	s7,200(sp)
    8000cf4c:	0c013c03          	ld	s8,192(sp)
    8000cf50:	000a0c93          	mv	s9,s4
    8000cf54:	e05ff06f          	j	8000cd58 <_svfprintf_r+0x213c>
    8000cf58:	000a8463          	beqz	s5,8000cf60 <_svfprintf_r+0x2344>
    8000cf5c:	920fe06f          	j	8000b07c <_svfprintf_r+0x460>
    8000cf60:	00100a93          	li	s5,1
    8000cf64:	918fe06f          	j	8000b07c <_svfprintf_r+0x460>
    8000cf68:	fff00793          	li	a5,-1
    8000cf6c:	00f13423          	sd	a5,8(sp)
    8000cf70:	ff9fd06f          	j	8000af68 <_svfprintf_r+0x34c>
    8000cf74:	000a0593          	mv	a1,s4
    8000cf78:	000b0513          	mv	a0,s6
    8000cf7c:	02613423          	sd	t1,40(sp)
    8000cf80:	62c050ef          	jal	ra,800125ac <__trunctfdf2>
    8000cf84:	0e810593          	addi	a1,sp,232
    8000cf88:	815fd0ef          	jal	ra,8000a79c <frexp>
    8000cf8c:	530050ef          	jal	ra,800124bc <__extenddftf2>
    8000cf90:	09013683          	ld	a3,144(sp)
    8000cf94:	00000613          	li	a2,0
    8000cf98:	5e0040ef          	jal	ra,80011578 <__multf3>
    8000cf9c:	00000613          	li	a2,0
    8000cfa0:	00000693          	li	a3,0
    8000cfa4:	00050a13          	mv	s4,a0
    8000cfa8:	02b13023          	sd	a1,32(sp)
    8000cfac:	380040ef          	jal	ra,8001132c <__eqtf2>
    8000cfb0:	02013f03          	ld	t5,32(sp)
    8000cfb4:	02813303          	ld	t1,40(sp)
    8000cfb8:	00051663          	bnez	a0,8000cfc4 <_svfprintf_r+0x23a8>
    8000cfbc:	00100793          	li	a5,1
    8000cfc0:	0ef12423          	sw	a5,232(sp)
    8000cfc4:	000237b7          	lui	a5,0x23
    8000cfc8:	ed878793          	addi	a5,a5,-296 # 22ed8 <_start-0x7ffdd144>
    8000cfcc:	02f13023          	sd	a5,32(sp)
    8000cfd0:	c89ff06f          	j	8000cc58 <_svfprintf_r+0x203c>
    8000cfd4:	04013783          	ld	a5,64(sp)
    8000cfd8:	06600d93          	li	s11,102
    8000cfdc:	00e78a3b          	addw	s4,a5,a4
    8000cfe0:	015a0a3b          	addw	s4,s4,s5
    8000cfe4:	b39ff06f          	j	8000cb1c <_svfprintf_r+0x1f00>
    8000cfe8:	06700d93          	li	s11,103
    8000cfec:	06813603          	ld	a2,104(sp)
    8000cff0:	0ff00713          	li	a4,255
    8000cff4:	00064783          	lbu	a5,0(a2)
    8000cff8:	18e78c63          	beq	a5,a4,8000d190 <_svfprintf_r+0x2574>
    8000cffc:	02013703          	ld	a4,32(sp)
    8000d000:	00000813          	li	a6,0
    8000d004:	00000513          	li	a0,0
    8000d008:	0ff00693          	li	a3,255
    8000d00c:	0007859b          	sext.w	a1,a5
    8000d010:	00e7de63          	bge	a5,a4,8000d02c <_svfprintf_r+0x2410>
    8000d014:	00164783          	lbu	a5,1(a2)
    8000d018:	40b7073b          	subw	a4,a4,a1
    8000d01c:	04078863          	beqz	a5,8000d06c <_svfprintf_r+0x2450>
    8000d020:	0015051b          	addiw	a0,a0,1
    8000d024:	00160613          	addi	a2,a2,1
    8000d028:	fed792e3          	bne	a5,a3,8000d00c <_svfprintf_r+0x23f0>
    8000d02c:	06c13423          	sd	a2,104(sp)
    8000d030:	02e13023          	sd	a4,32(sp)
    8000d034:	02a13823          	sd	a0,48(sp)
    8000d038:	03013c23          	sd	a6,56(sp)
    8000d03c:	03813703          	ld	a4,56(sp)
    8000d040:	03013783          	ld	a5,48(sp)
    8000d044:	00e787bb          	addw	a5,a5,a4
    8000d048:	08013703          	ld	a4,128(sp)
    8000d04c:	02e787bb          	mulw	a5,a5,a4
    8000d050:	014787bb          	addw	a5,a5,s4
    8000d054:	00078a1b          	sext.w	s4,a5
    8000d058:	fffa4993          	not	s3,s4
    8000d05c:	43f9d993          	srai	s3,s3,0x3f
    8000d060:	0137f7b3          	and	a5,a5,s3
    8000d064:	0007899b          	sext.w	s3,a5
    8000d068:	a04fe06f          	j	8000b26c <_svfprintf_r+0x650>
    8000d06c:	00064783          	lbu	a5,0(a2)
    8000d070:	0018081b          	addiw	a6,a6,1
    8000d074:	fb5ff06f          	j	8000d028 <_svfprintf_r+0x240c>
    8000d078:	0f210713          	addi	a4,sp,242
    8000d07c:	00069863          	bnez	a3,8000d08c <_svfprintf_r+0x2470>
    8000d080:	03000713          	li	a4,48
    8000d084:	0ee10923          	sb	a4,242(sp)
    8000d088:	0f310713          	addi	a4,sp,243
    8000d08c:	21010693          	addi	a3,sp,528
    8000d090:	0307879b          	addiw	a5,a5,48
    8000d094:	40d706b3          	sub	a3,a4,a3
    8000d098:	00f70023          	sb	a5,0(a4)
    8000d09c:	1216879b          	addiw	a5,a3,289
    8000d0a0:	04f13c23          	sd	a5,88(sp)
    8000d0a4:	978fe06f          	j	8000b21c <_svfprintf_r+0x600>
    8000d0a8:	40ea07bb          	subw	a5,s4,a4
    8000d0ac:	0017879b          	addiw	a5,a5,1
    8000d0b0:	00078a1b          	sext.w	s4,a5
    8000d0b4:	fffa4993          	not	s3,s4
    8000d0b8:	43f9d993          	srai	s3,s3,0x3f
    8000d0bc:	0137f7b3          	and	a5,a5,s3
    8000d0c0:	0007899b          	sext.w	s3,a5
    8000d0c4:	8d1ff06f          	j	8000c994 <_svfprintf_r+0x1d78>
    8000d0c8:	03813703          	ld	a4,56(sp)
    8000d0cc:	00177713          	andi	a4,a4,1
    8000d0d0:	00071463          	bnez	a4,8000d0d8 <_svfprintf_r+0x24bc>
    8000d0d4:	96cfe06f          	j	8000b240 <_svfprintf_r+0x624>
    8000d0d8:	960fe06f          	j	8000b238 <_svfprintf_r+0x61c>
    8000d0dc:	000238b7          	lui	a7,0x23
    8000d0e0:	00030613          	mv	a2,t1
    8000d0e4:	6f888c93          	addi	s9,a7,1784 # 236f8 <_start-0x7ffdc924>
    8000d0e8:	de4ff06f          	j	8000c6cc <_svfprintf_r+0x1ab0>
    8000d0ec:	00079a63          	bnez	a5,8000d100 <_svfprintf_r+0x24e4>
    8000d0f0:	00100993          	li	s3,1
    8000d0f4:	06600d93          	li	s11,102
    8000d0f8:	00100a13          	li	s4,1
    8000d0fc:	899ff06f          	j	8000c994 <_svfprintf_r+0x1d78>
    8000d100:	04013783          	ld	a5,64(sp)
    8000d104:	06600d93          	li	s11,102
    8000d108:	0017879b          	addiw	a5,a5,1
    8000d10c:	01578e3b          	addw	t3,a5,s5
    8000d110:	000e0a1b          	sext.w	s4,t3
    8000d114:	fffa4993          	not	s3,s4
    8000d118:	43f9d993          	srai	s3,s3,0x3f
    8000d11c:	013e7e33          	and	t3,t3,s3
    8000d120:	000e099b          	sext.w	s3,t3
    8000d124:	871ff06f          	j	8000c994 <_svfprintf_r+0x1d78>
    8000d128:	01813683          	ld	a3,24(sp)
    8000d12c:	0006a703          	lw	a4,0(a3)
    8000d130:	00868693          	addi	a3,a3,8
    8000d134:	00070a9b          	sext.w	s5,a4
    8000d138:	00075463          	bgez	a4,8000d140 <_svfprintf_r+0x2524>
    8000d13c:	fff00a93          	li	s5,-1
    8000d140:	00144e83          	lbu	t4,1(s0)
    8000d144:	00d13c23          	sd	a3,24(sp)
    8000d148:	00078413          	mv	s0,a5
    8000d14c:	c41fd06f          	j	8000ad8c <_svfprintf_r+0x170>
    8000d150:	000a8993          	mv	s3,s5
    8000d154:	013d09b3          	add	s3,s10,s3
    8000d158:	8d9ff06f          	j	8000ca30 <_svfprintf_r+0x1e14>
    8000d15c:	010bd783          	lhu	a5,16(s7)
    8000d160:	0407e713          	ori	a4,a5,64
    8000d164:	00070793          	mv	a5,a4
    8000d168:	00eb9823          	sh	a4,16(s7)
    8000d16c:	df1fd06f          	j	8000af5c <_svfprintf_r+0x340>
    8000d170:	00c00793          	li	a5,12
    8000d174:	00fc2023          	sw	a5,0(s8)
    8000d178:	fff00793          	li	a5,-1
    8000d17c:	00f13423          	sd	a5,8(sp)
    8000d180:	de9fd06f          	j	8000af68 <_svfprintf_r+0x34c>
    8000d184:	00200793          	li	a5,2
    8000d188:	04f13c23          	sd	a5,88(sp)
    8000d18c:	890fe06f          	j	8000b21c <_svfprintf_r+0x600>
    8000d190:	02013c23          	sd	zero,56(sp)
    8000d194:	02013823          	sd	zero,48(sp)
    8000d198:	ea5ff06f          	j	8000d03c <_svfprintf_r+0x2420>
    8000d19c:	0ac5a783          	lw	a5,172(a1)
    8000d1a0:	fb010113          	addi	sp,sp,-80
    8000d1a4:	00002737          	lui	a4,0x2
    8000d1a8:	01513c23          	sd	s5,24(sp)
    8000d1ac:	04113423          	sd	ra,72(sp)
    8000d1b0:	04813023          	sd	s0,64(sp)
    8000d1b4:	02913c23          	sd	s1,56(sp)
    8000d1b8:	03213823          	sd	s2,48(sp)
    8000d1bc:	03313423          	sd	s3,40(sp)
    8000d1c0:	03413023          	sd	s4,32(sp)
    8000d1c4:	01613823          	sd	s6,16(sp)
    8000d1c8:	01713423          	sd	s7,8(sp)
    8000d1cc:	00e7f7b3          	and	a5,a5,a4
    8000d1d0:	00060a93          	mv	s5,a2
    8000d1d4:	0c078063          	beqz	a5,8000d294 <_svfprintf_r+0x2678>
    8000d1d8:	01063703          	ld	a4,16(a2)
    8000d1dc:	00063b03          	ld	s6,0(a2)
    8000d1e0:	00058913          	mv	s2,a1
    8000d1e4:	00050993          	mv	s3,a0
    8000d1e8:	fff00a13          	li	s4,-1
    8000d1ec:	0a070063          	beqz	a4,8000d28c <_svfprintf_r+0x2670>
    8000d1f0:	008b3783          	ld	a5,8(s6)
    8000d1f4:	000b3403          	ld	s0,0(s6)
    8000d1f8:	0027d793          	srli	a5,a5,0x2
    8000d1fc:	00078b9b          	sext.w	s7,a5
    8000d200:	07705c63          	blez	s7,8000d278 <_svfprintf_r+0x265c>
    8000d204:	fff7849b          	addiw	s1,a5,-1
    8000d208:	02049493          	slli	s1,s1,0x20
    8000d20c:	01e4d493          	srli	s1,s1,0x1e
    8000d210:	00440793          	addi	a5,s0,4
    8000d214:	00f484b3          	add	s1,s1,a5
    8000d218:	0080006f          	j	8000d220 <_svfprintf_r+0x2604>
    8000d21c:	04848c63          	beq	s1,s0,8000d274 <_svfprintf_r+0x2658>
    8000d220:	00042583          	lw	a1,0(s0)
    8000d224:	00090613          	mv	a2,s2
    8000d228:	00098513          	mv	a0,s3
    8000d22c:	0dd010ef          	jal	ra,8000eb08 <_fputwc_r>
    8000d230:	0005051b          	sext.w	a0,a0
    8000d234:	00440413          	addi	s0,s0,4
    8000d238:	ff4512e3          	bne	a0,s4,8000d21c <_svfprintf_r+0x2600>
    8000d23c:	fff00513          	li	a0,-1
    8000d240:	04813083          	ld	ra,72(sp)
    8000d244:	04013403          	ld	s0,64(sp)
    8000d248:	000ab823          	sd	zero,16(s5)
    8000d24c:	000aa423          	sw	zero,8(s5)
    8000d250:	03813483          	ld	s1,56(sp)
    8000d254:	03013903          	ld	s2,48(sp)
    8000d258:	02813983          	ld	s3,40(sp)
    8000d25c:	02013a03          	ld	s4,32(sp)
    8000d260:	01813a83          	ld	s5,24(sp)
    8000d264:	01013b03          	ld	s6,16(sp)
    8000d268:	00813b83          	ld	s7,8(sp)
    8000d26c:	05010113          	addi	sp,sp,80
    8000d270:	00008067          	ret
    8000d274:	010ab703          	ld	a4,16(s5)
    8000d278:	002b9b93          	slli	s7,s7,0x2
    8000d27c:	41770733          	sub	a4,a4,s7
    8000d280:	00eab823          	sd	a4,16(s5)
    8000d284:	010b0b13          	addi	s6,s6,16
    8000d288:	f60714e3          	bnez	a4,8000d1f0 <_svfprintf_r+0x25d4>
    8000d28c:	00000513          	li	a0,0
    8000d290:	fb1ff06f          	j	8000d240 <_svfprintf_r+0x2624>
    8000d294:	c55f70ef          	jal	ra,80004ee8 <__sfvwrite_r>
    8000d298:	fa9ff06f          	j	8000d240 <_svfprintf_r+0x2624>

000000008000d29c <__sprint_r>:
    8000d29c:	01063703          	ld	a4,16(a2)
    8000d2a0:	00070463          	beqz	a4,8000d2a8 <__sprint_r+0xc>
    8000d2a4:	ef9ff06f          	j	8000d19c <_svfprintf_r+0x2580>
    8000d2a8:	00062423          	sw	zero,8(a2)
    8000d2ac:	00000513          	li	a0,0
    8000d2b0:	00008067          	ret

000000008000d2b4 <_vfiprintf_r>:
    8000d2b4:	e3010113          	addi	sp,sp,-464
    8000d2b8:	1b313423          	sd	s3,424(sp)
    8000d2bc:	19513c23          	sd	s5,408(sp)
    8000d2c0:	19813023          	sd	s8,384(sp)
    8000d2c4:	17b13423          	sd	s11,360(sp)
    8000d2c8:	1c113423          	sd	ra,456(sp)
    8000d2cc:	1c813023          	sd	s0,448(sp)
    8000d2d0:	1a913c23          	sd	s1,440(sp)
    8000d2d4:	1b213823          	sd	s2,432(sp)
    8000d2d8:	1b413023          	sd	s4,416(sp)
    8000d2dc:	19613823          	sd	s6,400(sp)
    8000d2e0:	19713423          	sd	s7,392(sp)
    8000d2e4:	17913c23          	sd	s9,376(sp)
    8000d2e8:	17a13823          	sd	s10,368(sp)
    8000d2ec:	00050a93          	mv	s5,a0
    8000d2f0:	00058993          	mv	s3,a1
    8000d2f4:	00060d93          	mv	s11,a2
    8000d2f8:	00068c13          	mv	s8,a3
    8000d2fc:	00050663          	beqz	a0,8000d308 <_vfiprintf_r+0x54>
    8000d300:	05052783          	lw	a5,80(a0)
    8000d304:	40078a63          	beqz	a5,8000d718 <_vfiprintf_r+0x464>
    8000d308:	01099703          	lh	a4,16(s3)
    8000d30c:	000026b7          	lui	a3,0x2
    8000d310:	03071793          	slli	a5,a4,0x30
    8000d314:	0307d793          	srli	a5,a5,0x30
    8000d318:	00d7f633          	and	a2,a5,a3
    8000d31c:	02061863          	bnez	a2,8000d34c <_vfiprintf_r+0x98>
    8000d320:	0ac9a603          	lw	a2,172(s3)
    8000d324:	00d767b3          	or	a5,a4,a3
    8000d328:	0107979b          	slliw	a5,a5,0x10
    8000d32c:	ffffe737          	lui	a4,0xffffe
    8000d330:	4107d79b          	sraiw	a5,a5,0x10
    8000d334:	fff70713          	addi	a4,a4,-1 # ffffffffffffdfff <t0.2038+0xffffffff7ffc13b7>
    8000d338:	00e67733          	and	a4,a2,a4
    8000d33c:	00f99823          	sh	a5,16(s3)
    8000d340:	03079793          	slli	a5,a5,0x30
    8000d344:	0ae9a623          	sw	a4,172(s3)
    8000d348:	0307d793          	srli	a5,a5,0x30
    8000d34c:	0087f713          	andi	a4,a5,8
    8000d350:	34070263          	beqz	a4,8000d694 <_vfiprintf_r+0x3e0>
    8000d354:	0189b703          	ld	a4,24(s3)
    8000d358:	32070e63          	beqz	a4,8000d694 <_vfiprintf_r+0x3e0>
    8000d35c:	01a7f793          	andi	a5,a5,26
    8000d360:	00a00713          	li	a4,10
    8000d364:	34e78863          	beq	a5,a4,8000d6b4 <_vfiprintf_r+0x400>
    8000d368:	000237b7          	lui	a5,0x23
    8000d36c:	0e010493          	addi	s1,sp,224
    8000d370:	70878793          	addi	a5,a5,1800 # 23708 <_start-0x7ffdc914>
    8000d374:	00024b37          	lui	s6,0x24
    8000d378:	00024937          	lui	s2,0x24
    8000d37c:	06913023          	sd	s1,96(sp)
    8000d380:	06013823          	sd	zero,112(sp)
    8000d384:	06012423          	sw	zero,104(sp)
    8000d388:	00048713          	mv	a4,s1
    8000d38c:	00013c23          	sd	zero,24(sp)
    8000d390:	02013423          	sd	zero,40(sp)
    8000d394:	02013023          	sd	zero,32(sp)
    8000d398:	02013823          	sd	zero,48(sp)
    8000d39c:	00013023          	sd	zero,0(sp)
    8000d3a0:	00f13823          	sd	a5,16(sp)
    8000d3a4:	878b0b13          	addi	s6,s6,-1928 # 23878 <_start-0x7ffdc7a4>
    8000d3a8:	88890913          	addi	s2,s2,-1912 # 23888 <_start-0x7ffdc794>
    8000d3ac:	01813423          	sd	s8,8(sp)
    8000d3b0:	000dc783          	lbu	a5,0(s11)
    8000d3b4:	26078e63          	beqz	a5,8000d630 <_vfiprintf_r+0x37c>
    8000d3b8:	000d8413          	mv	s0,s11
    8000d3bc:	02500693          	li	a3,37
    8000d3c0:	34d78463          	beq	a5,a3,8000d708 <_vfiprintf_r+0x454>
    8000d3c4:	00144783          	lbu	a5,1(s0)
    8000d3c8:	00140413          	addi	s0,s0,1
    8000d3cc:	fe079ae3          	bnez	a5,8000d3c0 <_vfiprintf_r+0x10c>
    8000d3d0:	41b40a3b          	subw	s4,s0,s11
    8000d3d4:	240a0e63          	beqz	s4,8000d630 <_vfiprintf_r+0x37c>
    8000d3d8:	06812783          	lw	a5,104(sp)
    8000d3dc:	07013683          	ld	a3,112(sp)
    8000d3e0:	01b73023          	sd	s11,0(a4)
    8000d3e4:	0017861b          	addiw	a2,a5,1
    8000d3e8:	00da06b3          	add	a3,s4,a3
    8000d3ec:	01473423          	sd	s4,8(a4)
    8000d3f0:	06d13823          	sd	a3,112(sp)
    8000d3f4:	06c12423          	sw	a2,104(sp)
    8000d3f8:	00700793          	li	a5,7
    8000d3fc:	01070713          	addi	a4,a4,16
    8000d400:	02c7d063          	bge	a5,a2,8000d420 <_vfiprintf_r+0x16c>
    8000d404:	400680e3          	beqz	a3,8000e004 <_vfiprintf_r+0xd50>
    8000d408:	06010613          	addi	a2,sp,96
    8000d40c:	00098593          	mv	a1,s3
    8000d410:	000a8513          	mv	a0,s5
    8000d414:	d89ff0ef          	jal	ra,8000d19c <_svfprintf_r+0x2580>
    8000d418:	22051063          	bnez	a0,8000d638 <_vfiprintf_r+0x384>
    8000d41c:	00048713          	mv	a4,s1
    8000d420:	00013683          	ld	a3,0(sp)
    8000d424:	00044783          	lbu	a5,0(s0)
    8000d428:	014686bb          	addw	a3,a3,s4
    8000d42c:	00d13023          	sd	a3,0(sp)
    8000d430:	20078063          	beqz	a5,8000d630 <_vfiprintf_r+0x37c>
    8000d434:	00144683          	lbu	a3,1(s0)
    8000d438:	00140d93          	addi	s11,s0,1
    8000d43c:	04010ba3          	sb	zero,87(sp)
    8000d440:	fff00c93          	li	s9,-1
    8000d444:	00000413          	li	s0,0
    8000d448:	00000d13          	li	s10,0
    8000d44c:	05a00a13          	li	s4,90
    8000d450:	00900b93          	li	s7,9
    8000d454:	00070c13          	mv	s8,a4
    8000d458:	001d8d93          	addi	s11,s11,1
    8000d45c:	0006869b          	sext.w	a3,a3
    8000d460:	02a00593          	li	a1,42
    8000d464:	fe06879b          	addiw	a5,a3,-32
    8000d468:	0007861b          	sext.w	a2,a5
    8000d46c:	04ca6a63          	bltu	s4,a2,8000d4c0 <_vfiprintf_r+0x20c>
    8000d470:	01013703          	ld	a4,16(sp)
    8000d474:	02079793          	slli	a5,a5,0x20
    8000d478:	01e7d793          	srli	a5,a5,0x1e
    8000d47c:	00e787b3          	add	a5,a5,a4
    8000d480:	0007a783          	lw	a5,0(a5)
    8000d484:	00078067          	jr	a5
    8000d488:	00000413          	li	s0,0
    8000d48c:	000dc603          	lbu	a2,0(s11)
    8000d490:	0024179b          	slliw	a5,s0,0x2
    8000d494:	0087843b          	addw	s0,a5,s0
    8000d498:	fd06869b          	addiw	a3,a3,-48
    8000d49c:	0014141b          	slliw	s0,s0,0x1
    8000d4a0:	fd06079b          	addiw	a5,a2,-48
    8000d4a4:	0086843b          	addw	s0,a3,s0
    8000d4a8:	001d8d93          	addi	s11,s11,1
    8000d4ac:	0006069b          	sext.w	a3,a2
    8000d4b0:	fcfbfee3          	bgeu	s7,a5,8000d48c <_vfiprintf_r+0x1d8>
    8000d4b4:	fe06879b          	addiw	a5,a3,-32
    8000d4b8:	0007861b          	sext.w	a2,a5
    8000d4bc:	faca7ae3          	bgeu	s4,a2,8000d470 <_vfiprintf_r+0x1bc>
    8000d4c0:	000c0713          	mv	a4,s8
    8000d4c4:	16068663          	beqz	a3,8000d630 <_vfiprintf_r+0x37c>
    8000d4c8:	06d10c23          	sb	a3,120(sp)
    8000d4cc:	04010ba3          	sb	zero,87(sp)
    8000d4d0:	00100b93          	li	s7,1
    8000d4d4:	00100a13          	li	s4,1
    8000d4d8:	07810c13          	addi	s8,sp,120
    8000d4dc:	00000c93          	li	s9,0
    8000d4e0:	002d7f13          	andi	t5,s10,2
    8000d4e4:	000f0463          	beqz	t5,8000d4ec <_vfiprintf_r+0x238>
    8000d4e8:	002b8b9b          	addiw	s7,s7,2
    8000d4ec:	06812683          	lw	a3,104(sp)
    8000d4f0:	084d7e93          	andi	t4,s10,132
    8000d4f4:	07013783          	ld	a5,112(sp)
    8000d4f8:	0016861b          	addiw	a2,a3,1
    8000d4fc:	00060593          	mv	a1,a2
    8000d500:	000e9663          	bnez	t4,8000d50c <_vfiprintf_r+0x258>
    8000d504:	41740e3b          	subw	t3,s0,s7
    8000d508:	0dc04ee3          	bgtz	t3,8000dde4 <_vfiprintf_r+0xb30>
    8000d50c:	05714503          	lbu	a0,87(sp)
    8000d510:	01070593          	addi	a1,a4,16
    8000d514:	02050c63          	beqz	a0,8000d54c <_vfiprintf_r+0x298>
    8000d518:	05710693          	addi	a3,sp,87
    8000d51c:	00d73023          	sd	a3,0(a4)
    8000d520:	00178793          	addi	a5,a5,1
    8000d524:	00100693          	li	a3,1
    8000d528:	00d73423          	sd	a3,8(a4)
    8000d52c:	06f13823          	sd	a5,112(sp)
    8000d530:	06c12423          	sw	a2,104(sp)
    8000d534:	00700713          	li	a4,7
    8000d538:	00c742e3          	blt	a4,a2,8000dd3c <_vfiprintf_r+0xa88>
    8000d53c:	00060693          	mv	a3,a2
    8000d540:	00058713          	mv	a4,a1
    8000d544:	0016061b          	addiw	a2,a2,1
    8000d548:	01058593          	addi	a1,a1,16
    8000d54c:	040f0e63          	beqz	t5,8000d5a8 <_vfiprintf_r+0x2f4>
    8000d550:	05810693          	addi	a3,sp,88
    8000d554:	00d73023          	sd	a3,0(a4)
    8000d558:	00278793          	addi	a5,a5,2
    8000d55c:	00200693          	li	a3,2
    8000d560:	00d73423          	sd	a3,8(a4)
    8000d564:	06f13823          	sd	a5,112(sp)
    8000d568:	06c12423          	sw	a2,104(sp)
    8000d56c:	00700713          	li	a4,7
    8000d570:	02c75ae3          	bge	a4,a2,8000dda4 <_vfiprintf_r+0xaf0>
    8000d574:	2e0786e3          	beqz	a5,8000e060 <_vfiprintf_r+0xdac>
    8000d578:	06010613          	addi	a2,sp,96
    8000d57c:	00098593          	mv	a1,s3
    8000d580:	000a8513          	mv	a0,s5
    8000d584:	03d13c23          	sd	t4,56(sp)
    8000d588:	c15ff0ef          	jal	ra,8000d19c <_svfprintf_r+0x2580>
    8000d58c:	0a051663          	bnez	a0,8000d638 <_vfiprintf_r+0x384>
    8000d590:	06812683          	lw	a3,104(sp)
    8000d594:	07013783          	ld	a5,112(sp)
    8000d598:	03813e83          	ld	t4,56(sp)
    8000d59c:	0f010593          	addi	a1,sp,240
    8000d5a0:	0016861b          	addiw	a2,a3,1
    8000d5a4:	00048713          	mv	a4,s1
    8000d5a8:	08000513          	li	a0,128
    8000d5ac:	5aae8e63          	beq	t4,a0,8000db68 <_vfiprintf_r+0x8b4>
    8000d5b0:	414c8cbb          	subw	s9,s9,s4
    8000d5b4:	6b904263          	bgtz	s9,8000dc58 <_vfiprintf_r+0x9a4>
    8000d5b8:	00fa07b3          	add	a5,s4,a5
    8000d5bc:	01873023          	sd	s8,0(a4)
    8000d5c0:	01473423          	sd	s4,8(a4)
    8000d5c4:	06f13823          	sd	a5,112(sp)
    8000d5c8:	06c12423          	sw	a2,104(sp)
    8000d5cc:	00700713          	li	a4,7
    8000d5d0:	02c75263          	bge	a4,a2,8000d5f4 <_vfiprintf_r+0x340>
    8000d5d4:	100780e3          	beqz	a5,8000ded4 <_vfiprintf_r+0xc20>
    8000d5d8:	06010613          	addi	a2,sp,96
    8000d5dc:	00098593          	mv	a1,s3
    8000d5e0:	000a8513          	mv	a0,s5
    8000d5e4:	bb9ff0ef          	jal	ra,8000d19c <_svfprintf_r+0x2580>
    8000d5e8:	04051863          	bnez	a0,8000d638 <_vfiprintf_r+0x384>
    8000d5ec:	07013783          	ld	a5,112(sp)
    8000d5f0:	00048593          	mv	a1,s1
    8000d5f4:	004d7813          	andi	a6,s10,4
    8000d5f8:	00080663          	beqz	a6,8000d604 <_vfiprintf_r+0x350>
    8000d5fc:	41740a3b          	subw	s4,s0,s7
    8000d600:	0f4046e3          	bgtz	s4,8000deec <_vfiprintf_r+0xc38>
    8000d604:	00040713          	mv	a4,s0
    8000d608:	01745463          	bge	s0,s7,8000d610 <_vfiprintf_r+0x35c>
    8000d60c:	000b8713          	mv	a4,s7
    8000d610:	00013683          	ld	a3,0(sp)
    8000d614:	00d7073b          	addw	a4,a4,a3
    8000d618:	00e13023          	sd	a4,0(sp)
    8000d61c:	6e079c63          	bnez	a5,8000dd14 <_vfiprintf_r+0xa60>
    8000d620:	000dc783          	lbu	a5,0(s11)
    8000d624:	06012423          	sw	zero,104(sp)
    8000d628:	00048713          	mv	a4,s1
    8000d62c:	d80796e3          	bnez	a5,8000d3b8 <_vfiprintf_r+0x104>
    8000d630:	07013783          	ld	a5,112(sp)
    8000d634:	5e079ee3          	bnez	a5,8000e430 <_vfiprintf_r+0x117c>
    8000d638:	0109d783          	lhu	a5,16(s3)
    8000d63c:	0407f793          	andi	a5,a5,64
    8000d640:	620792e3          	bnez	a5,8000e464 <_vfiprintf_r+0x11b0>
    8000d644:	1c813083          	ld	ra,456(sp)
    8000d648:	1c013403          	ld	s0,448(sp)
    8000d64c:	00013503          	ld	a0,0(sp)
    8000d650:	1b813483          	ld	s1,440(sp)
    8000d654:	1b013903          	ld	s2,432(sp)
    8000d658:	1a813983          	ld	s3,424(sp)
    8000d65c:	1a013a03          	ld	s4,416(sp)
    8000d660:	19813a83          	ld	s5,408(sp)
    8000d664:	19013b03          	ld	s6,400(sp)
    8000d668:	18813b83          	ld	s7,392(sp)
    8000d66c:	18013c03          	ld	s8,384(sp)
    8000d670:	17813c83          	ld	s9,376(sp)
    8000d674:	17013d03          	ld	s10,368(sp)
    8000d678:	16813d83          	ld	s11,360(sp)
    8000d67c:	1d010113          	addi	sp,sp,464
    8000d680:	00008067          	ret
    8000d684:	010d6d13          	ori	s10,s10,16
    8000d688:	000dc683          	lbu	a3,0(s11)
    8000d68c:	000d0d1b          	sext.w	s10,s10
    8000d690:	dc9ff06f          	j	8000d458 <_vfiprintf_r+0x1a4>
    8000d694:	00098593          	mv	a1,s3
    8000d698:	000a8513          	mv	a0,s5
    8000d69c:	a2df60ef          	jal	ra,800040c8 <__swsetup_r>
    8000d6a0:	5c0512e3          	bnez	a0,8000e464 <_vfiprintf_r+0x11b0>
    8000d6a4:	0109d783          	lhu	a5,16(s3)
    8000d6a8:	00a00713          	li	a4,10
    8000d6ac:	01a7f793          	andi	a5,a5,26
    8000d6b0:	cae79ce3          	bne	a5,a4,8000d368 <_vfiprintf_r+0xb4>
    8000d6b4:	01299783          	lh	a5,18(s3)
    8000d6b8:	ca07c8e3          	bltz	a5,8000d368 <_vfiprintf_r+0xb4>
    8000d6bc:	1c013403          	ld	s0,448(sp)
    8000d6c0:	1c813083          	ld	ra,456(sp)
    8000d6c4:	1b813483          	ld	s1,440(sp)
    8000d6c8:	1b013903          	ld	s2,432(sp)
    8000d6cc:	1a013a03          	ld	s4,416(sp)
    8000d6d0:	19013b03          	ld	s6,400(sp)
    8000d6d4:	18813b83          	ld	s7,392(sp)
    8000d6d8:	17813c83          	ld	s9,376(sp)
    8000d6dc:	17013d03          	ld	s10,368(sp)
    8000d6e0:	000c0693          	mv	a3,s8
    8000d6e4:	000d8613          	mv	a2,s11
    8000d6e8:	18013c03          	ld	s8,384(sp)
    8000d6ec:	16813d83          	ld	s11,360(sp)
    8000d6f0:	00098593          	mv	a1,s3
    8000d6f4:	000a8513          	mv	a0,s5
    8000d6f8:	1a813983          	ld	s3,424(sp)
    8000d6fc:	19813a83          	ld	s5,408(sp)
    8000d700:	1d010113          	addi	sp,sp,464
    8000d704:	5c10006f          	j	8000e4c4 <vfiprintf+0x18>
    8000d708:	41b40a3b          	subw	s4,s0,s11
    8000d70c:	cc0a16e3          	bnez	s4,8000d3d8 <_vfiprintf_r+0x124>
    8000d710:	00044783          	lbu	a5,0(s0)
    8000d714:	d1dff06f          	j	8000d430 <_vfiprintf_r+0x17c>
    8000d718:	ad0f70ef          	jal	ra,800049e8 <__sinit>
    8000d71c:	bedff06f          	j	8000d308 <_vfiprintf_r+0x54>
    8000d720:	00813783          	ld	a5,8(sp)
    8000d724:	000c0713          	mv	a4,s8
    8000d728:	04010ba3          	sb	zero,87(sp)
    8000d72c:	0007bc03          	ld	s8,0(a5)
    8000d730:	00878693          	addi	a3,a5,8
    8000d734:	400c02e3          	beqz	s8,8000e338 <_vfiprintf_r+0x1084>
    8000d738:	fff00793          	li	a5,-1
    8000d73c:	02e13c23          	sd	a4,56(sp)
    8000d740:	00d13423          	sd	a3,8(sp)
    8000d744:	2efc8ae3          	beq	s9,a5,8000e238 <_vfiprintf_r+0xf84>
    8000d748:	000c8613          	mv	a2,s9
    8000d74c:	00000593          	li	a1,0
    8000d750:	000c0513          	mv	a0,s8
    8000d754:	dacfb0ef          	jal	ra,80008d00 <memchr>
    8000d758:	00813683          	ld	a3,8(sp)
    8000d75c:	03813703          	ld	a4,56(sp)
    8000d760:	4e0502e3          	beqz	a0,8000e444 <_vfiprintf_r+0x1190>
    8000d764:	41850a3b          	subw	s4,a0,s8
    8000d768:	00000c93          	li	s9,0
    8000d76c:	000c8793          	mv	a5,s9
    8000d770:	014cd463          	bge	s9,s4,8000d778 <_vfiprintf_r+0x4c4>
    8000d774:	000a0793          	mv	a5,s4
    8000d778:	05714683          	lbu	a3,87(sp)
    8000d77c:	00078b9b          	sext.w	s7,a5
    8000d780:	d60680e3          	beqz	a3,8000d4e0 <_vfiprintf_r+0x22c>
    8000d784:	00178b9b          	addiw	s7,a5,1
    8000d788:	d59ff06f          	j	8000d4e0 <_vfiprintf_r+0x22c>
    8000d78c:	00813683          	ld	a3,8(sp)
    8000d790:	000c0713          	mv	a4,s8
    8000d794:	04010ba3          	sb	zero,87(sp)
    8000d798:	0006a783          	lw	a5,0(a3) # 2000 <_start-0x7fffe01c>
    8000d79c:	00868693          	addi	a3,a3,8
    8000d7a0:	00d13423          	sd	a3,8(sp)
    8000d7a4:	06f10c23          	sb	a5,120(sp)
    8000d7a8:	00100b93          	li	s7,1
    8000d7ac:	00100a13          	li	s4,1
    8000d7b0:	07810c13          	addi	s8,sp,120
    8000d7b4:	d29ff06f          	j	8000d4dc <_vfiprintf_r+0x228>
    8000d7b8:	00813683          	ld	a3,8(sp)
    8000d7bc:	020d7793          	andi	a5,s10,32
    8000d7c0:	000c0713          	mv	a4,s8
    8000d7c4:	00868613          	addi	a2,a3,8
    8000d7c8:	0e078063          	beqz	a5,8000d8a8 <_vfiprintf_r+0x5f4>
    8000d7cc:	0006b783          	ld	a5,0(a3)
    8000d7d0:	00078b93          	mv	s7,a5
    8000d7d4:	0e07ca63          	bltz	a5,8000d8c8 <_vfiprintf_r+0x614>
    8000d7d8:	fff00793          	li	a5,-1
    8000d7dc:	30fc84e3          	beq	s9,a5,8000e2e4 <_vfiprintf_r+0x1030>
    8000d7e0:	f7fd7693          	andi	a3,s10,-129
    8000d7e4:	0006869b          	sext.w	a3,a3
    8000d7e8:	1a0b94e3          	bnez	s7,8000e190 <_vfiprintf_r+0xedc>
    8000d7ec:	00c13423          	sd	a2,8(sp)
    8000d7f0:	5c0c9e63          	bnez	s9,8000ddcc <_vfiprintf_r+0xb18>
    8000d7f4:	00068d13          	mv	s10,a3
    8000d7f8:	00000c93          	li	s9,0
    8000d7fc:	00000a13          	li	s4,0
    8000d800:	0dc10c13          	addi	s8,sp,220
    8000d804:	f69ff06f          	j	8000d76c <_vfiprintf_r+0x4b8>
    8000d808:	000dc683          	lbu	a3,0(s11)
    8000d80c:	06800793          	li	a5,104
    8000d810:	2ef68ce3          	beq	a3,a5,8000e308 <_vfiprintf_r+0x1054>
    8000d814:	040d6d13          	ori	s10,s10,64
    8000d818:	000d0d1b          	sext.w	s10,s10
    8000d81c:	c3dff06f          	j	8000d458 <_vfiprintf_r+0x1a4>
    8000d820:	010d6813          	ori	a6,s10,16
    8000d824:	000c0713          	mv	a4,s8
    8000d828:	00080d1b          	sext.w	s10,a6
    8000d82c:	00813683          	ld	a3,8(sp)
    8000d830:	020d7793          	andi	a5,s10,32
    8000d834:	00868613          	addi	a2,a3,8
    8000d838:	7c078c63          	beqz	a5,8000e010 <_vfiprintf_r+0xd5c>
    8000d83c:	0006bb83          	ld	s7,0(a3)
    8000d840:	bffd7693          	andi	a3,s10,-1025
    8000d844:	0006869b          	sext.w	a3,a3
    8000d848:	00c13423          	sd	a2,8(sp)
    8000d84c:	00000793          	li	a5,0
    8000d850:	04010ba3          	sb	zero,87(sp)
    8000d854:	fff00613          	li	a2,-1
    8000d858:	08cc8863          	beq	s9,a2,8000d8e8 <_vfiprintf_r+0x634>
    8000d85c:	f7f6f813          	andi	a6,a3,-129
    8000d860:	00080d1b          	sext.w	s10,a6
    8000d864:	540b9a63          	bnez	s7,8000ddb8 <_vfiprintf_r+0xb04>
    8000d868:	280c94e3          	bnez	s9,8000e2f0 <_vfiprintf_r+0x103c>
    8000d86c:	f80796e3          	bnez	a5,8000d7f8 <_vfiprintf_r+0x544>
    8000d870:	0016fa13          	andi	s4,a3,1
    8000d874:	0dc10c13          	addi	s8,sp,220
    8000d878:	ee0a0ae3          	beqz	s4,8000d76c <_vfiprintf_r+0x4b8>
    8000d87c:	03000793          	li	a5,48
    8000d880:	0cf10da3          	sb	a5,219(sp)
    8000d884:	0db10c13          	addi	s8,sp,219
    8000d888:	ee5ff06f          	j	8000d76c <_vfiprintf_r+0x4b8>
    8000d88c:	00813683          	ld	a3,8(sp)
    8000d890:	010d6813          	ori	a6,s10,16
    8000d894:	00080d1b          	sext.w	s10,a6
    8000d898:	020d7793          	andi	a5,s10,32
    8000d89c:	000c0713          	mv	a4,s8
    8000d8a0:	00868613          	addi	a2,a3,8
    8000d8a4:	f20794e3          	bnez	a5,8000d7cc <_vfiprintf_r+0x518>
    8000d8a8:	010d7793          	andi	a5,s10,16
    8000d8ac:	0a079ce3          	bnez	a5,8000e164 <_vfiprintf_r+0xeb0>
    8000d8b0:	040d7793          	andi	a5,s10,64
    8000d8b4:	2c0786e3          	beqz	a5,8000e380 <_vfiprintf_r+0x10cc>
    8000d8b8:	00813783          	ld	a5,8(sp)
    8000d8bc:	00079b83          	lh	s7,0(a5)
    8000d8c0:	000b8793          	mv	a5,s7
    8000d8c4:	f007dae3          	bgez	a5,8000d7d8 <_vfiprintf_r+0x524>
    8000d8c8:	02d00793          	li	a5,45
    8000d8cc:	04f10ba3          	sb	a5,87(sp)
    8000d8d0:	00c13423          	sd	a2,8(sp)
    8000d8d4:	fff00613          	li	a2,-1
    8000d8d8:	41700bb3          	neg	s7,s7
    8000d8dc:	000d0693          	mv	a3,s10
    8000d8e0:	00100793          	li	a5,1
    8000d8e4:	f6cc9ce3          	bne	s9,a2,8000d85c <_vfiprintf_r+0x5a8>
    8000d8e8:	00100613          	li	a2,1
    8000d8ec:	4cc78c63          	beq	a5,a2,8000ddc4 <_vfiprintf_r+0xb10>
    8000d8f0:	00200613          	li	a2,2
    8000d8f4:	24c78063          	beq	a5,a2,8000db34 <_vfiprintf_r+0x880>
    8000d8f8:	0dc10a13          	addi	s4,sp,220
    8000d8fc:	000a0c13          	mv	s8,s4
    8000d900:	007bf793          	andi	a5,s7,7
    8000d904:	03078793          	addi	a5,a5,48
    8000d908:	fefc0fa3          	sb	a5,-1(s8)
    8000d90c:	003bdb93          	srli	s7,s7,0x3
    8000d910:	000c0613          	mv	a2,s8
    8000d914:	fffc0c13          	addi	s8,s8,-1
    8000d918:	fe0b94e3          	bnez	s7,8000d900 <_vfiprintf_r+0x64c>
    8000d91c:	0016f593          	andi	a1,a3,1
    8000d920:	22058e63          	beqz	a1,8000db5c <_vfiprintf_r+0x8a8>
    8000d924:	03000593          	li	a1,48
    8000d928:	22b78a63          	beq	a5,a1,8000db5c <_vfiprintf_r+0x8a8>
    8000d92c:	ffe60613          	addi	a2,a2,-2
    8000d930:	febc0fa3          	sb	a1,-1(s8)
    8000d934:	40ca0a3b          	subw	s4,s4,a2
    8000d938:	00068d13          	mv	s10,a3
    8000d93c:	00060c13          	mv	s8,a2
    8000d940:	e2dff06f          	j	8000d76c <_vfiprintf_r+0x4b8>
    8000d944:	010d6693          	ori	a3,s10,16
    8000d948:	000c0713          	mv	a4,s8
    8000d94c:	0006869b          	sext.w	a3,a3
    8000d950:	00813583          	ld	a1,8(sp)
    8000d954:	0206f793          	andi	a5,a3,32
    8000d958:	00858613          	addi	a2,a1,8
    8000d95c:	6c078c63          	beqz	a5,8000e034 <_vfiprintf_r+0xd80>
    8000d960:	0005bb83          	ld	s7,0(a1)
    8000d964:	00100793          	li	a5,1
    8000d968:	00c13423          	sd	a2,8(sp)
    8000d96c:	ee5ff06f          	j	8000d850 <_vfiprintf_r+0x59c>
    8000d970:	080d6d13          	ori	s10,s10,128
    8000d974:	000dc683          	lbu	a3,0(s11)
    8000d978:	000d0d1b          	sext.w	s10,s10
    8000d97c:	addff06f          	j	8000d458 <_vfiprintf_r+0x1a4>
    8000d980:	020d6d13          	ori	s10,s10,32
    8000d984:	000dc683          	lbu	a3,0(s11)
    8000d988:	000d0d1b          	sext.w	s10,s10
    8000d98c:	acdff06f          	j	8000d458 <_vfiprintf_r+0x1a4>
    8000d990:	00813603          	ld	a2,8(sp)
    8000d994:	03000793          	li	a5,48
    8000d998:	04f10c23          	sb	a5,88(sp)
    8000d99c:	07800793          	li	a5,120
    8000d9a0:	002d6693          	ori	a3,s10,2
    8000d9a4:	04f10ca3          	sb	a5,89(sp)
    8000d9a8:	00023d37          	lui	s10,0x23
    8000d9ac:	00860793          	addi	a5,a2,8
    8000d9b0:	00f13423          	sd	a5,8(sp)
    8000d9b4:	ed8d0793          	addi	a5,s10,-296 # 22ed8 <_start-0x7ffdd144>
    8000d9b8:	00f13c23          	sd	a5,24(sp)
    8000d9bc:	00063b83          	ld	s7,0(a2)
    8000d9c0:	000c0713          	mv	a4,s8
    8000d9c4:	0006869b          	sext.w	a3,a3
    8000d9c8:	00200793          	li	a5,2
    8000d9cc:	e85ff06f          	j	8000d850 <_vfiprintf_r+0x59c>
    8000d9d0:	00813603          	ld	a2,8(sp)
    8000d9d4:	020d7793          	andi	a5,s10,32
    8000d9d8:	000c0713          	mv	a4,s8
    8000d9dc:	00063683          	ld	a3,0(a2)
    8000d9e0:	00860613          	addi	a2,a2,8
    8000d9e4:	00c13423          	sd	a2,8(sp)
    8000d9e8:	02079463          	bnez	a5,8000da10 <_vfiprintf_r+0x75c>
    8000d9ec:	010d7793          	andi	a5,s10,16
    8000d9f0:	02079063          	bnez	a5,8000da10 <_vfiprintf_r+0x75c>
    8000d9f4:	040d7793          	andi	a5,s10,64
    8000d9f8:	1e0798e3          	bnez	a5,8000e3e8 <_vfiprintf_r+0x1134>
    8000d9fc:	200d7813          	andi	a6,s10,512
    8000da00:	00013783          	ld	a5,0(sp)
    8000da04:	26080ce3          	beqz	a6,8000e47c <_vfiprintf_r+0x11c8>
    8000da08:	00f68023          	sb	a5,0(a3)
    8000da0c:	9a5ff06f          	j	8000d3b0 <_vfiprintf_r+0xfc>
    8000da10:	00013783          	ld	a5,0(sp)
    8000da14:	00f6b023          	sd	a5,0(a3)
    8000da18:	999ff06f          	j	8000d3b0 <_vfiprintf_r+0xfc>
    8000da1c:	000dc683          	lbu	a3,0(s11)
    8000da20:	06c00793          	li	a5,108
    8000da24:	0ef68ce3          	beq	a3,a5,8000e31c <_vfiprintf_r+0x1068>
    8000da28:	010d6d13          	ori	s10,s10,16
    8000da2c:	000d0d1b          	sext.w	s10,s10
    8000da30:	a29ff06f          	j	8000d458 <_vfiprintf_r+0x1a4>
    8000da34:	00813783          	ld	a5,8(sp)
    8000da38:	000dc683          	lbu	a3,0(s11)
    8000da3c:	0007a403          	lw	s0,0(a5)
    8000da40:	00878793          	addi	a5,a5,8
    8000da44:	00f13423          	sd	a5,8(sp)
    8000da48:	a00458e3          	bgez	s0,8000d458 <_vfiprintf_r+0x1a4>
    8000da4c:	4080043b          	negw	s0,s0
    8000da50:	0840006f          	j	8000dad4 <_vfiprintf_r+0x820>
    8000da54:	000a8513          	mv	a0,s5
    8000da58:	ea8fa0ef          	jal	ra,80008100 <_localeconv_r>
    8000da5c:	00853783          	ld	a5,8(a0)
    8000da60:	00078513          	mv	a0,a5
    8000da64:	02f13823          	sd	a5,48(sp)
    8000da68:	d25f30ef          	jal	ra,8000178c <strlen>
    8000da6c:	00050793          	mv	a5,a0
    8000da70:	000a8513          	mv	a0,s5
    8000da74:	02f13023          	sd	a5,32(sp)
    8000da78:	e88fa0ef          	jal	ra,80008100 <_localeconv_r>
    8000da7c:	01053703          	ld	a4,16(a0)
    8000da80:	02013783          	ld	a5,32(sp)
    8000da84:	000dc683          	lbu	a3,0(s11)
    8000da88:	02e13423          	sd	a4,40(sp)
    8000da8c:	9c0786e3          	beqz	a5,8000d458 <_vfiprintf_r+0x1a4>
    8000da90:	9c0704e3          	beqz	a4,8000d458 <_vfiprintf_r+0x1a4>
    8000da94:	00074783          	lbu	a5,0(a4)
    8000da98:	9c0780e3          	beqz	a5,8000d458 <_vfiprintf_r+0x1a4>
    8000da9c:	400d6d13          	ori	s10,s10,1024
    8000daa0:	000d0d1b          	sext.w	s10,s10
    8000daa4:	9b5ff06f          	j	8000d458 <_vfiprintf_r+0x1a4>
    8000daa8:	001d6d13          	ori	s10,s10,1
    8000daac:	000dc683          	lbu	a3,0(s11)
    8000dab0:	000d0d1b          	sext.w	s10,s10
    8000dab4:	9a5ff06f          	j	8000d458 <_vfiprintf_r+0x1a4>
    8000dab8:	05714783          	lbu	a5,87(sp)
    8000dabc:	000dc683          	lbu	a3,0(s11)
    8000dac0:	98079ce3          	bnez	a5,8000d458 <_vfiprintf_r+0x1a4>
    8000dac4:	02000793          	li	a5,32
    8000dac8:	04f10ba3          	sb	a5,87(sp)
    8000dacc:	98dff06f          	j	8000d458 <_vfiprintf_r+0x1a4>
    8000dad0:	000dc683          	lbu	a3,0(s11)
    8000dad4:	004d6d13          	ori	s10,s10,4
    8000dad8:	000d0d1b          	sext.w	s10,s10
    8000dadc:	97dff06f          	j	8000d458 <_vfiprintf_r+0x1a4>
    8000dae0:	02b00793          	li	a5,43
    8000dae4:	000dc683          	lbu	a3,0(s11)
    8000dae8:	04f10ba3          	sb	a5,87(sp)
    8000daec:	96dff06f          	j	8000d458 <_vfiprintf_r+0x1a4>
    8000daf0:	000dc683          	lbu	a3,0(s11)
    8000daf4:	001d8793          	addi	a5,s11,1
    8000daf8:	18b686e3          	beq	a3,a1,8000e484 <_vfiprintf_r+0x11d0>
    8000dafc:	fd06861b          	addiw	a2,a3,-48
    8000db00:	00078d93          	mv	s11,a5
    8000db04:	00000c93          	li	s9,0
    8000db08:	94cbeee3          	bltu	s7,a2,8000d464 <_vfiprintf_r+0x1b0>
    8000db0c:	000dc683          	lbu	a3,0(s11)
    8000db10:	002c979b          	slliw	a5,s9,0x2
    8000db14:	01978cbb          	addw	s9,a5,s9
    8000db18:	001c9c9b          	slliw	s9,s9,0x1
    8000db1c:	00cc8cbb          	addw	s9,s9,a2
    8000db20:	fd06861b          	addiw	a2,a3,-48
    8000db24:	001d8d93          	addi	s11,s11,1
    8000db28:	fecbf2e3          	bgeu	s7,a2,8000db0c <_vfiprintf_r+0x858>
    8000db2c:	939ff06f          	j	8000d464 <_vfiprintf_r+0x1b0>
    8000db30:	000d0693          	mv	a3,s10
    8000db34:	01813603          	ld	a2,24(sp)
    8000db38:	0dc10a13          	addi	s4,sp,220
    8000db3c:	000a0c13          	mv	s8,s4
    8000db40:	00fbf793          	andi	a5,s7,15
    8000db44:	00f607b3          	add	a5,a2,a5
    8000db48:	0007c783          	lbu	a5,0(a5)
    8000db4c:	004bdb93          	srli	s7,s7,0x4
    8000db50:	fffc0c13          	addi	s8,s8,-1
    8000db54:	00fc0023          	sb	a5,0(s8)
    8000db58:	fe0b94e3          	bnez	s7,8000db40 <_vfiprintf_r+0x88c>
    8000db5c:	418a0a3b          	subw	s4,s4,s8
    8000db60:	00068d13          	mv	s10,a3
    8000db64:	c09ff06f          	j	8000d76c <_vfiprintf_r+0x4b8>
    8000db68:	41740e3b          	subw	t3,s0,s7
    8000db6c:	a5c052e3          	blez	t3,8000d5b0 <_vfiprintf_r+0x2fc>
    8000db70:	01000513          	li	a0,16
    8000db74:	0fc55ee3          	bge	a0,t3,8000e470 <_vfiprintf_r+0x11bc>
    8000db78:	02813c23          	sd	s0,56(sp)
    8000db7c:	01000e93          	li	t4,16
    8000db80:	00098413          	mv	s0,s3
    8000db84:	00700f13          	li	t5,7
    8000db88:	000e0993          	mv	s3,t3
    8000db8c:	0180006f          	j	8000dba4 <_vfiprintf_r+0x8f0>
    8000db90:	0026851b          	addiw	a0,a3,2
    8000db94:	01070713          	addi	a4,a4,16
    8000db98:	00080693          	mv	a3,a6
    8000db9c:	ff09899b          	addiw	s3,s3,-16
    8000dba0:	053edc63          	bge	t4,s3,8000dbf8 <_vfiprintf_r+0x944>
    8000dba4:	0016881b          	addiw	a6,a3,1
    8000dba8:	01078793          	addi	a5,a5,16
    8000dbac:	01273023          	sd	s2,0(a4)
    8000dbb0:	01d73423          	sd	t4,8(a4)
    8000dbb4:	06f13823          	sd	a5,112(sp)
    8000dbb8:	07012423          	sw	a6,104(sp)
    8000dbbc:	fd0f5ae3          	bge	t5,a6,8000db90 <_vfiprintf_r+0x8dc>
    8000dbc0:	16078663          	beqz	a5,8000dd2c <_vfiprintf_r+0xa78>
    8000dbc4:	06010613          	addi	a2,sp,96
    8000dbc8:	00040593          	mv	a1,s0
    8000dbcc:	000a8513          	mv	a0,s5
    8000dbd0:	dccff0ef          	jal	ra,8000d19c <_svfprintf_r+0x2580>
    8000dbd4:	74051e63          	bnez	a0,8000e330 <_vfiprintf_r+0x107c>
    8000dbd8:	06812683          	lw	a3,104(sp)
    8000dbdc:	01000e93          	li	t4,16
    8000dbe0:	ff09899b          	addiw	s3,s3,-16
    8000dbe4:	07013783          	ld	a5,112(sp)
    8000dbe8:	00048713          	mv	a4,s1
    8000dbec:	0016851b          	addiw	a0,a3,1
    8000dbf0:	00700f13          	li	t5,7
    8000dbf4:	fb3ec8e3          	blt	t4,s3,8000dba4 <_vfiprintf_r+0x8f0>
    8000dbf8:	00098e13          	mv	t3,s3
    8000dbfc:	00040993          	mv	s3,s0
    8000dc00:	03813403          	ld	s0,56(sp)
    8000dc04:	01070e93          	addi	t4,a4,16
    8000dc08:	01c787b3          	add	a5,a5,t3
    8000dc0c:	01273023          	sd	s2,0(a4)
    8000dc10:	01c73423          	sd	t3,8(a4)
    8000dc14:	06f13823          	sd	a5,112(sp)
    8000dc18:	06a12423          	sw	a0,104(sp)
    8000dc1c:	00700713          	li	a4,7
    8000dc20:	50a75863          	bge	a4,a0,8000e130 <_vfiprintf_r+0xe7c>
    8000dc24:	78078663          	beqz	a5,8000e3b0 <_vfiprintf_r+0x10fc>
    8000dc28:	06010613          	addi	a2,sp,96
    8000dc2c:	00098593          	mv	a1,s3
    8000dc30:	000a8513          	mv	a0,s5
    8000dc34:	d68ff0ef          	jal	ra,8000d19c <_svfprintf_r+0x2580>
    8000dc38:	a00510e3          	bnez	a0,8000d638 <_vfiprintf_r+0x384>
    8000dc3c:	06812683          	lw	a3,104(sp)
    8000dc40:	414c8cbb          	subw	s9,s9,s4
    8000dc44:	07013783          	ld	a5,112(sp)
    8000dc48:	0f010593          	addi	a1,sp,240
    8000dc4c:	0016861b          	addiw	a2,a3,1
    8000dc50:	00048713          	mv	a4,s1
    8000dc54:	979052e3          	blez	s9,8000d5b8 <_vfiprintf_r+0x304>
    8000dc58:	01000513          	li	a0,16
    8000dc5c:	75955663          	bge	a0,s9,8000e3a8 <_vfiprintf_r+0x10f4>
    8000dc60:	01000e13          	li	t3,16
    8000dc64:	00700e93          	li	t4,7
    8000dc68:	0180006f          	j	8000dc80 <_vfiprintf_r+0x9cc>
    8000dc6c:	0026861b          	addiw	a2,a3,2
    8000dc70:	01070713          	addi	a4,a4,16
    8000dc74:	00050693          	mv	a3,a0
    8000dc78:	ff0c8c9b          	addiw	s9,s9,-16
    8000dc7c:	059e5c63          	bge	t3,s9,8000dcd4 <_vfiprintf_r+0xa20>
    8000dc80:	0016851b          	addiw	a0,a3,1
    8000dc84:	01078793          	addi	a5,a5,16
    8000dc88:	01273023          	sd	s2,0(a4)
    8000dc8c:	01c73423          	sd	t3,8(a4)
    8000dc90:	06f13823          	sd	a5,112(sp)
    8000dc94:	06a12423          	sw	a0,104(sp)
    8000dc98:	fcaedae3          	bge	t4,a0,8000dc6c <_vfiprintf_r+0x9b8>
    8000dc9c:	06078463          	beqz	a5,8000dd04 <_vfiprintf_r+0xa50>
    8000dca0:	06010613          	addi	a2,sp,96
    8000dca4:	00098593          	mv	a1,s3
    8000dca8:	000a8513          	mv	a0,s5
    8000dcac:	cf0ff0ef          	jal	ra,8000d19c <_svfprintf_r+0x2580>
    8000dcb0:	980514e3          	bnez	a0,8000d638 <_vfiprintf_r+0x384>
    8000dcb4:	06812683          	lw	a3,104(sp)
    8000dcb8:	01000e13          	li	t3,16
    8000dcbc:	ff0c8c9b          	addiw	s9,s9,-16
    8000dcc0:	07013783          	ld	a5,112(sp)
    8000dcc4:	00048713          	mv	a4,s1
    8000dcc8:	0016861b          	addiw	a2,a3,1
    8000dccc:	00700e93          	li	t4,7
    8000dcd0:	fb9e48e3          	blt	t3,s9,8000dc80 <_vfiprintf_r+0x9cc>
    8000dcd4:	01070693          	addi	a3,a4,16
    8000dcd8:	019787b3          	add	a5,a5,s9
    8000dcdc:	01273023          	sd	s2,0(a4)
    8000dce0:	01973423          	sd	s9,8(a4)
    8000dce4:	06f13823          	sd	a5,112(sp)
    8000dce8:	06c12423          	sw	a2,104(sp)
    8000dcec:	00700713          	li	a4,7
    8000dcf0:	2ec74263          	blt	a4,a2,8000dfd4 <_vfiprintf_r+0xd20>
    8000dcf4:	0016061b          	addiw	a2,a2,1
    8000dcf8:	01068593          	addi	a1,a3,16
    8000dcfc:	00068713          	mv	a4,a3
    8000dd00:	8b9ff06f          	j	8000d5b8 <_vfiprintf_r+0x304>
    8000dd04:	00100613          	li	a2,1
    8000dd08:	00000693          	li	a3,0
    8000dd0c:	00048713          	mv	a4,s1
    8000dd10:	f69ff06f          	j	8000dc78 <_vfiprintf_r+0x9c4>
    8000dd14:	06010613          	addi	a2,sp,96
    8000dd18:	00098593          	mv	a1,s3
    8000dd1c:	000a8513          	mv	a0,s5
    8000dd20:	c7cff0ef          	jal	ra,8000d19c <_svfprintf_r+0x2580>
    8000dd24:	8e050ee3          	beqz	a0,8000d620 <_vfiprintf_r+0x36c>
    8000dd28:	911ff06f          	j	8000d638 <_vfiprintf_r+0x384>
    8000dd2c:	00100513          	li	a0,1
    8000dd30:	00000693          	li	a3,0
    8000dd34:	00048713          	mv	a4,s1
    8000dd38:	e65ff06f          	j	8000db9c <_vfiprintf_r+0x8e8>
    8000dd3c:	32078c63          	beqz	a5,8000e074 <_vfiprintf_r+0xdc0>
    8000dd40:	06010613          	addi	a2,sp,96
    8000dd44:	00098593          	mv	a1,s3
    8000dd48:	000a8513          	mv	a0,s5
    8000dd4c:	05d13023          	sd	t4,64(sp)
    8000dd50:	03e13c23          	sd	t5,56(sp)
    8000dd54:	c48ff0ef          	jal	ra,8000d19c <_svfprintf_r+0x2580>
    8000dd58:	8e0510e3          	bnez	a0,8000d638 <_vfiprintf_r+0x384>
    8000dd5c:	06812683          	lw	a3,104(sp)
    8000dd60:	07013783          	ld	a5,112(sp)
    8000dd64:	04013e83          	ld	t4,64(sp)
    8000dd68:	03813f03          	ld	t5,56(sp)
    8000dd6c:	0f010593          	addi	a1,sp,240
    8000dd70:	0016861b          	addiw	a2,a3,1
    8000dd74:	00048713          	mv	a4,s1
    8000dd78:	fd4ff06f          	j	8000d54c <_vfiprintf_r+0x298>
    8000dd7c:	36079e63          	bnez	a5,8000e0f8 <_vfiprintf_r+0xe44>
    8000dd80:	05714703          	lbu	a4,87(sp)
    8000dd84:	64071463          	bnez	a4,8000e3cc <_vfiprintf_r+0x1118>
    8000dd88:	2e0f0863          	beqz	t5,8000e078 <_vfiprintf_r+0xdc4>
    8000dd8c:	05810793          	addi	a5,sp,88
    8000dd90:	0ef13023          	sd	a5,224(sp)
    8000dd94:	00200793          	li	a5,2
    8000dd98:	0ef13423          	sd	a5,232(sp)
    8000dd9c:	0f010593          	addi	a1,sp,240
    8000dda0:	00100613          	li	a2,1
    8000dda4:	00058713          	mv	a4,a1
    8000dda8:	00060693          	mv	a3,a2
    8000ddac:	0016861b          	addiw	a2,a3,1
    8000ddb0:	01070593          	addi	a1,a4,16
    8000ddb4:	ff4ff06f          	j	8000d5a8 <_vfiprintf_r+0x2f4>
    8000ddb8:	00100613          	li	a2,1
    8000ddbc:	000d0693          	mv	a3,s10
    8000ddc0:	b2c798e3          	bne	a5,a2,8000d8f0 <_vfiprintf_r+0x63c>
    8000ddc4:	00900793          	li	a5,9
    8000ddc8:	2d77e263          	bltu	a5,s7,8000e08c <_vfiprintf_r+0xdd8>
    8000ddcc:	030b8b9b          	addiw	s7,s7,48
    8000ddd0:	0d710da3          	sb	s7,219(sp)
    8000ddd4:	00068d13          	mv	s10,a3
    8000ddd8:	00100a13          	li	s4,1
    8000dddc:	0db10c13          	addi	s8,sp,219
    8000dde0:	98dff06f          	j	8000d76c <_vfiprintf_r+0x4b8>
    8000dde4:	01000513          	li	a0,16
    8000dde8:	0bc55863          	bge	a0,t3,8000de98 <_vfiprintf_r+0xbe4>
    8000ddec:	05b13423          	sd	s11,72(sp)
    8000ddf0:	01000f93          	li	t6,16
    8000ddf4:	000a0d93          	mv	s11,s4
    8000ddf8:	00700293          	li	t0,7
    8000ddfc:	00040a13          	mv	s4,s0
    8000de00:	03e13c23          	sd	t5,56(sp)
    8000de04:	05d13023          	sd	t4,64(sp)
    8000de08:	000e0413          	mv	s0,t3
    8000de0c:	01c0006f          	j	8000de28 <_vfiprintf_r+0xb74>
    8000de10:	0026861b          	addiw	a2,a3,2
    8000de14:	01070713          	addi	a4,a4,16
    8000de18:	00050693          	mv	a3,a0
    8000de1c:	ff04041b          	addiw	s0,s0,-16
    8000de20:	048fde63          	bge	t6,s0,8000de7c <_vfiprintf_r+0xbc8>
    8000de24:	0016861b          	addiw	a2,a3,1
    8000de28:	01078793          	addi	a5,a5,16
    8000de2c:	01673023          	sd	s6,0(a4)
    8000de30:	01f73423          	sd	t6,8(a4)
    8000de34:	06f13823          	sd	a5,112(sp)
    8000de38:	0006051b          	sext.w	a0,a2
    8000de3c:	06c12423          	sw	a2,104(sp)
    8000de40:	fca2d8e3          	bge	t0,a0,8000de10 <_vfiprintf_r+0xb5c>
    8000de44:	08078063          	beqz	a5,8000dec4 <_vfiprintf_r+0xc10>
    8000de48:	06010613          	addi	a2,sp,96
    8000de4c:	00098593          	mv	a1,s3
    8000de50:	000a8513          	mv	a0,s5
    8000de54:	b48ff0ef          	jal	ra,8000d19c <_svfprintf_r+0x2580>
    8000de58:	fe051063          	bnez	a0,8000d638 <_vfiprintf_r+0x384>
    8000de5c:	06812683          	lw	a3,104(sp)
    8000de60:	01000f93          	li	t6,16
    8000de64:	ff04041b          	addiw	s0,s0,-16
    8000de68:	07013783          	ld	a5,112(sp)
    8000de6c:	00048713          	mv	a4,s1
    8000de70:	0016861b          	addiw	a2,a3,1
    8000de74:	00700293          	li	t0,7
    8000de78:	fa8fc6e3          	blt	t6,s0,8000de24 <_vfiprintf_r+0xb70>
    8000de7c:	00040e13          	mv	t3,s0
    8000de80:	03813f03          	ld	t5,56(sp)
    8000de84:	000a0413          	mv	s0,s4
    8000de88:	04013e83          	ld	t4,64(sp)
    8000de8c:	000d8a13          	mv	s4,s11
    8000de90:	04813d83          	ld	s11,72(sp)
    8000de94:	00060593          	mv	a1,a2
    8000de98:	01c787b3          	add	a5,a5,t3
    8000de9c:	01673023          	sd	s6,0(a4)
    8000dea0:	01c73423          	sd	t3,8(a4)
    8000dea4:	06f13823          	sd	a5,112(sp)
    8000dea8:	06b12423          	sw	a1,104(sp)
    8000deac:	00700693          	li	a3,7
    8000deb0:	ecb6c6e3          	blt	a3,a1,8000dd7c <_vfiprintf_r+0xac8>
    8000deb4:	01070713          	addi	a4,a4,16
    8000deb8:	0015861b          	addiw	a2,a1,1
    8000debc:	00058693          	mv	a3,a1
    8000dec0:	e4cff06f          	j	8000d50c <_vfiprintf_r+0x258>
    8000dec4:	00000693          	li	a3,0
    8000dec8:	00100613          	li	a2,1
    8000decc:	00048713          	mv	a4,s1
    8000ded0:	f4dff06f          	j	8000de1c <_vfiprintf_r+0xb68>
    8000ded4:	06012423          	sw	zero,104(sp)
    8000ded8:	004d7813          	andi	a6,s10,4
    8000dedc:	0c080e63          	beqz	a6,8000dfb8 <_vfiprintf_r+0xd04>
    8000dee0:	41740a3b          	subw	s4,s0,s7
    8000dee4:	0d405a63          	blez	s4,8000dfb8 <_vfiprintf_r+0xd04>
    8000dee8:	00048593          	mv	a1,s1
    8000deec:	01000713          	li	a4,16
    8000def0:	06812683          	lw	a3,104(sp)
    8000def4:	57475063          	bge	a4,s4,8000e454 <_vfiprintf_r+0x11a0>
    8000def8:	01000c93          	li	s9,16
    8000defc:	00700c13          	li	s8,7
    8000df00:	00058613          	mv	a2,a1
    8000df04:	0180006f          	j	8000df1c <_vfiprintf_r+0xc68>
    8000df08:	0026871b          	addiw	a4,a3,2
    8000df0c:	01060613          	addi	a2,a2,16
    8000df10:	00050693          	mv	a3,a0
    8000df14:	ff0a0a1b          	addiw	s4,s4,-16
    8000df18:	054cd863          	bge	s9,s4,8000df68 <_vfiprintf_r+0xcb4>
    8000df1c:	0016851b          	addiw	a0,a3,1
    8000df20:	01078793          	addi	a5,a5,16
    8000df24:	01663023          	sd	s6,0(a2)
    8000df28:	01963423          	sd	s9,8(a2)
    8000df2c:	06f13823          	sd	a5,112(sp)
    8000df30:	06a12423          	sw	a0,104(sp)
    8000df34:	fcac5ae3          	bge	s8,a0,8000df08 <_vfiprintf_r+0xc54>
    8000df38:	06078863          	beqz	a5,8000dfa8 <_vfiprintf_r+0xcf4>
    8000df3c:	06010613          	addi	a2,sp,96
    8000df40:	00098593          	mv	a1,s3
    8000df44:	000a8513          	mv	a0,s5
    8000df48:	a54ff0ef          	jal	ra,8000d19c <_svfprintf_r+0x2580>
    8000df4c:	ee051663          	bnez	a0,8000d638 <_vfiprintf_r+0x384>
    8000df50:	06812683          	lw	a3,104(sp)
    8000df54:	ff0a0a1b          	addiw	s4,s4,-16
    8000df58:	07013783          	ld	a5,112(sp)
    8000df5c:	00048613          	mv	a2,s1
    8000df60:	0016871b          	addiw	a4,a3,1
    8000df64:	fb4ccce3          	blt	s9,s4,8000df1c <_vfiprintf_r+0xc68>
    8000df68:	00060593          	mv	a1,a2
    8000df6c:	014787b3          	add	a5,a5,s4
    8000df70:	0165b023          	sd	s6,0(a1)
    8000df74:	0145b423          	sd	s4,8(a1)
    8000df78:	06f13823          	sd	a5,112(sp)
    8000df7c:	06e12423          	sw	a4,104(sp)
    8000df80:	00700693          	li	a3,7
    8000df84:	e8e6d063          	bge	a3,a4,8000d604 <_vfiprintf_r+0x350>
    8000df88:	02078863          	beqz	a5,8000dfb8 <_vfiprintf_r+0xd04>
    8000df8c:	06010613          	addi	a2,sp,96
    8000df90:	00098593          	mv	a1,s3
    8000df94:	000a8513          	mv	a0,s5
    8000df98:	a04ff0ef          	jal	ra,8000d19c <_svfprintf_r+0x2580>
    8000df9c:	e8051e63          	bnez	a0,8000d638 <_vfiprintf_r+0x384>
    8000dfa0:	07013783          	ld	a5,112(sp)
    8000dfa4:	e60ff06f          	j	8000d604 <_vfiprintf_r+0x350>
    8000dfa8:	00100713          	li	a4,1
    8000dfac:	00000693          	li	a3,0
    8000dfb0:	00048613          	mv	a2,s1
    8000dfb4:	f61ff06f          	j	8000df14 <_vfiprintf_r+0xc60>
    8000dfb8:	00040793          	mv	a5,s0
    8000dfbc:	01745463          	bge	s0,s7,8000dfc4 <_vfiprintf_r+0xd10>
    8000dfc0:	000b8793          	mv	a5,s7
    8000dfc4:	00013703          	ld	a4,0(sp)
    8000dfc8:	00e787bb          	addw	a5,a5,a4
    8000dfcc:	00f13023          	sd	a5,0(sp)
    8000dfd0:	e50ff06f          	j	8000d620 <_vfiprintf_r+0x36c>
    8000dfd4:	2c078a63          	beqz	a5,8000e2a8 <_vfiprintf_r+0xff4>
    8000dfd8:	06010613          	addi	a2,sp,96
    8000dfdc:	00098593          	mv	a1,s3
    8000dfe0:	000a8513          	mv	a0,s5
    8000dfe4:	9b8ff0ef          	jal	ra,8000d19c <_svfprintf_r+0x2580>
    8000dfe8:	e4051863          	bnez	a0,8000d638 <_vfiprintf_r+0x384>
    8000dfec:	06812603          	lw	a2,104(sp)
    8000dff0:	07013783          	ld	a5,112(sp)
    8000dff4:	0f010593          	addi	a1,sp,240
    8000dff8:	0016061b          	addiw	a2,a2,1
    8000dffc:	00048713          	mv	a4,s1
    8000e000:	db8ff06f          	j	8000d5b8 <_vfiprintf_r+0x304>
    8000e004:	06012423          	sw	zero,104(sp)
    8000e008:	00048713          	mv	a4,s1
    8000e00c:	c14ff06f          	j	8000d420 <_vfiprintf_r+0x16c>
    8000e010:	010d7793          	andi	a5,s10,16
    8000e014:	12079863          	bnez	a5,8000e144 <_vfiprintf_r+0xe90>
    8000e018:	00813683          	ld	a3,8(sp)
    8000e01c:	040d7793          	andi	a5,s10,64
    8000e020:	0006ab83          	lw	s7,0(a3)
    8000e024:	32078a63          	beqz	a5,8000e358 <_vfiprintf_r+0x10a4>
    8000e028:	030b9b93          	slli	s7,s7,0x30
    8000e02c:	030bdb93          	srli	s7,s7,0x30
    8000e030:	811ff06f          	j	8000d840 <_vfiprintf_r+0x58c>
    8000e034:	0106f793          	andi	a5,a3,16
    8000e038:	10079c63          	bnez	a5,8000e150 <_vfiprintf_r+0xe9c>
    8000e03c:	00813583          	ld	a1,8(sp)
    8000e040:	0406f793          	andi	a5,a3,64
    8000e044:	0005ab83          	lw	s7,0(a1)
    8000e048:	32078063          	beqz	a5,8000e368 <_vfiprintf_r+0x10b4>
    8000e04c:	030b9b93          	slli	s7,s7,0x30
    8000e050:	030bdb93          	srli	s7,s7,0x30
    8000e054:	00c13423          	sd	a2,8(sp)
    8000e058:	00100793          	li	a5,1
    8000e05c:	ff4ff06f          	j	8000d850 <_vfiprintf_r+0x59c>
    8000e060:	0f010593          	addi	a1,sp,240
    8000e064:	00100613          	li	a2,1
    8000e068:	00000693          	li	a3,0
    8000e06c:	00048713          	mv	a4,s1
    8000e070:	d38ff06f          	j	8000d5a8 <_vfiprintf_r+0x2f4>
    8000e074:	100f1063          	bnez	t5,8000e174 <_vfiprintf_r+0xec0>
    8000e078:	00000693          	li	a3,0
    8000e07c:	0f010593          	addi	a1,sp,240
    8000e080:	00100613          	li	a2,1
    8000e084:	00048713          	mv	a4,s1
    8000e088:	d20ff06f          	j	8000d5a8 <_vfiprintf_r+0x2f4>
    8000e08c:	0dc10a13          	addi	s4,sp,220
    8000e090:	02813883          	ld	a7,40(sp)
    8000e094:	4006fe93          	andi	t4,a3,1024
    8000e098:	00000593          	li	a1,0
    8000e09c:	000a0613          	mv	a2,s4
    8000e0a0:	00a00813          	li	a6,10
    8000e0a4:	00900e13          	li	t3,9
    8000e0a8:	0ff00d13          	li	s10,255
    8000e0ac:	0140006f          	j	8000e0c0 <_vfiprintf_r+0xe0c>
    8000e0b0:	030bd7b3          	divu	a5,s7,a6
    8000e0b4:	037e7a63          	bgeu	t3,s7,8000e0e8 <_vfiprintf_r+0xe34>
    8000e0b8:	00078b93          	mv	s7,a5
    8000e0bc:	000c0613          	mv	a2,s8
    8000e0c0:	fff60c13          	addi	s8,a2,-1
    8000e0c4:	0015859b          	addiw	a1,a1,1
    8000e0c8:	030bf7b3          	remu	a5,s7,a6
    8000e0cc:	0307879b          	addiw	a5,a5,48
    8000e0d0:	fef60fa3          	sb	a5,-1(a2)
    8000e0d4:	fc0e8ee3          	beqz	t4,8000e0b0 <_vfiprintf_r+0xdfc>
    8000e0d8:	0008c783          	lbu	a5,0(a7)
    8000e0dc:	fcb79ae3          	bne	a5,a1,8000e0b0 <_vfiprintf_r+0xdfc>
    8000e0e0:	fda788e3          	beq	a5,s10,8000e0b0 <_vfiprintf_r+0xdfc>
    8000e0e4:	177e6663          	bltu	t3,s7,8000e250 <_vfiprintf_r+0xf9c>
    8000e0e8:	03113423          	sd	a7,40(sp)
    8000e0ec:	418a0a3b          	subw	s4,s4,s8
    8000e0f0:	00068d13          	mv	s10,a3
    8000e0f4:	e78ff06f          	j	8000d76c <_vfiprintf_r+0x4b8>
    8000e0f8:	06010613          	addi	a2,sp,96
    8000e0fc:	00098593          	mv	a1,s3
    8000e100:	000a8513          	mv	a0,s5
    8000e104:	05d13023          	sd	t4,64(sp)
    8000e108:	03e13c23          	sd	t5,56(sp)
    8000e10c:	890ff0ef          	jal	ra,8000d19c <_svfprintf_r+0x2580>
    8000e110:	d2051463          	bnez	a0,8000d638 <_vfiprintf_r+0x384>
    8000e114:	06812683          	lw	a3,104(sp)
    8000e118:	07013783          	ld	a5,112(sp)
    8000e11c:	04013e83          	ld	t4,64(sp)
    8000e120:	03813f03          	ld	t5,56(sp)
    8000e124:	00048713          	mv	a4,s1
    8000e128:	0016861b          	addiw	a2,a3,1
    8000e12c:	be0ff06f          	j	8000d50c <_vfiprintf_r+0x258>
    8000e130:	0015061b          	addiw	a2,a0,1
    8000e134:	010e8593          	addi	a1,t4,16
    8000e138:	00050693          	mv	a3,a0
    8000e13c:	000e8713          	mv	a4,t4
    8000e140:	c70ff06f          	j	8000d5b0 <_vfiprintf_r+0x2fc>
    8000e144:	00813783          	ld	a5,8(sp)
    8000e148:	0007bb83          	ld	s7,0(a5)
    8000e14c:	ef4ff06f          	j	8000d840 <_vfiprintf_r+0x58c>
    8000e150:	00813783          	ld	a5,8(sp)
    8000e154:	00c13423          	sd	a2,8(sp)
    8000e158:	0007bb83          	ld	s7,0(a5)
    8000e15c:	00100793          	li	a5,1
    8000e160:	ef0ff06f          	j	8000d850 <_vfiprintf_r+0x59c>
    8000e164:	00813783          	ld	a5,8(sp)
    8000e168:	0007b783          	ld	a5,0(a5)
    8000e16c:	00078b93          	mv	s7,a5
    8000e170:	e64ff06f          	j	8000d7d4 <_vfiprintf_r+0x520>
    8000e174:	05810793          	addi	a5,sp,88
    8000e178:	0ef13023          	sd	a5,224(sp)
    8000e17c:	00200793          	li	a5,2
    8000e180:	0ef13423          	sd	a5,232(sp)
    8000e184:	0f010713          	addi	a4,sp,240
    8000e188:	00100693          	li	a3,1
    8000e18c:	c21ff06f          	j	8000ddac <_vfiprintf_r+0xaf8>
    8000e190:	00c13423          	sd	a2,8(sp)
    8000e194:	c31ff06f          	j	8000ddc4 <_vfiprintf_r+0xb10>
    8000e198:	000c0713          	mv	a4,s8
    8000e19c:	000d0693          	mv	a3,s10
    8000e1a0:	fb0ff06f          	j	8000d950 <_vfiprintf_r+0x69c>
    8000e1a4:	00813583          	ld	a1,8(sp)
    8000e1a8:	000237b7          	lui	a5,0x23
    8000e1ac:	ec078793          	addi	a5,a5,-320 # 22ec0 <_start-0x7ffdd15c>
    8000e1b0:	00f13c23          	sd	a5,24(sp)
    8000e1b4:	020d7793          	andi	a5,s10,32
    8000e1b8:	000c0713          	mv	a4,s8
    8000e1bc:	00858613          	addi	a2,a1,8
    8000e1c0:	06078263          	beqz	a5,8000e224 <_vfiprintf_r+0xf70>
    8000e1c4:	0005bb83          	ld	s7,0(a1)
    8000e1c8:	001d7793          	andi	a5,s10,1
    8000e1cc:	00078e63          	beqz	a5,8000e1e8 <_vfiprintf_r+0xf34>
    8000e1d0:	000b8c63          	beqz	s7,8000e1e8 <_vfiprintf_r+0xf34>
    8000e1d4:	002d6813          	ori	a6,s10,2
    8000e1d8:	03000793          	li	a5,48
    8000e1dc:	04f10c23          	sb	a5,88(sp)
    8000e1e0:	04d10ca3          	sb	a3,89(sp)
    8000e1e4:	00080d1b          	sext.w	s10,a6
    8000e1e8:	bffd7693          	andi	a3,s10,-1025
    8000e1ec:	0006869b          	sext.w	a3,a3
    8000e1f0:	00c13423          	sd	a2,8(sp)
    8000e1f4:	00200793          	li	a5,2
    8000e1f8:	e58ff06f          	j	8000d850 <_vfiprintf_r+0x59c>
    8000e1fc:	000c0713          	mv	a4,s8
    8000e200:	e2cff06f          	j	8000d82c <_vfiprintf_r+0x578>
    8000e204:	00813583          	ld	a1,8(sp)
    8000e208:	000237b7          	lui	a5,0x23
    8000e20c:	ed878793          	addi	a5,a5,-296 # 22ed8 <_start-0x7ffdd144>
    8000e210:	00f13c23          	sd	a5,24(sp)
    8000e214:	020d7793          	andi	a5,s10,32
    8000e218:	000c0713          	mv	a4,s8
    8000e21c:	00858613          	addi	a2,a1,8
    8000e220:	fa0792e3          	bnez	a5,8000e1c4 <_vfiprintf_r+0xf10>
    8000e224:	010d7793          	andi	a5,s10,16
    8000e228:	0a078063          	beqz	a5,8000e2c8 <_vfiprintf_r+0x1014>
    8000e22c:	00813783          	ld	a5,8(sp)
    8000e230:	0007bb83          	ld	s7,0(a5)
    8000e234:	f95ff06f          	j	8000e1c8 <_vfiprintf_r+0xf14>
    8000e238:	000c0513          	mv	a0,s8
    8000e23c:	d50f30ef          	jal	ra,8000178c <strlen>
    8000e240:	03813703          	ld	a4,56(sp)
    8000e244:	00050a1b          	sext.w	s4,a0
    8000e248:	00000c93          	li	s9,0
    8000e24c:	d20ff06f          	j	8000d76c <_vfiprintf_r+0x4b8>
    8000e250:	02013783          	ld	a5,32(sp)
    8000e254:	03013583          	ld	a1,48(sp)
    8000e258:	05d13423          	sd	t4,72(sp)
    8000e25c:	40fc0c33          	sub	s8,s8,a5
    8000e260:	00078613          	mv	a2,a5
    8000e264:	000c0513          	mv	a0,s8
    8000e268:	04e13023          	sd	a4,64(sp)
    8000e26c:	03113c23          	sd	a7,56(sp)
    8000e270:	02d13423          	sd	a3,40(sp)
    8000e274:	905fc0ef          	jal	ra,8000ab78 <strncpy>
    8000e278:	03813883          	ld	a7,56(sp)
    8000e27c:	00a00813          	li	a6,10
    8000e280:	030bd7b3          	divu	a5,s7,a6
    8000e284:	0018c603          	lbu	a2,1(a7)
    8000e288:	02813683          	ld	a3,40(sp)
    8000e28c:	04013703          	ld	a4,64(sp)
    8000e290:	00c03633          	snez	a2,a2
    8000e294:	04813e83          	ld	t4,72(sp)
    8000e298:	00000593          	li	a1,0
    8000e29c:	00c888b3          	add	a7,a7,a2
    8000e2a0:	00900e13          	li	t3,9
    8000e2a4:	e15ff06f          	j	8000e0b8 <_vfiprintf_r+0xe04>
    8000e2a8:	00100713          	li	a4,1
    8000e2ac:	000a0793          	mv	a5,s4
    8000e2b0:	0f813023          	sd	s8,224(sp)
    8000e2b4:	0f413423          	sd	s4,232(sp)
    8000e2b8:	07413823          	sd	s4,112(sp)
    8000e2bc:	06e12423          	sw	a4,104(sp)
    8000e2c0:	0f010593          	addi	a1,sp,240
    8000e2c4:	b30ff06f          	j	8000d5f4 <_vfiprintf_r+0x340>
    8000e2c8:	00813583          	ld	a1,8(sp)
    8000e2cc:	040d7793          	andi	a5,s10,64
    8000e2d0:	0005ab83          	lw	s7,0(a1)
    8000e2d4:	0c078263          	beqz	a5,8000e398 <_vfiprintf_r+0x10e4>
    8000e2d8:	030b9b93          	slli	s7,s7,0x30
    8000e2dc:	030bdb93          	srli	s7,s7,0x30
    8000e2e0:	ee9ff06f          	j	8000e1c8 <_vfiprintf_r+0xf14>
    8000e2e4:	000d0693          	mv	a3,s10
    8000e2e8:	00c13423          	sd	a2,8(sp)
    8000e2ec:	ad9ff06f          	j	8000ddc4 <_vfiprintf_r+0xb10>
    8000e2f0:	00100693          	li	a3,1
    8000e2f4:	16d78463          	beq	a5,a3,8000e45c <_vfiprintf_r+0x11a8>
    8000e2f8:	00200693          	li	a3,2
    8000e2fc:	82d78ae3          	beq	a5,a3,8000db30 <_vfiprintf_r+0x87c>
    8000e300:	000d0693          	mv	a3,s10
    8000e304:	df4ff06f          	j	8000d8f8 <_vfiprintf_r+0x644>
    8000e308:	200d6d13          	ori	s10,s10,512
    8000e30c:	001dc683          	lbu	a3,1(s11)
    8000e310:	000d0d1b          	sext.w	s10,s10
    8000e314:	001d8d93          	addi	s11,s11,1
    8000e318:	940ff06f          	j	8000d458 <_vfiprintf_r+0x1a4>
    8000e31c:	020d6d13          	ori	s10,s10,32
    8000e320:	001dc683          	lbu	a3,1(s11)
    8000e324:	000d0d1b          	sext.w	s10,s10
    8000e328:	001d8d93          	addi	s11,s11,1
    8000e32c:	92cff06f          	j	8000d458 <_vfiprintf_r+0x1a4>
    8000e330:	00040993          	mv	s3,s0
    8000e334:	b04ff06f          	j	8000d638 <_vfiprintf_r+0x384>
    8000e338:	00600793          	li	a5,6
    8000e33c:	000c8a1b          	sext.w	s4,s9
    8000e340:	0997e263          	bltu	a5,s9,8000e3c4 <_vfiprintf_r+0x1110>
    8000e344:	00023337          	lui	t1,0x23
    8000e348:	000a0b93          	mv	s7,s4
    8000e34c:	00d13423          	sd	a3,8(sp)
    8000e350:	ef030c13          	addi	s8,t1,-272 # 22ef0 <_start-0x7ffdd12c>
    8000e354:	988ff06f          	j	8000d4dc <_vfiprintf_r+0x228>
    8000e358:	200d7793          	andi	a5,s10,512
    8000e35c:	0a078e63          	beqz	a5,8000e418 <_vfiprintf_r+0x1164>
    8000e360:	0ffbfb93          	andi	s7,s7,255
    8000e364:	cdcff06f          	j	8000d840 <_vfiprintf_r+0x58c>
    8000e368:	2006f793          	andi	a5,a3,512
    8000e36c:	08078c63          	beqz	a5,8000e404 <_vfiprintf_r+0x1150>
    8000e370:	0ffbfb93          	andi	s7,s7,255
    8000e374:	00c13423          	sd	a2,8(sp)
    8000e378:	00100793          	li	a5,1
    8000e37c:	cd4ff06f          	j	8000d850 <_vfiprintf_r+0x59c>
    8000e380:	200d7793          	andi	a5,s10,512
    8000e384:	06078863          	beqz	a5,8000e3f4 <_vfiprintf_r+0x1140>
    8000e388:	00813783          	ld	a5,8(sp)
    8000e38c:	00078b83          	lb	s7,0(a5)
    8000e390:	000b8793          	mv	a5,s7
    8000e394:	c40ff06f          	j	8000d7d4 <_vfiprintf_r+0x520>
    8000e398:	200d7793          	andi	a5,s10,512
    8000e39c:	08078463          	beqz	a5,8000e424 <_vfiprintf_r+0x1170>
    8000e3a0:	0ffbfb93          	andi	s7,s7,255
    8000e3a4:	e25ff06f          	j	8000e1c8 <_vfiprintf_r+0xf14>
    8000e3a8:	00058693          	mv	a3,a1
    8000e3ac:	92dff06f          	j	8000dcd8 <_vfiprintf_r+0xa24>
    8000e3b0:	0f010593          	addi	a1,sp,240
    8000e3b4:	00100613          	li	a2,1
    8000e3b8:	00000693          	li	a3,0
    8000e3bc:	00048713          	mv	a4,s1
    8000e3c0:	9f0ff06f          	j	8000d5b0 <_vfiprintf_r+0x2fc>
    8000e3c4:	00600a13          	li	s4,6
    8000e3c8:	f7dff06f          	j	8000e344 <_vfiprintf_r+0x1090>
    8000e3cc:	05710793          	addi	a5,sp,87
    8000e3d0:	0ef13023          	sd	a5,224(sp)
    8000e3d4:	00100793          	li	a5,1
    8000e3d8:	0ef13423          	sd	a5,232(sp)
    8000e3dc:	0f010593          	addi	a1,sp,240
    8000e3e0:	00100613          	li	a2,1
    8000e3e4:	958ff06f          	j	8000d53c <_vfiprintf_r+0x288>
    8000e3e8:	00013783          	ld	a5,0(sp)
    8000e3ec:	00f69023          	sh	a5,0(a3)
    8000e3f0:	fc1fe06f          	j	8000d3b0 <_vfiprintf_r+0xfc>
    8000e3f4:	00813783          	ld	a5,8(sp)
    8000e3f8:	0007ab83          	lw	s7,0(a5)
    8000e3fc:	000b8793          	mv	a5,s7
    8000e400:	bd4ff06f          	j	8000d7d4 <_vfiprintf_r+0x520>
    8000e404:	020b9b93          	slli	s7,s7,0x20
    8000e408:	020bdb93          	srli	s7,s7,0x20
    8000e40c:	00c13423          	sd	a2,8(sp)
    8000e410:	00100793          	li	a5,1
    8000e414:	c3cff06f          	j	8000d850 <_vfiprintf_r+0x59c>
    8000e418:	020b9b93          	slli	s7,s7,0x20
    8000e41c:	020bdb93          	srli	s7,s7,0x20
    8000e420:	c20ff06f          	j	8000d840 <_vfiprintf_r+0x58c>
    8000e424:	020b9b93          	slli	s7,s7,0x20
    8000e428:	020bdb93          	srli	s7,s7,0x20
    8000e42c:	d9dff06f          	j	8000e1c8 <_vfiprintf_r+0xf14>
    8000e430:	06010613          	addi	a2,sp,96
    8000e434:	00098593          	mv	a1,s3
    8000e438:	000a8513          	mv	a0,s5
    8000e43c:	d61fe0ef          	jal	ra,8000d19c <_svfprintf_r+0x2580>
    8000e440:	9f8ff06f          	j	8000d638 <_vfiprintf_r+0x384>
    8000e444:	000c8a13          	mv	s4,s9
    8000e448:	00d13423          	sd	a3,8(sp)
    8000e44c:	00000c93          	li	s9,0
    8000e450:	b1cff06f          	j	8000d76c <_vfiprintf_r+0x4b8>
    8000e454:	0016871b          	addiw	a4,a3,1
    8000e458:	b15ff06f          	j	8000df6c <_vfiprintf_r+0xcb8>
    8000e45c:	000d0693          	mv	a3,s10
    8000e460:	96dff06f          	j	8000ddcc <_vfiprintf_r+0xb18>
    8000e464:	fff00793          	li	a5,-1
    8000e468:	00f13023          	sd	a5,0(sp)
    8000e46c:	9d8ff06f          	j	8000d644 <_vfiprintf_r+0x390>
    8000e470:	00058e93          	mv	t4,a1
    8000e474:	00060513          	mv	a0,a2
    8000e478:	f90ff06f          	j	8000dc08 <_vfiprintf_r+0x954>
    8000e47c:	00f6a023          	sw	a5,0(a3)
    8000e480:	f31fe06f          	j	8000d3b0 <_vfiprintf_r+0xfc>
    8000e484:	00813703          	ld	a4,8(sp)
    8000e488:	00072683          	lw	a3,0(a4)
    8000e48c:	00870613          	addi	a2,a4,8
    8000e490:	00068c9b          	sext.w	s9,a3
    8000e494:	0006d463          	bgez	a3,8000e49c <_vfiprintf_r+0x11e8>
    8000e498:	fff00c93          	li	s9,-1
    8000e49c:	001dc683          	lbu	a3,1(s11)
    8000e4a0:	00c13423          	sd	a2,8(sp)
    8000e4a4:	00078d93          	mv	s11,a5
    8000e4a8:	fb1fe06f          	j	8000d458 <_vfiprintf_r+0x1a4>

000000008000e4ac <vfiprintf>:
    8000e4ac:	00050793          	mv	a5,a0
    8000e4b0:	8401b503          	ld	a0,-1984(gp) # 80015160 <_impure_ptr>
    8000e4b4:	00060693          	mv	a3,a2
    8000e4b8:	00058613          	mv	a2,a1
    8000e4bc:	00078593          	mv	a1,a5
    8000e4c0:	df5fe06f          	j	8000d2b4 <_vfiprintf_r>
    8000e4c4:	0105d783          	lhu	a5,16(a1)
    8000e4c8:	0ac5ae03          	lw	t3,172(a1)
    8000e4cc:	0125d303          	lhu	t1,18(a1)
    8000e4d0:	0305b883          	ld	a7,48(a1)
    8000e4d4:	0405b803          	ld	a6,64(a1)
    8000e4d8:	b3010113          	addi	sp,sp,-1232
    8000e4dc:	ffd7f793          	andi	a5,a5,-3
    8000e4e0:	40000713          	li	a4,1024
    8000e4e4:	4c813023          	sd	s0,1216(sp)
    8000e4e8:	00f11823          	sh	a5,16(sp)
    8000e4ec:	00058413          	mv	s0,a1
    8000e4f0:	0b010793          	addi	a5,sp,176
    8000e4f4:	00010593          	mv	a1,sp
    8000e4f8:	4a913c23          	sd	s1,1208(sp)
    8000e4fc:	4b213823          	sd	s2,1200(sp)
    8000e500:	4c113423          	sd	ra,1224(sp)
    8000e504:	00050913          	mv	s2,a0
    8000e508:	0bc12623          	sw	t3,172(sp)
    8000e50c:	00611923          	sh	t1,18(sp)
    8000e510:	03113823          	sd	a7,48(sp)
    8000e514:	05013023          	sd	a6,64(sp)
    8000e518:	00f13023          	sd	a5,0(sp)
    8000e51c:	00f13c23          	sd	a5,24(sp)
    8000e520:	00e12623          	sw	a4,12(sp)
    8000e524:	02e12023          	sw	a4,32(sp)
    8000e528:	02012423          	sw	zero,40(sp)
    8000e52c:	d89fe0ef          	jal	ra,8000d2b4 <_vfiprintf_r>
    8000e530:	00050493          	mv	s1,a0
    8000e534:	02055c63          	bgez	a0,8000e56c <vfiprintf+0xc0>
    8000e538:	01015783          	lhu	a5,16(sp)
    8000e53c:	0407f793          	andi	a5,a5,64
    8000e540:	00078863          	beqz	a5,8000e550 <vfiprintf+0xa4>
    8000e544:	01045783          	lhu	a5,16(s0)
    8000e548:	0407e793          	ori	a5,a5,64
    8000e54c:	00f41823          	sh	a5,16(s0)
    8000e550:	4c813083          	ld	ra,1224(sp)
    8000e554:	4c013403          	ld	s0,1216(sp)
    8000e558:	4b013903          	ld	s2,1200(sp)
    8000e55c:	00048513          	mv	a0,s1
    8000e560:	4b813483          	ld	s1,1208(sp)
    8000e564:	4d010113          	addi	sp,sp,1232
    8000e568:	00008067          	ret
    8000e56c:	00010593          	mv	a1,sp
    8000e570:	00090513          	mv	a0,s2
    8000e574:	848f60ef          	jal	ra,800045bc <_fflush_r>
    8000e578:	fc0500e3          	beqz	a0,8000e538 <vfiprintf+0x8c>
    8000e57c:	fff00493          	li	s1,-1
    8000e580:	fb9ff06f          	j	8000e538 <vfiprintf+0x8c>

000000008000e584 <_wctomb_r>:
    8000e584:	000257b7          	lui	a5,0x25
    8000e588:	8487b783          	ld	a5,-1976(a5) # 24848 <_start-0x7ffdb7d4>
    8000e58c:	00078067          	jr	a5

000000008000e590 <__ascii_wctomb>:
    8000e590:	0006079b          	sext.w	a5,a2
    8000e594:	02058463          	beqz	a1,8000e5bc <__ascii_wctomb+0x2c>
    8000e598:	0ff00713          	li	a4,255
    8000e59c:	00f76863          	bltu	a4,a5,8000e5ac <__ascii_wctomb+0x1c>
    8000e5a0:	00c58023          	sb	a2,0(a1)
    8000e5a4:	00100513          	li	a0,1
    8000e5a8:	00008067          	ret
    8000e5ac:	08a00793          	li	a5,138
    8000e5b0:	00f52023          	sw	a5,0(a0)
    8000e5b4:	fff00513          	li	a0,-1
    8000e5b8:	00008067          	ret
    8000e5bc:	00000513          	li	a0,0
    8000e5c0:	00008067          	ret

000000008000e5c4 <_write_r>:
    8000e5c4:	fe010113          	addi	sp,sp,-32
    8000e5c8:	00058713          	mv	a4,a1
    8000e5cc:	00813823          	sd	s0,16(sp)
    8000e5d0:	00913423          	sd	s1,8(sp)
    8000e5d4:	00060593          	mv	a1,a2
    8000e5d8:	00050413          	mv	s0,a0
    8000e5dc:	00068613          	mv	a2,a3
    8000e5e0:	00070513          	mv	a0,a4
    8000e5e4:	00113c23          	sd	ra,24(sp)
    8000e5e8:	8c01a423          	sw	zero,-1848(gp) # 800151e8 <errno>
    8000e5ec:	5bc020ef          	jal	ra,80010ba8 <_write>
    8000e5f0:	fff00793          	li	a5,-1
    8000e5f4:	00f50c63          	beq	a0,a5,8000e60c <_write_r+0x48>
    8000e5f8:	01813083          	ld	ra,24(sp)
    8000e5fc:	01013403          	ld	s0,16(sp)
    8000e600:	00813483          	ld	s1,8(sp)
    8000e604:	02010113          	addi	sp,sp,32
    8000e608:	00008067          	ret
    8000e60c:	8c81a783          	lw	a5,-1848(gp) # 800151e8 <errno>
    8000e610:	fe0784e3          	beqz	a5,8000e5f8 <_write_r+0x34>
    8000e614:	01813083          	ld	ra,24(sp)
    8000e618:	00f42023          	sw	a5,0(s0)
    8000e61c:	01013403          	ld	s0,16(sp)
    8000e620:	00813483          	ld	s1,8(sp)
    8000e624:	02010113          	addi	sp,sp,32
    8000e628:	00008067          	ret

000000008000e62c <__assert_func>:
    8000e62c:	8401b703          	ld	a4,-1984(gp) # 80015160 <_impure_ptr>
    8000e630:	ff010113          	addi	sp,sp,-16
    8000e634:	00068793          	mv	a5,a3
    8000e638:	00060813          	mv	a6,a2
    8000e63c:	00113423          	sd	ra,8(sp)
    8000e640:	01873883          	ld	a7,24(a4)
    8000e644:	00050693          	mv	a3,a0
    8000e648:	00058713          	mv	a4,a1
    8000e64c:	00078613          	mv	a2,a5
    8000e650:	02080063          	beqz	a6,8000e670 <__assert_func+0x44>
    8000e654:	000247b7          	lui	a5,0x24
    8000e658:	89878793          	addi	a5,a5,-1896 # 23898 <_start-0x7ffdc784>
    8000e65c:	000245b7          	lui	a1,0x24
    8000e660:	8a858593          	addi	a1,a1,-1880 # 238a8 <_start-0x7ffdc774>
    8000e664:	00088513          	mv	a0,a7
    8000e668:	328000ef          	jal	ra,8000e990 <fiprintf>
    8000e66c:	349010ef          	jal	ra,800101b4 <abort>
    8000e670:	00023837          	lui	a6,0x23
    8000e674:	ed080793          	addi	a5,a6,-304 # 22ed0 <_start-0x7ffdd14c>
    8000e678:	ed080813          	addi	a6,a6,-304
    8000e67c:	fe1ff06f          	j	8000e65c <__assert_func+0x30>

000000008000e680 <__assert>:
    8000e680:	ff010113          	addi	sp,sp,-16
    8000e684:	00060693          	mv	a3,a2
    8000e688:	00000613          	li	a2,0
    8000e68c:	00113423          	sd	ra,8(sp)
    8000e690:	f9dff0ef          	jal	ra,8000e62c <__assert_func>

000000008000e694 <atexit>:
    8000e694:	00050593          	mv	a1,a0
    8000e698:	00000693          	li	a3,0
    8000e69c:	00000613          	li	a2,0
    8000e6a0:	00000513          	li	a0,0
    8000e6a4:	3290106f          	j	800101cc <__register_exitproc>

000000008000e6a8 <_calloc_r>:
    8000e6a8:	02c585b3          	mul	a1,a1,a2
    8000e6ac:	ff010113          	addi	sp,sp,-16
    8000e6b0:	00813023          	sd	s0,0(sp)
    8000e6b4:	00113423          	sd	ra,8(sp)
    8000e6b8:	dc5f90ef          	jal	ra,8000847c <_malloc_r>
    8000e6bc:	00050413          	mv	s0,a0
    8000e6c0:	02050863          	beqz	a0,8000e6f0 <_calloc_r+0x48>
    8000e6c4:	ff853603          	ld	a2,-8(a0)
    8000e6c8:	04800713          	li	a4,72
    8000e6cc:	ffc67613          	andi	a2,a2,-4
    8000e6d0:	ff860613          	addi	a2,a2,-8
    8000e6d4:	06c76063          	bltu	a4,a2,8000e734 <_calloc_r+0x8c>
    8000e6d8:	02700693          	li	a3,39
    8000e6dc:	00050793          	mv	a5,a0
    8000e6e0:	02c6e263          	bltu	a3,a2,8000e704 <_calloc_r+0x5c>
    8000e6e4:	0007b023          	sd	zero,0(a5)
    8000e6e8:	0007b423          	sd	zero,8(a5)
    8000e6ec:	0007b823          	sd	zero,16(a5)
    8000e6f0:	00813083          	ld	ra,8(sp)
    8000e6f4:	00040513          	mv	a0,s0
    8000e6f8:	00013403          	ld	s0,0(sp)
    8000e6fc:	01010113          	addi	sp,sp,16
    8000e700:	00008067          	ret
    8000e704:	00053023          	sd	zero,0(a0)
    8000e708:	00053423          	sd	zero,8(a0)
    8000e70c:	03700793          	li	a5,55
    8000e710:	04c7f063          	bgeu	a5,a2,8000e750 <_calloc_r+0xa8>
    8000e714:	00053823          	sd	zero,16(a0)
    8000e718:	00053c23          	sd	zero,24(a0)
    8000e71c:	02050793          	addi	a5,a0,32
    8000e720:	fce612e3          	bne	a2,a4,8000e6e4 <_calloc_r+0x3c>
    8000e724:	02053023          	sd	zero,32(a0)
    8000e728:	03050793          	addi	a5,a0,48
    8000e72c:	02053423          	sd	zero,40(a0)
    8000e730:	fb5ff06f          	j	8000e6e4 <_calloc_r+0x3c>
    8000e734:	00000593          	li	a1,0
    8000e738:	b8df20ef          	jal	ra,800012c4 <memset>
    8000e73c:	00813083          	ld	ra,8(sp)
    8000e740:	00040513          	mv	a0,s0
    8000e744:	00013403          	ld	s0,0(sp)
    8000e748:	01010113          	addi	sp,sp,16
    8000e74c:	00008067          	ret
    8000e750:	01050793          	addi	a5,a0,16
    8000e754:	f91ff06f          	j	8000e6e4 <_calloc_r+0x3c>

000000008000e758 <_close_r>:
    8000e758:	fe010113          	addi	sp,sp,-32
    8000e75c:	00813823          	sd	s0,16(sp)
    8000e760:	00913423          	sd	s1,8(sp)
    8000e764:	00050413          	mv	s0,a0
    8000e768:	00058513          	mv	a0,a1
    8000e76c:	00113c23          	sd	ra,24(sp)
    8000e770:	8c01a423          	sw	zero,-1848(gp) # 800151e8 <errno>
    8000e774:	0e8020ef          	jal	ra,8001085c <_close>
    8000e778:	fff00793          	li	a5,-1
    8000e77c:	00f50c63          	beq	a0,a5,8000e794 <_close_r+0x3c>
    8000e780:	01813083          	ld	ra,24(sp)
    8000e784:	01013403          	ld	s0,16(sp)
    8000e788:	00813483          	ld	s1,8(sp)
    8000e78c:	02010113          	addi	sp,sp,32
    8000e790:	00008067          	ret
    8000e794:	8c81a783          	lw	a5,-1848(gp) # 800151e8 <errno>
    8000e798:	fe0784e3          	beqz	a5,8000e780 <_close_r+0x28>
    8000e79c:	01813083          	ld	ra,24(sp)
    8000e7a0:	00f42023          	sw	a5,0(s0)
    8000e7a4:	01013403          	ld	s0,16(sp)
    8000e7a8:	00813483          	ld	s1,8(sp)
    8000e7ac:	02010113          	addi	sp,sp,32
    8000e7b0:	00008067          	ret
    8000e7b4:	fe010113          	addi	sp,sp,-32
    8000e7b8:	00813823          	sd	s0,16(sp)
    8000e7bc:	00913423          	sd	s1,8(sp)
    8000e7c0:	01213023          	sd	s2,0(sp)
    8000e7c4:	00058413          	mv	s0,a1
    8000e7c8:	00113c23          	sd	ra,24(sp)
    8000e7cc:	00050493          	mv	s1,a0
    8000e7d0:	b89f50ef          	jal	ra,80004358 <__sflush_r>
    8000e7d4:	05043783          	ld	a5,80(s0)
    8000e7d8:	00050913          	mv	s2,a0
    8000e7dc:	00078a63          	beqz	a5,8000e7f0 <_close_r+0x98>
    8000e7e0:	03043583          	ld	a1,48(s0)
    8000e7e4:	00048513          	mv	a0,s1
    8000e7e8:	000780e7          	jalr	a5
    8000e7ec:	06054463          	bltz	a0,8000e854 <_close_r+0xfc>
    8000e7f0:	01045783          	lhu	a5,16(s0)
    8000e7f4:	0807f793          	andi	a5,a5,128
    8000e7f8:	06079663          	bnez	a5,8000e864 <_close_r+0x10c>
    8000e7fc:	05843583          	ld	a1,88(s0)
    8000e800:	00058c63          	beqz	a1,8000e818 <_close_r+0xc0>
    8000e804:	07440793          	addi	a5,s0,116
    8000e808:	00f58663          	beq	a1,a5,8000e814 <_close_r+0xbc>
    8000e80c:	00048513          	mv	a0,s1
    8000e810:	bb0f60ef          	jal	ra,80004bc0 <_free_r>
    8000e814:	04043c23          	sd	zero,88(s0)
    8000e818:	07843583          	ld	a1,120(s0)
    8000e81c:	00058863          	beqz	a1,8000e82c <_close_r+0xd4>
    8000e820:	00048513          	mv	a0,s1
    8000e824:	b9cf60ef          	jal	ra,80004bc0 <_free_r>
    8000e828:	06043c23          	sd	zero,120(s0)
    8000e82c:	9ccf60ef          	jal	ra,800049f8 <__sfp_lock_acquire>
    8000e830:	00041823          	sh	zero,16(s0)
    8000e834:	9c8f60ef          	jal	ra,800049fc <__sfp_lock_release>
    8000e838:	01813083          	ld	ra,24(sp)
    8000e83c:	01013403          	ld	s0,16(sp)
    8000e840:	00813483          	ld	s1,8(sp)
    8000e844:	00090513          	mv	a0,s2
    8000e848:	00013903          	ld	s2,0(sp)
    8000e84c:	02010113          	addi	sp,sp,32
    8000e850:	00008067          	ret
    8000e854:	01045783          	lhu	a5,16(s0)
    8000e858:	fff00913          	li	s2,-1
    8000e85c:	0807f793          	andi	a5,a5,128
    8000e860:	f8078ee3          	beqz	a5,8000e7fc <_close_r+0xa4>
    8000e864:	01843583          	ld	a1,24(s0)
    8000e868:	00048513          	mv	a0,s1
    8000e86c:	b54f60ef          	jal	ra,80004bc0 <_free_r>
    8000e870:	f8dff06f          	j	8000e7fc <_close_r+0xa4>

000000008000e874 <_fclose_r>:
    8000e874:	06058463          	beqz	a1,8000e8dc <_fclose_r+0x68>
    8000e878:	fe010113          	addi	sp,sp,-32
    8000e87c:	00813823          	sd	s0,16(sp)
    8000e880:	00113c23          	sd	ra,24(sp)
    8000e884:	00050413          	mv	s0,a0
    8000e888:	00050663          	beqz	a0,8000e894 <_fclose_r+0x20>
    8000e88c:	05052783          	lw	a5,80(a0)
    8000e890:	02078a63          	beqz	a5,8000e8c4 <_fclose_r+0x50>
    8000e894:	01059783          	lh	a5,16(a1)
    8000e898:	00079c63          	bnez	a5,8000e8b0 <_fclose_r+0x3c>
    8000e89c:	01813083          	ld	ra,24(sp)
    8000e8a0:	01013403          	ld	s0,16(sp)
    8000e8a4:	00000513          	li	a0,0
    8000e8a8:	02010113          	addi	sp,sp,32
    8000e8ac:	00008067          	ret
    8000e8b0:	00040513          	mv	a0,s0
    8000e8b4:	01013403          	ld	s0,16(sp)
    8000e8b8:	01813083          	ld	ra,24(sp)
    8000e8bc:	02010113          	addi	sp,sp,32
    8000e8c0:	ef5ff06f          	j	8000e7b4 <_close_r+0x5c>
    8000e8c4:	00b13423          	sd	a1,8(sp)
    8000e8c8:	920f60ef          	jal	ra,800049e8 <__sinit>
    8000e8cc:	00813583          	ld	a1,8(sp)
    8000e8d0:	01059783          	lh	a5,16(a1)
    8000e8d4:	fc0784e3          	beqz	a5,8000e89c <_fclose_r+0x28>
    8000e8d8:	fd9ff06f          	j	8000e8b0 <_fclose_r+0x3c>
    8000e8dc:	00000513          	li	a0,0
    8000e8e0:	00008067          	ret

000000008000e8e4 <fclose>:
    8000e8e4:	06050663          	beqz	a0,8000e950 <fclose+0x6c>
    8000e8e8:	fe010113          	addi	sp,sp,-32
    8000e8ec:	00813823          	sd	s0,16(sp)
    8000e8f0:	00050413          	mv	s0,a0
    8000e8f4:	8401b503          	ld	a0,-1984(gp) # 80015160 <_impure_ptr>
    8000e8f8:	00113c23          	sd	ra,24(sp)
    8000e8fc:	00050663          	beqz	a0,8000e908 <fclose+0x24>
    8000e900:	05052783          	lw	a5,80(a0)
    8000e904:	02078a63          	beqz	a5,8000e938 <fclose+0x54>
    8000e908:	01041783          	lh	a5,16(s0)
    8000e90c:	00079c63          	bnez	a5,8000e924 <fclose+0x40>
    8000e910:	01813083          	ld	ra,24(sp)
    8000e914:	01013403          	ld	s0,16(sp)
    8000e918:	00000513          	li	a0,0
    8000e91c:	02010113          	addi	sp,sp,32
    8000e920:	00008067          	ret
    8000e924:	00040593          	mv	a1,s0
    8000e928:	01013403          	ld	s0,16(sp)
    8000e92c:	01813083          	ld	ra,24(sp)
    8000e930:	02010113          	addi	sp,sp,32
    8000e934:	e81ff06f          	j	8000e7b4 <_close_r+0x5c>
    8000e938:	00a13423          	sd	a0,8(sp)
    8000e93c:	8acf60ef          	jal	ra,800049e8 <__sinit>
    8000e940:	01041783          	lh	a5,16(s0)
    8000e944:	00813503          	ld	a0,8(sp)
    8000e948:	fc0784e3          	beqz	a5,8000e910 <fclose+0x2c>
    8000e94c:	fd9ff06f          	j	8000e924 <fclose+0x40>
    8000e950:	00000513          	li	a0,0
    8000e954:	00008067          	ret

000000008000e958 <_fiprintf_r>:
    8000e958:	fb010113          	addi	sp,sp,-80
    8000e95c:	02810313          	addi	t1,sp,40
    8000e960:	02d13423          	sd	a3,40(sp)
    8000e964:	00030693          	mv	a3,t1
    8000e968:	00113c23          	sd	ra,24(sp)
    8000e96c:	02e13823          	sd	a4,48(sp)
    8000e970:	02f13c23          	sd	a5,56(sp)
    8000e974:	05013023          	sd	a6,64(sp)
    8000e978:	05113423          	sd	a7,72(sp)
    8000e97c:	00613423          	sd	t1,8(sp)
    8000e980:	935fe0ef          	jal	ra,8000d2b4 <_vfiprintf_r>
    8000e984:	01813083          	ld	ra,24(sp)
    8000e988:	05010113          	addi	sp,sp,80
    8000e98c:	00008067          	ret

000000008000e990 <fiprintf>:
    8000e990:	00050e13          	mv	t3,a0
    8000e994:	fb010113          	addi	sp,sp,-80
    8000e998:	8401b503          	ld	a0,-1984(gp) # 80015160 <_impure_ptr>
    8000e99c:	02010313          	addi	t1,sp,32
    8000e9a0:	02c13023          	sd	a2,32(sp)
    8000e9a4:	02d13423          	sd	a3,40(sp)
    8000e9a8:	00058613          	mv	a2,a1
    8000e9ac:	00030693          	mv	a3,t1
    8000e9b0:	000e0593          	mv	a1,t3
    8000e9b4:	00113c23          	sd	ra,24(sp)
    8000e9b8:	02e13823          	sd	a4,48(sp)
    8000e9bc:	02f13c23          	sd	a5,56(sp)
    8000e9c0:	05013023          	sd	a6,64(sp)
    8000e9c4:	05113423          	sd	a7,72(sp)
    8000e9c8:	00613423          	sd	t1,8(sp)
    8000e9cc:	8e9fe0ef          	jal	ra,8000d2b4 <_vfiprintf_r>
    8000e9d0:	01813083          	ld	ra,24(sp)
    8000e9d4:	05010113          	addi	sp,sp,80
    8000e9d8:	00008067          	ret

000000008000e9dc <__fputwc>:
    8000e9dc:	fb010113          	addi	sp,sp,-80
    8000e9e0:	04813023          	sd	s0,64(sp)
    8000e9e4:	03313423          	sd	s3,40(sp)
    8000e9e8:	01613823          	sd	s6,16(sp)
    8000e9ec:	04113423          	sd	ra,72(sp)
    8000e9f0:	02913c23          	sd	s1,56(sp)
    8000e9f4:	03213823          	sd	s2,48(sp)
    8000e9f8:	03413023          	sd	s4,32(sp)
    8000e9fc:	01513c23          	sd	s5,24(sp)
    8000ea00:	00050b13          	mv	s6,a0
    8000ea04:	00058993          	mv	s3,a1
    8000ea08:	00060413          	mv	s0,a2
    8000ea0c:	f88f90ef          	jal	ra,80008194 <__locale_mb_cur_max>
    8000ea10:	00100793          	li	a5,1
    8000ea14:	02f51063          	bne	a0,a5,8000ea34 <__fputwc+0x58>
    8000ea18:	fff9879b          	addiw	a5,s3,-1
    8000ea1c:	0fe00713          	li	a4,254
    8000ea20:	00f76a63          	bltu	a4,a5,8000ea34 <__fputwc+0x58>
    8000ea24:	0ff9f713          	andi	a4,s3,255
    8000ea28:	00e10423          	sb	a4,8(sp)
    8000ea2c:	00100913          	li	s2,1
    8000ea30:	02c0006f          	j	8000ea5c <__fputwc+0x80>
    8000ea34:	0a440693          	addi	a3,s0,164
    8000ea38:	00098613          	mv	a2,s3
    8000ea3c:	00810593          	addi	a1,sp,8
    8000ea40:	000b0513          	mv	a0,s6
    8000ea44:	668010ef          	jal	ra,800100ac <_wcrtomb_r>
    8000ea48:	fff00793          	li	a5,-1
    8000ea4c:	00050913          	mv	s2,a0
    8000ea50:	0af50263          	beq	a0,a5,8000eaf4 <__fputwc+0x118>
    8000ea54:	08050c63          	beqz	a0,8000eaec <__fputwc+0x110>
    8000ea58:	00814703          	lbu	a4,8(sp)
    8000ea5c:	00000493          	li	s1,0
    8000ea60:	fff00a13          	li	s4,-1
    8000ea64:	00a00a93          	li	s5,10
    8000ea68:	0280006f          	j	8000ea90 <__fputwc+0xb4>
    8000ea6c:	00043783          	ld	a5,0(s0)
    8000ea70:	00178693          	addi	a3,a5,1
    8000ea74:	00d43023          	sd	a3,0(s0)
    8000ea78:	00e78023          	sb	a4,0(a5)
    8000ea7c:	00148493          	addi	s1,s1,1 # ffffffff80000001 <t0.2038+0xfffffffefffc33b9>
    8000ea80:	00810793          	addi	a5,sp,8
    8000ea84:	009787b3          	add	a5,a5,s1
    8000ea88:	0724f263          	bgeu	s1,s2,8000eaec <__fputwc+0x110>
    8000ea8c:	0007c703          	lbu	a4,0(a5)
    8000ea90:	00c42783          	lw	a5,12(s0)
    8000ea94:	fff7879b          	addiw	a5,a5,-1
    8000ea98:	00f42623          	sw	a5,12(s0)
    8000ea9c:	fc07d8e3          	bgez	a5,8000ea6c <__fputwc+0x90>
    8000eaa0:	02842683          	lw	a3,40(s0)
    8000eaa4:	00070593          	mv	a1,a4
    8000eaa8:	00040613          	mv	a2,s0
    8000eaac:	000b0513          	mv	a0,s6
    8000eab0:	00d7c463          	blt	a5,a3,8000eab8 <__fputwc+0xdc>
    8000eab4:	fb571ce3          	bne	a4,s5,8000ea6c <__fputwc+0x90>
    8000eab8:	c74f50ef          	jal	ra,80003f2c <__swbuf_r>
    8000eabc:	fd4510e3          	bne	a0,s4,8000ea7c <__fputwc+0xa0>
    8000eac0:	fff00513          	li	a0,-1
    8000eac4:	04813083          	ld	ra,72(sp)
    8000eac8:	04013403          	ld	s0,64(sp)
    8000eacc:	03813483          	ld	s1,56(sp)
    8000ead0:	03013903          	ld	s2,48(sp)
    8000ead4:	02813983          	ld	s3,40(sp)
    8000ead8:	02013a03          	ld	s4,32(sp)
    8000eadc:	01813a83          	ld	s5,24(sp)
    8000eae0:	01013b03          	ld	s6,16(sp)
    8000eae4:	05010113          	addi	sp,sp,80
    8000eae8:	00008067          	ret
    8000eaec:	0009851b          	sext.w	a0,s3
    8000eaf0:	fd5ff06f          	j	8000eac4 <__fputwc+0xe8>
    8000eaf4:	01045783          	lhu	a5,16(s0)
    8000eaf8:	fff00513          	li	a0,-1
    8000eafc:	0407e793          	ori	a5,a5,64
    8000eb00:	00f41823          	sh	a5,16(s0)
    8000eb04:	fc1ff06f          	j	8000eac4 <__fputwc+0xe8>

000000008000eb08 <_fputwc_r>:
    8000eb08:	01061783          	lh	a5,16(a2)
    8000eb0c:	03279713          	slli	a4,a5,0x32
    8000eb10:	02074063          	bltz	a4,8000eb30 <_fputwc_r+0x28>
    8000eb14:	0ac62703          	lw	a4,172(a2)
    8000eb18:	000026b7          	lui	a3,0x2
    8000eb1c:	00d7e7b3          	or	a5,a5,a3
    8000eb20:	000026b7          	lui	a3,0x2
    8000eb24:	00d76733          	or	a4,a4,a3
    8000eb28:	00f61823          	sh	a5,16(a2)
    8000eb2c:	0ae62623          	sw	a4,172(a2)
    8000eb30:	eadff06f          	j	8000e9dc <__fputwc>

000000008000eb34 <fputwc>:
    8000eb34:	fe010113          	addi	sp,sp,-32
    8000eb38:	00813823          	sd	s0,16(sp)
    8000eb3c:	8401b403          	ld	s0,-1984(gp) # 80015160 <_impure_ptr>
    8000eb40:	00113c23          	sd	ra,24(sp)
    8000eb44:	00058613          	mv	a2,a1
    8000eb48:	00050593          	mv	a1,a0
    8000eb4c:	00040663          	beqz	s0,8000eb58 <fputwc+0x24>
    8000eb50:	05042783          	lw	a5,80(s0)
    8000eb54:	04078063          	beqz	a5,8000eb94 <fputwc+0x60>
    8000eb58:	01061783          	lh	a5,16(a2)
    8000eb5c:	03279713          	slli	a4,a5,0x32
    8000eb60:	02074063          	bltz	a4,8000eb80 <fputwc+0x4c>
    8000eb64:	0ac62703          	lw	a4,172(a2)
    8000eb68:	000026b7          	lui	a3,0x2
    8000eb6c:	00d7e7b3          	or	a5,a5,a3
    8000eb70:	000026b7          	lui	a3,0x2
    8000eb74:	00d76733          	or	a4,a4,a3
    8000eb78:	00f61823          	sh	a5,16(a2)
    8000eb7c:	0ae62623          	sw	a4,172(a2)
    8000eb80:	00040513          	mv	a0,s0
    8000eb84:	01013403          	ld	s0,16(sp)
    8000eb88:	01813083          	ld	ra,24(sp)
    8000eb8c:	02010113          	addi	sp,sp,32
    8000eb90:	e4dff06f          	j	8000e9dc <__fputwc>
    8000eb94:	00a13023          	sd	a0,0(sp)
    8000eb98:	00040513          	mv	a0,s0
    8000eb9c:	00c13423          	sd	a2,8(sp)
    8000eba0:	e49f50ef          	jal	ra,800049e8 <__sinit>
    8000eba4:	00813603          	ld	a2,8(sp)
    8000eba8:	00013583          	ld	a1,0(sp)
    8000ebac:	fadff06f          	j	8000eb58 <fputwc+0x24>

000000008000ebb0 <_fstat_r>:
    8000ebb0:	fe010113          	addi	sp,sp,-32
    8000ebb4:	00058713          	mv	a4,a1
    8000ebb8:	00813823          	sd	s0,16(sp)
    8000ebbc:	00913423          	sd	s1,8(sp)
    8000ebc0:	00050413          	mv	s0,a0
    8000ebc4:	00060593          	mv	a1,a2
    8000ebc8:	00070513          	mv	a0,a4
    8000ebcc:	00113c23          	sd	ra,24(sp)
    8000ebd0:	8c01a423          	sw	zero,-1848(gp) # 800151e8 <errno>
    8000ebd4:	525010ef          	jal	ra,800108f8 <_fstat>
    8000ebd8:	fff00793          	li	a5,-1
    8000ebdc:	00f50c63          	beq	a0,a5,8000ebf4 <_fstat_r+0x44>
    8000ebe0:	01813083          	ld	ra,24(sp)
    8000ebe4:	01013403          	ld	s0,16(sp)
    8000ebe8:	00813483          	ld	s1,8(sp)
    8000ebec:	02010113          	addi	sp,sp,32
    8000ebf0:	00008067          	ret
    8000ebf4:	8c81a783          	lw	a5,-1848(gp) # 800151e8 <errno>
    8000ebf8:	fe0784e3          	beqz	a5,8000ebe0 <_fstat_r+0x30>
    8000ebfc:	01813083          	ld	ra,24(sp)
    8000ec00:	00f42023          	sw	a5,0(s0)
    8000ec04:	01013403          	ld	s0,16(sp)
    8000ec08:	00813483          	ld	s1,8(sp)
    8000ec0c:	02010113          	addi	sp,sp,32
    8000ec10:	00008067          	ret

000000008000ec14 <_isatty_r>:
    8000ec14:	fe010113          	addi	sp,sp,-32
    8000ec18:	00813823          	sd	s0,16(sp)
    8000ec1c:	00913423          	sd	s1,8(sp)
    8000ec20:	00050413          	mv	s0,a0
    8000ec24:	00058513          	mv	a0,a1
    8000ec28:	00113c23          	sd	ra,24(sp)
    8000ec2c:	8c01a423          	sw	zero,-1848(gp) # 800151e8 <errno>
    8000ec30:	545010ef          	jal	ra,80010974 <_isatty>
    8000ec34:	fff00793          	li	a5,-1
    8000ec38:	00f50c63          	beq	a0,a5,8000ec50 <_isatty_r+0x3c>
    8000ec3c:	01813083          	ld	ra,24(sp)
    8000ec40:	01013403          	ld	s0,16(sp)
    8000ec44:	00813483          	ld	s1,8(sp)
    8000ec48:	02010113          	addi	sp,sp,32
    8000ec4c:	00008067          	ret
    8000ec50:	8c81a783          	lw	a5,-1848(gp) # 800151e8 <errno>
    8000ec54:	fe0784e3          	beqz	a5,8000ec3c <_isatty_r+0x28>
    8000ec58:	01813083          	ld	ra,24(sp)
    8000ec5c:	00f42023          	sw	a5,0(s0)
    8000ec60:	01013403          	ld	s0,16(sp)
    8000ec64:	00813483          	ld	s1,8(sp)
    8000ec68:	02010113          	addi	sp,sp,32
    8000ec6c:	00008067          	ret

000000008000ec70 <_lseek_r>:
    8000ec70:	fe010113          	addi	sp,sp,-32
    8000ec74:	00058713          	mv	a4,a1
    8000ec78:	00813823          	sd	s0,16(sp)
    8000ec7c:	00913423          	sd	s1,8(sp)
    8000ec80:	00060593          	mv	a1,a2
    8000ec84:	00050413          	mv	s0,a0
    8000ec88:	00068613          	mv	a2,a3
    8000ec8c:	00070513          	mv	a0,a4
    8000ec90:	00113c23          	sd	ra,24(sp)
    8000ec94:	8c01a423          	sw	zero,-1848(gp) # 800151e8 <errno>
    8000ec98:	541010ef          	jal	ra,800109d8 <_lseek>
    8000ec9c:	fff00793          	li	a5,-1
    8000eca0:	00f50c63          	beq	a0,a5,8000ecb8 <_lseek_r+0x48>
    8000eca4:	01813083          	ld	ra,24(sp)
    8000eca8:	01013403          	ld	s0,16(sp)
    8000ecac:	00813483          	ld	s1,8(sp)
    8000ecb0:	02010113          	addi	sp,sp,32
    8000ecb4:	00008067          	ret
    8000ecb8:	8c81a783          	lw	a5,-1848(gp) # 800151e8 <errno>
    8000ecbc:	fe0784e3          	beqz	a5,8000eca4 <_lseek_r+0x34>
    8000ecc0:	01813083          	ld	ra,24(sp)
    8000ecc4:	00f42023          	sw	a5,0(s0)
    8000ecc8:	01013403          	ld	s0,16(sp)
    8000eccc:	00813483          	ld	s1,8(sp)
    8000ecd0:	02010113          	addi	sp,sp,32
    8000ecd4:	00008067          	ret

000000008000ecd8 <_read_r>:
    8000ecd8:	fe010113          	addi	sp,sp,-32
    8000ecdc:	00058713          	mv	a4,a1
    8000ece0:	00813823          	sd	s0,16(sp)
    8000ece4:	00913423          	sd	s1,8(sp)
    8000ece8:	00060593          	mv	a1,a2
    8000ecec:	00050413          	mv	s0,a0
    8000ecf0:	00068613          	mv	a2,a3
    8000ecf4:	00070513          	mv	a0,a4
    8000ecf8:	00113c23          	sd	ra,24(sp)
    8000ecfc:	8c01a423          	sw	zero,-1848(gp) # 800151e8 <errno>
    8000ed00:	529010ef          	jal	ra,80010a28 <_read>
    8000ed04:	fff00793          	li	a5,-1
    8000ed08:	00f50c63          	beq	a0,a5,8000ed20 <_read_r+0x48>
    8000ed0c:	01813083          	ld	ra,24(sp)
    8000ed10:	01013403          	ld	s0,16(sp)
    8000ed14:	00813483          	ld	s1,8(sp)
    8000ed18:	02010113          	addi	sp,sp,32
    8000ed1c:	00008067          	ret
    8000ed20:	8c81a783          	lw	a5,-1848(gp) # 800151e8 <errno>
    8000ed24:	fe0784e3          	beqz	a5,8000ed0c <_read_r+0x34>
    8000ed28:	01813083          	ld	ra,24(sp)
    8000ed2c:	00f42023          	sw	a5,0(s0)
    8000ed30:	01013403          	ld	s0,16(sp)
    8000ed34:	00813483          	ld	s1,8(sp)
    8000ed38:	02010113          	addi	sp,sp,32
    8000ed3c:	00008067          	ret

000000008000ed40 <cleanup_glue>:
    8000ed40:	fd010113          	addi	sp,sp,-48
    8000ed44:	01213823          	sd	s2,16(sp)
    8000ed48:	0005b903          	ld	s2,0(a1)
    8000ed4c:	02813023          	sd	s0,32(sp)
    8000ed50:	00913c23          	sd	s1,24(sp)
    8000ed54:	02113423          	sd	ra,40(sp)
    8000ed58:	01313423          	sd	s3,8(sp)
    8000ed5c:	01413023          	sd	s4,0(sp)
    8000ed60:	00058413          	mv	s0,a1
    8000ed64:	00050493          	mv	s1,a0
    8000ed68:	04090263          	beqz	s2,8000edac <cleanup_glue+0x6c>
    8000ed6c:	00093983          	ld	s3,0(s2)
    8000ed70:	02098863          	beqz	s3,8000eda0 <cleanup_glue+0x60>
    8000ed74:	0009ba03          	ld	s4,0(s3)
    8000ed78:	000a0e63          	beqz	s4,8000ed94 <cleanup_glue+0x54>
    8000ed7c:	000a3583          	ld	a1,0(s4)
    8000ed80:	00058463          	beqz	a1,8000ed88 <cleanup_glue+0x48>
    8000ed84:	fbdff0ef          	jal	ra,8000ed40 <cleanup_glue>
    8000ed88:	000a0593          	mv	a1,s4
    8000ed8c:	00048513          	mv	a0,s1
    8000ed90:	e31f50ef          	jal	ra,80004bc0 <_free_r>
    8000ed94:	00098593          	mv	a1,s3
    8000ed98:	00048513          	mv	a0,s1
    8000ed9c:	e25f50ef          	jal	ra,80004bc0 <_free_r>
    8000eda0:	00090593          	mv	a1,s2
    8000eda4:	00048513          	mv	a0,s1
    8000eda8:	e19f50ef          	jal	ra,80004bc0 <_free_r>
    8000edac:	00040593          	mv	a1,s0
    8000edb0:	02013403          	ld	s0,32(sp)
    8000edb4:	02813083          	ld	ra,40(sp)
    8000edb8:	01013903          	ld	s2,16(sp)
    8000edbc:	00813983          	ld	s3,8(sp)
    8000edc0:	00013a03          	ld	s4,0(sp)
    8000edc4:	00048513          	mv	a0,s1
    8000edc8:	01813483          	ld	s1,24(sp)
    8000edcc:	03010113          	addi	sp,sp,48
    8000edd0:	df1f506f          	j	80004bc0 <_free_r>

000000008000edd4 <_reclaim_reent>:
    8000edd4:	8401b783          	ld	a5,-1984(gp) # 80015160 <_impure_ptr>
    8000edd8:	10a78a63          	beq	a5,a0,8000eeec <_reclaim_reent+0x118>
    8000eddc:	07853583          	ld	a1,120(a0)
    8000ede0:	fd010113          	addi	sp,sp,-48
    8000ede4:	00913c23          	sd	s1,24(sp)
    8000ede8:	02113423          	sd	ra,40(sp)
    8000edec:	02813023          	sd	s0,32(sp)
    8000edf0:	01213823          	sd	s2,16(sp)
    8000edf4:	01313423          	sd	s3,8(sp)
    8000edf8:	00050493          	mv	s1,a0
    8000edfc:	04058063          	beqz	a1,8000ee3c <_reclaim_reent+0x68>
    8000ee00:	00000913          	li	s2,0
    8000ee04:	20000993          	li	s3,512
    8000ee08:	012587b3          	add	a5,a1,s2
    8000ee0c:	0007b403          	ld	s0,0(a5)
    8000ee10:	00040e63          	beqz	s0,8000ee2c <_reclaim_reent+0x58>
    8000ee14:	00040593          	mv	a1,s0
    8000ee18:	00043403          	ld	s0,0(s0)
    8000ee1c:	00048513          	mv	a0,s1
    8000ee20:	da1f50ef          	jal	ra,80004bc0 <_free_r>
    8000ee24:	fe0418e3          	bnez	s0,8000ee14 <_reclaim_reent+0x40>
    8000ee28:	0784b583          	ld	a1,120(s1)
    8000ee2c:	00890913          	addi	s2,s2,8
    8000ee30:	fd391ce3          	bne	s2,s3,8000ee08 <_reclaim_reent+0x34>
    8000ee34:	00048513          	mv	a0,s1
    8000ee38:	d89f50ef          	jal	ra,80004bc0 <_free_r>
    8000ee3c:	0604b583          	ld	a1,96(s1)
    8000ee40:	00058663          	beqz	a1,8000ee4c <_reclaim_reent+0x78>
    8000ee44:	00048513          	mv	a0,s1
    8000ee48:	d79f50ef          	jal	ra,80004bc0 <_free_r>
    8000ee4c:	1f84b403          	ld	s0,504(s1)
    8000ee50:	02040063          	beqz	s0,8000ee70 <_reclaim_reent+0x9c>
    8000ee54:	20048913          	addi	s2,s1,512
    8000ee58:	01240c63          	beq	s0,s2,8000ee70 <_reclaim_reent+0x9c>
    8000ee5c:	00040593          	mv	a1,s0
    8000ee60:	00043403          	ld	s0,0(s0)
    8000ee64:	00048513          	mv	a0,s1
    8000ee68:	d59f50ef          	jal	ra,80004bc0 <_free_r>
    8000ee6c:	fe8918e3          	bne	s2,s0,8000ee5c <_reclaim_reent+0x88>
    8000ee70:	0884b583          	ld	a1,136(s1)
    8000ee74:	00058663          	beqz	a1,8000ee80 <_reclaim_reent+0xac>
    8000ee78:	00048513          	mv	a0,s1
    8000ee7c:	d45f50ef          	jal	ra,80004bc0 <_free_r>
    8000ee80:	0504a783          	lw	a5,80(s1)
    8000ee84:	04078663          	beqz	a5,8000eed0 <_reclaim_reent+0xfc>
    8000ee88:	0584b783          	ld	a5,88(s1)
    8000ee8c:	00048513          	mv	a0,s1
    8000ee90:	000780e7          	jalr	a5
    8000ee94:	5204b403          	ld	s0,1312(s1)
    8000ee98:	02040c63          	beqz	s0,8000eed0 <_reclaim_reent+0xfc>
    8000ee9c:	00043583          	ld	a1,0(s0)
    8000eea0:	00058663          	beqz	a1,8000eeac <_reclaim_reent+0xd8>
    8000eea4:	00048513          	mv	a0,s1
    8000eea8:	e99ff0ef          	jal	ra,8000ed40 <cleanup_glue>
    8000eeac:	00040593          	mv	a1,s0
    8000eeb0:	02013403          	ld	s0,32(sp)
    8000eeb4:	02813083          	ld	ra,40(sp)
    8000eeb8:	01013903          	ld	s2,16(sp)
    8000eebc:	00813983          	ld	s3,8(sp)
    8000eec0:	00048513          	mv	a0,s1
    8000eec4:	01813483          	ld	s1,24(sp)
    8000eec8:	03010113          	addi	sp,sp,48
    8000eecc:	cf5f506f          	j	80004bc0 <_free_r>
    8000eed0:	02813083          	ld	ra,40(sp)
    8000eed4:	02013403          	ld	s0,32(sp)
    8000eed8:	01813483          	ld	s1,24(sp)
    8000eedc:	01013903          	ld	s2,16(sp)
    8000eee0:	00813983          	ld	s3,8(sp)
    8000eee4:	03010113          	addi	sp,sp,48
    8000eee8:	00008067          	ret
    8000eeec:	00008067          	ret

000000008000eef0 <__ssprint_r>:
    8000eef0:	01063783          	ld	a5,16(a2)
    8000eef4:	fb010113          	addi	sp,sp,-80
    8000eef8:	03413023          	sd	s4,32(sp)
    8000eefc:	04113423          	sd	ra,72(sp)
    8000ef00:	04813023          	sd	s0,64(sp)
    8000ef04:	02913c23          	sd	s1,56(sp)
    8000ef08:	03213823          	sd	s2,48(sp)
    8000ef0c:	03313423          	sd	s3,40(sp)
    8000ef10:	01513c23          	sd	s5,24(sp)
    8000ef14:	01613823          	sd	s6,16(sp)
    8000ef18:	01713423          	sd	s7,8(sp)
    8000ef1c:	01813023          	sd	s8,0(sp)
    8000ef20:	00060a13          	mv	s4,a2
    8000ef24:	10078c63          	beqz	a5,8000f03c <__ssprint_r+0x14c>
    8000ef28:	00050a93          	mv	s5,a0
    8000ef2c:	00063983          	ld	s3,0(a2)
    8000ef30:	0005b503          	ld	a0,0(a1)
    8000ef34:	00c5a403          	lw	s0,12(a1)
    8000ef38:	00058913          	mv	s2,a1
    8000ef3c:	00000b13          	li	s6,0
    8000ef40:	00000493          	li	s1,0
    8000ef44:	12048863          	beqz	s1,8000f074 <__ssprint_r+0x184>
    8000ef48:	00040c13          	mv	s8,s0
    8000ef4c:	0004879b          	sext.w	a5,s1
    8000ef50:	1284ea63          	bltu	s1,s0,8000f084 <__ssprint_r+0x194>
    8000ef54:	01095783          	lhu	a5,16(s2)
    8000ef58:	00048b9b          	sext.w	s7,s1
    8000ef5c:	4807f713          	andi	a4,a5,1152
    8000ef60:	0a070063          	beqz	a4,8000f000 <__ssprint_r+0x110>
    8000ef64:	02092683          	lw	a3,32(s2)
    8000ef68:	01893583          	ld	a1,24(s2)
    8000ef6c:	00148713          	addi	a4,s1,1
    8000ef70:	0016941b          	slliw	s0,a3,0x1
    8000ef74:	00d406bb          	addw	a3,s0,a3
    8000ef78:	40b50533          	sub	a0,a0,a1
    8000ef7c:	01f6d41b          	srliw	s0,a3,0x1f
    8000ef80:	00050b9b          	sext.w	s7,a0
    8000ef84:	00d4043b          	addw	s0,s0,a3
    8000ef88:	4014541b          	sraiw	s0,s0,0x1
    8000ef8c:	01770733          	add	a4,a4,s7
    8000ef90:	00e47663          	bgeu	s0,a4,8000ef9c <__ssprint_r+0xac>
    8000ef94:	0014841b          	addiw	s0,s1,1
    8000ef98:	00a4043b          	addw	s0,s0,a0
    8000ef9c:	4007f793          	andi	a5,a5,1024
    8000efa0:	0e078a63          	beqz	a5,8000f094 <__ssprint_r+0x1a4>
    8000efa4:	00040593          	mv	a1,s0
    8000efa8:	000a8513          	mv	a0,s5
    8000efac:	cd0f90ef          	jal	ra,8000847c <_malloc_r>
    8000efb0:	00050c13          	mv	s8,a0
    8000efb4:	10050063          	beqz	a0,8000f0b4 <__ssprint_r+0x1c4>
    8000efb8:	01893583          	ld	a1,24(s2)
    8000efbc:	000b8613          	mv	a2,s7
    8000efc0:	9e8f20ef          	jal	ra,800011a8 <memcpy>
    8000efc4:	01095783          	lhu	a5,16(s2)
    8000efc8:	b7f7f793          	andi	a5,a5,-1153
    8000efcc:	0807e793          	ori	a5,a5,128
    8000efd0:	00f91823          	sh	a5,16(s2)
    8000efd4:	017c0533          	add	a0,s8,s7
    8000efd8:	41740bbb          	subw	s7,s0,s7
    8000efdc:	0004879b          	sext.w	a5,s1
    8000efe0:	01893c23          	sd	s8,24(s2)
    8000efe4:	02892023          	sw	s0,32(s2)
    8000efe8:	01792623          	sw	s7,12(s2)
    8000efec:	00a93023          	sd	a0,0(s2)
    8000eff0:	00078413          	mv	s0,a5
    8000eff4:	00078b93          	mv	s7,a5
    8000eff8:	00078c13          	mv	s8,a5
    8000effc:	08f4e463          	bltu	s1,a5,8000f084 <__ssprint_r+0x194>
    8000f000:	00040613          	mv	a2,s0
    8000f004:	000b0593          	mv	a1,s6
    8000f008:	dc5f90ef          	jal	ra,80008dcc <memmove>
    8000f00c:	00c92603          	lw	a2,12(s2)
    8000f010:	00093503          	ld	a0,0(s2)
    8000f014:	010a3783          	ld	a5,16(s4)
    8000f018:	4086043b          	subw	s0,a2,s0
    8000f01c:	01850533          	add	a0,a0,s8
    8000f020:	00892623          	sw	s0,12(s2)
    8000f024:	00a93023          	sd	a0,0(s2)
    8000f028:	417787b3          	sub	a5,a5,s7
    8000f02c:	00fa3823          	sd	a5,16(s4)
    8000f030:	017b0b33          	add	s6,s6,s7
    8000f034:	417484b3          	sub	s1,s1,s7
    8000f038:	f00796e3          	bnez	a5,8000ef44 <__ssprint_r+0x54>
    8000f03c:	000a2423          	sw	zero,8(s4)
    8000f040:	00000513          	li	a0,0
    8000f044:	04813083          	ld	ra,72(sp)
    8000f048:	04013403          	ld	s0,64(sp)
    8000f04c:	03813483          	ld	s1,56(sp)
    8000f050:	03013903          	ld	s2,48(sp)
    8000f054:	02813983          	ld	s3,40(sp)
    8000f058:	02013a03          	ld	s4,32(sp)
    8000f05c:	01813a83          	ld	s5,24(sp)
    8000f060:	01013b03          	ld	s6,16(sp)
    8000f064:	00813b83          	ld	s7,8(sp)
    8000f068:	00013c03          	ld	s8,0(sp)
    8000f06c:	05010113          	addi	sp,sp,80
    8000f070:	00008067          	ret
    8000f074:	0009bb03          	ld	s6,0(s3)
    8000f078:	0089b483          	ld	s1,8(s3)
    8000f07c:	01098993          	addi	s3,s3,16
    8000f080:	ec5ff06f          	j	8000ef44 <__ssprint_r+0x54>
    8000f084:	00078413          	mv	s0,a5
    8000f088:	00078b93          	mv	s7,a5
    8000f08c:	00078c13          	mv	s8,a5
    8000f090:	f71ff06f          	j	8000f000 <__ssprint_r+0x110>
    8000f094:	00040613          	mv	a2,s0
    8000f098:	000a8513          	mv	a0,s5
    8000f09c:	92cfb0ef          	jal	ra,8000a1c8 <_realloc_r>
    8000f0a0:	00050c13          	mv	s8,a0
    8000f0a4:	f20518e3          	bnez	a0,8000efd4 <__ssprint_r+0xe4>
    8000f0a8:	01893583          	ld	a1,24(s2)
    8000f0ac:	000a8513          	mv	a0,s5
    8000f0b0:	b11f50ef          	jal	ra,80004bc0 <_free_r>
    8000f0b4:	00c00793          	li	a5,12
    8000f0b8:	00faa023          	sw	a5,0(s5)
    8000f0bc:	01095783          	lhu	a5,16(s2)
    8000f0c0:	fff00513          	li	a0,-1
    8000f0c4:	0407e793          	ori	a5,a5,64
    8000f0c8:	00f91823          	sh	a5,16(s2)
    8000f0cc:	000a3823          	sd	zero,16(s4)
    8000f0d0:	000a2423          	sw	zero,8(s4)
    8000f0d4:	f71ff06f          	j	8000f044 <__ssprint_r+0x154>

000000008000f0d8 <_svfiprintf_r>:
    8000f0d8:	0105d783          	lhu	a5,16(a1)
    8000f0dc:	e3010113          	addi	sp,sp,-464
    8000f0e0:	1b313423          	sd	s3,424(sp)
    8000f0e4:	19513c23          	sd	s5,408(sp)
    8000f0e8:	17b13423          	sd	s11,360(sp)
    8000f0ec:	1c113423          	sd	ra,456(sp)
    8000f0f0:	1c813023          	sd	s0,448(sp)
    8000f0f4:	1a913c23          	sd	s1,440(sp)
    8000f0f8:	1b213823          	sd	s2,432(sp)
    8000f0fc:	1b413023          	sd	s4,416(sp)
    8000f100:	19613823          	sd	s6,400(sp)
    8000f104:	19713423          	sd	s7,392(sp)
    8000f108:	19813023          	sd	s8,384(sp)
    8000f10c:	17913c23          	sd	s9,376(sp)
    8000f110:	17a13823          	sd	s10,368(sp)
    8000f114:	0807f793          	andi	a5,a5,128
    8000f118:	00d13423          	sd	a3,8(sp)
    8000f11c:	00058993          	mv	s3,a1
    8000f120:	00050a93          	mv	s5,a0
    8000f124:	00060d93          	mv	s11,a2
    8000f128:	00078663          	beqz	a5,8000f134 <_svfiprintf_r+0x5c>
    8000f12c:	0185b783          	ld	a5,24(a1)
    8000f130:	50078ae3          	beqz	a5,8000fe44 <_svfiprintf_r+0xd6c>
    8000f134:	000247b7          	lui	a5,0x24
    8000f138:	0e010a13          	addi	s4,sp,224
    8000f13c:	9e078793          	addi	a5,a5,-1568 # 239e0 <_start-0x7ffdc63c>
    8000f140:	00024b37          	lui	s6,0x24
    8000f144:	000244b7          	lui	s1,0x24
    8000f148:	07413023          	sd	s4,96(sp)
    8000f14c:	06013823          	sd	zero,112(sp)
    8000f150:	06012423          	sw	zero,104(sp)
    8000f154:	000a0713          	mv	a4,s4
    8000f158:	00013c23          	sd	zero,24(sp)
    8000f15c:	02013423          	sd	zero,40(sp)
    8000f160:	02013023          	sd	zero,32(sp)
    8000f164:	02013823          	sd	zero,48(sp)
    8000f168:	00013023          	sd	zero,0(sp)
    8000f16c:	00f13823          	sd	a5,16(sp)
    8000f170:	b50b0b13          	addi	s6,s6,-1200 # 23b50 <_start-0x7ffdc4cc>
    8000f174:	b6048493          	addi	s1,s1,-1184 # 23b60 <_start-0x7ffdc4bc>
    8000f178:	000d8d13          	mv	s10,s11
    8000f17c:	000d4783          	lbu	a5,0(s10)
    8000f180:	22078263          	beqz	a5,8000f3a4 <_svfiprintf_r+0x2cc>
    8000f184:	000d0413          	mv	s0,s10
    8000f188:	02500693          	li	a3,37
    8000f18c:	26d78e63          	beq	a5,a3,8000f408 <_svfiprintf_r+0x330>
    8000f190:	00144783          	lbu	a5,1(s0)
    8000f194:	00140413          	addi	s0,s0,1
    8000f198:	fe079ae3          	bnez	a5,8000f18c <_svfiprintf_r+0xb4>
    8000f19c:	41a4093b          	subw	s2,s0,s10
    8000f1a0:	20090263          	beqz	s2,8000f3a4 <_svfiprintf_r+0x2cc>
    8000f1a4:	07013683          	ld	a3,112(sp)
    8000f1a8:	06812783          	lw	a5,104(sp)
    8000f1ac:	01a73023          	sd	s10,0(a4)
    8000f1b0:	012686b3          	add	a3,a3,s2
    8000f1b4:	0017879b          	addiw	a5,a5,1
    8000f1b8:	01273423          	sd	s2,8(a4)
    8000f1bc:	06d13823          	sd	a3,112(sp)
    8000f1c0:	06f12423          	sw	a5,104(sp)
    8000f1c4:	0007869b          	sext.w	a3,a5
    8000f1c8:	00700793          	li	a5,7
    8000f1cc:	01070713          	addi	a4,a4,16
    8000f1d0:	24d7c463          	blt	a5,a3,8000f418 <_svfiprintf_r+0x340>
    8000f1d4:	00013683          	ld	a3,0(sp)
    8000f1d8:	00044783          	lbu	a5,0(s0)
    8000f1dc:	012686bb          	addw	a3,a3,s2
    8000f1e0:	00d13023          	sd	a3,0(sp)
    8000f1e4:	1c078063          	beqz	a5,8000f3a4 <_svfiprintf_r+0x2cc>
    8000f1e8:	00144683          	lbu	a3,1(s0)
    8000f1ec:	00140d13          	addi	s10,s0,1
    8000f1f0:	04010ba3          	sb	zero,87(sp)
    8000f1f4:	fff00d93          	li	s11,-1
    8000f1f8:	00000413          	li	s0,0
    8000f1fc:	00000c93          	li	s9,0
    8000f200:	05a00913          	li	s2,90
    8000f204:	00900b93          	li	s7,9
    8000f208:	00070c13          	mv	s8,a4
    8000f20c:	001d0d13          	addi	s10,s10,1
    8000f210:	0006869b          	sext.w	a3,a3
    8000f214:	02a00593          	li	a1,42
    8000f218:	fe06879b          	addiw	a5,a3,-32
    8000f21c:	0007861b          	sext.w	a2,a5
    8000f220:	04c96a63          	bltu	s2,a2,8000f274 <_svfiprintf_r+0x19c>
    8000f224:	01013703          	ld	a4,16(sp)
    8000f228:	02079793          	slli	a5,a5,0x20
    8000f22c:	01e7d793          	srli	a5,a5,0x1e
    8000f230:	00e787b3          	add	a5,a5,a4
    8000f234:	0007a783          	lw	a5,0(a5)
    8000f238:	00078067          	jr	a5
    8000f23c:	00000413          	li	s0,0
    8000f240:	000d4603          	lbu	a2,0(s10)
    8000f244:	0024179b          	slliw	a5,s0,0x2
    8000f248:	0087843b          	addw	s0,a5,s0
    8000f24c:	fd06869b          	addiw	a3,a3,-48
    8000f250:	0014141b          	slliw	s0,s0,0x1
    8000f254:	fd06079b          	addiw	a5,a2,-48
    8000f258:	0086843b          	addw	s0,a3,s0
    8000f25c:	001d0d13          	addi	s10,s10,1
    8000f260:	0006069b          	sext.w	a3,a2
    8000f264:	fcfbfee3          	bgeu	s7,a5,8000f240 <_svfiprintf_r+0x168>
    8000f268:	fe06879b          	addiw	a5,a3,-32
    8000f26c:	0007861b          	sext.w	a2,a5
    8000f270:	fac97ae3          	bgeu	s2,a2,8000f224 <_svfiprintf_r+0x14c>
    8000f274:	000c0713          	mv	a4,s8
    8000f278:	12068663          	beqz	a3,8000f3a4 <_svfiprintf_r+0x2cc>
    8000f27c:	06d10c23          	sb	a3,120(sp)
    8000f280:	04010ba3          	sb	zero,87(sp)
    8000f284:	00100b93          	li	s7,1
    8000f288:	00100913          	li	s2,1
    8000f28c:	07810c13          	addi	s8,sp,120
    8000f290:	00000d93          	li	s11,0
    8000f294:	002cfe93          	andi	t4,s9,2
    8000f298:	000e8463          	beqz	t4,8000f2a0 <_svfiprintf_r+0x1c8>
    8000f29c:	002b8b9b          	addiw	s7,s7,2
    8000f2a0:	084cfe13          	andi	t3,s9,132
    8000f2a4:	07013783          	ld	a5,112(sp)
    8000f2a8:	06812603          	lw	a2,104(sp)
    8000f2ac:	000e1663          	bnez	t3,8000f2b8 <_svfiprintf_r+0x1e0>
    8000f2b0:	417406bb          	subw	a3,s0,s7
    8000f2b4:	78d04663          	bgtz	a3,8000fa40 <_svfiprintf_r+0x968>
    8000f2b8:	05714f03          	lbu	t5,87(sp)
    8000f2bc:	0016059b          	addiw	a1,a2,1
    8000f2c0:	01070693          	addi	a3,a4,16
    8000f2c4:	040f0063          	beqz	t5,8000f304 <_svfiprintf_r+0x22c>
    8000f2c8:	05710f13          	addi	t5,sp,87
    8000f2cc:	00178793          	addi	a5,a5,1
    8000f2d0:	01e73023          	sd	t5,0(a4)
    8000f2d4:	00100f13          	li	t5,1
    8000f2d8:	01e73423          	sd	t5,8(a4)
    8000f2dc:	06f13823          	sd	a5,112(sp)
    8000f2e0:	06b12423          	sw	a1,104(sp)
    8000f2e4:	00700513          	li	a0,7
    8000f2e8:	04b54ee3          	blt	a0,a1,8000fb44 <_svfiprintf_r+0xa6c>
    8000f2ec:	00260f1b          	addiw	t5,a2,2
    8000f2f0:	02070513          	addi	a0,a4,32
    8000f2f4:	00058613          	mv	a2,a1
    8000f2f8:	00068713          	mv	a4,a3
    8000f2fc:	000f0593          	mv	a1,t5
    8000f300:	00050693          	mv	a3,a0
    8000f304:	020e8c63          	beqz	t4,8000f33c <_svfiprintf_r+0x264>
    8000f308:	05810613          	addi	a2,sp,88
    8000f30c:	00c73023          	sd	a2,0(a4)
    8000f310:	00278793          	addi	a5,a5,2
    8000f314:	00200613          	li	a2,2
    8000f318:	00c73423          	sd	a2,8(a4)
    8000f31c:	06f13823          	sd	a5,112(sp)
    8000f320:	06b12423          	sw	a1,104(sp)
    8000f324:	00700713          	li	a4,7
    8000f328:	04b74ce3          	blt	a4,a1,8000fb80 <_svfiprintf_r+0xaa8>
    8000f32c:	00058613          	mv	a2,a1
    8000f330:	00068713          	mv	a4,a3
    8000f334:	0015859b          	addiw	a1,a1,1
    8000f338:	01068693          	addi	a3,a3,16 # 2010 <_start-0x7fffe00c>
    8000f33c:	08000513          	li	a0,128
    8000f340:	54ae0263          	beq	t3,a0,8000f884 <_svfiprintf_r+0x7ac>
    8000f344:	412d8dbb          	subw	s11,s11,s2
    8000f348:	61b04063          	bgtz	s11,8000f948 <_svfiprintf_r+0x870>
    8000f34c:	00f907b3          	add	a5,s2,a5
    8000f350:	01873023          	sd	s8,0(a4)
    8000f354:	01273423          	sd	s2,8(a4)
    8000f358:	06f13823          	sd	a5,112(sp)
    8000f35c:	06b12423          	sw	a1,104(sp)
    8000f360:	00700713          	li	a4,7
    8000f364:	68b74e63          	blt	a4,a1,8000fa00 <_svfiprintf_r+0x928>
    8000f368:	004cf893          	andi	a7,s9,4
    8000f36c:	00088663          	beqz	a7,8000f378 <_svfiprintf_r+0x2a0>
    8000f370:	4174093b          	subw	s2,s0,s7
    8000f374:	052040e3          	bgtz	s2,8000fbb4 <_svfiprintf_r+0xadc>
    8000f378:	00040713          	mv	a4,s0
    8000f37c:	01745463          	bge	s0,s7,8000f384 <_svfiprintf_r+0x2ac>
    8000f380:	000b8713          	mv	a4,s7
    8000f384:	00013683          	ld	a3,0(sp)
    8000f388:	00d7073b          	addw	a4,a4,a3
    8000f38c:	00e13023          	sd	a4,0(sp)
    8000f390:	68079863          	bnez	a5,8000fa20 <_svfiprintf_r+0x948>
    8000f394:	000d4783          	lbu	a5,0(s10)
    8000f398:	06012423          	sw	zero,104(sp)
    8000f39c:	000a0713          	mv	a4,s4
    8000f3a0:	de0792e3          	bnez	a5,8000f184 <_svfiprintf_r+0xac>
    8000f3a4:	07013783          	ld	a5,112(sp)
    8000f3a8:	46079ee3          	bnez	a5,80010024 <_svfiprintf_r+0xf4c>
    8000f3ac:	0109d783          	lhu	a5,16(s3)
    8000f3b0:	0407f793          	andi	a5,a5,64
    8000f3b4:	4a0798e3          	bnez	a5,80010064 <_svfiprintf_r+0xf8c>
    8000f3b8:	1c813083          	ld	ra,456(sp)
    8000f3bc:	1c013403          	ld	s0,448(sp)
    8000f3c0:	00013503          	ld	a0,0(sp)
    8000f3c4:	1b813483          	ld	s1,440(sp)
    8000f3c8:	1b013903          	ld	s2,432(sp)
    8000f3cc:	1a813983          	ld	s3,424(sp)
    8000f3d0:	1a013a03          	ld	s4,416(sp)
    8000f3d4:	19813a83          	ld	s5,408(sp)
    8000f3d8:	19013b03          	ld	s6,400(sp)
    8000f3dc:	18813b83          	ld	s7,392(sp)
    8000f3e0:	18013c03          	ld	s8,384(sp)
    8000f3e4:	17813c83          	ld	s9,376(sp)
    8000f3e8:	17013d03          	ld	s10,368(sp)
    8000f3ec:	16813d83          	ld	s11,360(sp)
    8000f3f0:	1d010113          	addi	sp,sp,464
    8000f3f4:	00008067          	ret
    8000f3f8:	010cec93          	ori	s9,s9,16
    8000f3fc:	000d4683          	lbu	a3,0(s10)
    8000f400:	000c8c9b          	sext.w	s9,s9
    8000f404:	e09ff06f          	j	8000f20c <_svfiprintf_r+0x134>
    8000f408:	41a4093b          	subw	s2,s0,s10
    8000f40c:	d8091ce3          	bnez	s2,8000f1a4 <_svfiprintf_r+0xcc>
    8000f410:	00044783          	lbu	a5,0(s0)
    8000f414:	dd1ff06f          	j	8000f1e4 <_svfiprintf_r+0x10c>
    8000f418:	06010613          	addi	a2,sp,96
    8000f41c:	00098593          	mv	a1,s3
    8000f420:	000a8513          	mv	a0,s5
    8000f424:	acdff0ef          	jal	ra,8000eef0 <__ssprint_r>
    8000f428:	f80512e3          	bnez	a0,8000f3ac <_svfiprintf_r+0x2d4>
    8000f42c:	000a0713          	mv	a4,s4
    8000f430:	da5ff06f          	j	8000f1d4 <_svfiprintf_r+0xfc>
    8000f434:	00813783          	ld	a5,8(sp)
    8000f438:	000c0713          	mv	a4,s8
    8000f43c:	04010ba3          	sb	zero,87(sp)
    8000f440:	0007bc03          	ld	s8,0(a5)
    8000f444:	00878693          	addi	a3,a5,8
    8000f448:	300c0ce3          	beqz	s8,8000ff60 <_svfiprintf_r+0xe88>
    8000f44c:	fff00793          	li	a5,-1
    8000f450:	02e13c23          	sd	a4,56(sp)
    8000f454:	00d13423          	sd	a3,8(sp)
    8000f458:	1cfd8ae3          	beq	s11,a5,8000fe2c <_svfiprintf_r+0xd54>
    8000f45c:	000d8613          	mv	a2,s11
    8000f460:	00000593          	li	a1,0
    8000f464:	000c0513          	mv	a0,s8
    8000f468:	899f90ef          	jal	ra,80008d00 <memchr>
    8000f46c:	00813683          	ld	a3,8(sp)
    8000f470:	03813703          	ld	a4,56(sp)
    8000f474:	3c0502e3          	beqz	a0,80010038 <_svfiprintf_r+0xf60>
    8000f478:	4185093b          	subw	s2,a0,s8
    8000f47c:	00000d93          	li	s11,0
    8000f480:	0840006f          	j	8000f504 <_svfiprintf_r+0x42c>
    8000f484:	00813683          	ld	a3,8(sp)
    8000f488:	000c0713          	mv	a4,s8
    8000f48c:	04010ba3          	sb	zero,87(sp)
    8000f490:	0006a783          	lw	a5,0(a3)
    8000f494:	00868693          	addi	a3,a3,8
    8000f498:	00d13423          	sd	a3,8(sp)
    8000f49c:	06f10c23          	sb	a5,120(sp)
    8000f4a0:	00100b93          	li	s7,1
    8000f4a4:	00100913          	li	s2,1
    8000f4a8:	07810c13          	addi	s8,sp,120
    8000f4ac:	de5ff06f          	j	8000f290 <_svfiprintf_r+0x1b8>
    8000f4b0:	00813683          	ld	a3,8(sp)
    8000f4b4:	020cf793          	andi	a5,s9,32
    8000f4b8:	000c0713          	mv	a4,s8
    8000f4bc:	00868613          	addi	a2,a3,8
    8000f4c0:	0e078e63          	beqz	a5,8000f5bc <_svfiprintf_r+0x4e4>
    8000f4c4:	0006b783          	ld	a5,0(a3)
    8000f4c8:	00078b93          	mv	s7,a5
    8000f4cc:	1007c863          	bltz	a5,8000f5dc <_svfiprintf_r+0x504>
    8000f4d0:	fff00793          	li	a5,-1
    8000f4d4:	20fd86e3          	beq	s11,a5,8000fee0 <_svfiprintf_r+0xe08>
    8000f4d8:	f7fcf693          	andi	a3,s9,-129
    8000f4dc:	00c13423          	sd	a2,8(sp)
    8000f4e0:	0006869b          	sext.w	a3,a3
    8000f4e4:	760b8c63          	beqz	s7,8000fc5c <_svfiprintf_r+0xb84>
    8000f4e8:	00900793          	li	a5,9
    8000f4ec:	0177e2e3          	bltu	a5,s7,8000fcf0 <_svfiprintf_r+0xc18>
    8000f4f0:	030b8b9b          	addiw	s7,s7,48
    8000f4f4:	0d710da3          	sb	s7,219(sp)
    8000f4f8:	00068c93          	mv	s9,a3
    8000f4fc:	00100913          	li	s2,1
    8000f500:	0db10c13          	addi	s8,sp,219
    8000f504:	000d8793          	mv	a5,s11
    8000f508:	012dd463          	bge	s11,s2,8000f510 <_svfiprintf_r+0x438>
    8000f50c:	00090793          	mv	a5,s2
    8000f510:	05714683          	lbu	a3,87(sp)
    8000f514:	00078b9b          	sext.w	s7,a5
    8000f518:	d6068ee3          	beqz	a3,8000f294 <_svfiprintf_r+0x1bc>
    8000f51c:	00178b9b          	addiw	s7,a5,1
    8000f520:	d75ff06f          	j	8000f294 <_svfiprintf_r+0x1bc>
    8000f524:	000d4683          	lbu	a3,0(s10)
    8000f528:	06800793          	li	a5,104
    8000f52c:	20f68ce3          	beq	a3,a5,8000ff44 <_svfiprintf_r+0xe6c>
    8000f530:	040cec93          	ori	s9,s9,64
    8000f534:	000c8c9b          	sext.w	s9,s9
    8000f538:	cd5ff06f          	j	8000f20c <_svfiprintf_r+0x134>
    8000f53c:	010ce693          	ori	a3,s9,16
    8000f540:	000c0713          	mv	a4,s8
    8000f544:	0006869b          	sext.w	a3,a3
    8000f548:	00813583          	ld	a1,8(sp)
    8000f54c:	0206f793          	andi	a5,a3,32
    8000f550:	00858613          	addi	a2,a1,8
    8000f554:	72078063          	beqz	a5,8000fc74 <_svfiprintf_r+0xb9c>
    8000f558:	0005bb83          	ld	s7,0(a1)
    8000f55c:	00100793          	li	a5,1
    8000f560:	00c13423          	sd	a2,8(sp)
    8000f564:	04010ba3          	sb	zero,87(sp)
    8000f568:	fff00613          	li	a2,-1
    8000f56c:	08cd8863          	beq	s11,a2,8000f5fc <_svfiprintf_r+0x524>
    8000f570:	f7f6f893          	andi	a7,a3,-129
    8000f574:	00088c9b          	sext.w	s9,a7
    8000f578:	4c0b9063          	bnez	s7,8000fa38 <_svfiprintf_r+0x960>
    8000f57c:	160d98e3          	bnez	s11,8000feec <_svfiprintf_r+0xe14>
    8000f580:	6e079263          	bnez	a5,8000fc64 <_svfiprintf_r+0xb8c>
    8000f584:	0016f913          	andi	s2,a3,1
    8000f588:	0dc10c13          	addi	s8,sp,220
    8000f58c:	f6090ce3          	beqz	s2,8000f504 <_svfiprintf_r+0x42c>
    8000f590:	03000793          	li	a5,48
    8000f594:	0cf10da3          	sb	a5,219(sp)
    8000f598:	0db10c13          	addi	s8,sp,219
    8000f59c:	f69ff06f          	j	8000f504 <_svfiprintf_r+0x42c>
    8000f5a0:	00813683          	ld	a3,8(sp)
    8000f5a4:	010ce893          	ori	a7,s9,16
    8000f5a8:	00088c9b          	sext.w	s9,a7
    8000f5ac:	020cf793          	andi	a5,s9,32
    8000f5b0:	000c0713          	mv	a4,s8
    8000f5b4:	00868613          	addi	a2,a3,8
    8000f5b8:	f00796e3          	bnez	a5,8000f4c4 <_svfiprintf_r+0x3ec>
    8000f5bc:	010cf793          	andi	a5,s9,16
    8000f5c0:	7a079463          	bnez	a5,8000fd68 <_svfiprintf_r+0xc90>
    8000f5c4:	040cf793          	andi	a5,s9,64
    8000f5c8:	1e078ae3          	beqz	a5,8000ffbc <_svfiprintf_r+0xee4>
    8000f5cc:	00813783          	ld	a5,8(sp)
    8000f5d0:	00079b83          	lh	s7,0(a5)
    8000f5d4:	000b8793          	mv	a5,s7
    8000f5d8:	ee07dce3          	bgez	a5,8000f4d0 <_svfiprintf_r+0x3f8>
    8000f5dc:	02d00793          	li	a5,45
    8000f5e0:	04f10ba3          	sb	a5,87(sp)
    8000f5e4:	00c13423          	sd	a2,8(sp)
    8000f5e8:	fff00613          	li	a2,-1
    8000f5ec:	41700bb3          	neg	s7,s7
    8000f5f0:	000c8693          	mv	a3,s9
    8000f5f4:	00100793          	li	a5,1
    8000f5f8:	f6cd9ce3          	bne	s11,a2,8000f570 <_svfiprintf_r+0x498>
    8000f5fc:	00100613          	li	a2,1
    8000f600:	eec784e3          	beq	a5,a2,8000f4e8 <_svfiprintf_r+0x410>
    8000f604:	00200613          	li	a2,2
    8000f608:	24c78463          	beq	a5,a2,8000f850 <_svfiprintf_r+0x778>
    8000f60c:	0dc10913          	addi	s2,sp,220
    8000f610:	00090c13          	mv	s8,s2
    8000f614:	007bf793          	andi	a5,s7,7
    8000f618:	03078793          	addi	a5,a5,48
    8000f61c:	fefc0fa3          	sb	a5,-1(s8)
    8000f620:	003bdb93          	srli	s7,s7,0x3
    8000f624:	000c0613          	mv	a2,s8
    8000f628:	fffc0c13          	addi	s8,s8,-1
    8000f62c:	fe0b94e3          	bnez	s7,8000f614 <_svfiprintf_r+0x53c>
    8000f630:	0016f593          	andi	a1,a3,1
    8000f634:	24058263          	beqz	a1,8000f878 <_svfiprintf_r+0x7a0>
    8000f638:	03000593          	li	a1,48
    8000f63c:	22b78e63          	beq	a5,a1,8000f878 <_svfiprintf_r+0x7a0>
    8000f640:	ffe60613          	addi	a2,a2,-2
    8000f644:	febc0fa3          	sb	a1,-1(s8)
    8000f648:	40c9093b          	subw	s2,s2,a2
    8000f64c:	00068c93          	mv	s9,a3
    8000f650:	00060c13          	mv	s8,a2
    8000f654:	eb1ff06f          	j	8000f504 <_svfiprintf_r+0x42c>
    8000f658:	010ce893          	ori	a7,s9,16
    8000f65c:	000c0713          	mv	a4,s8
    8000f660:	00088c9b          	sext.w	s9,a7
    8000f664:	00813683          	ld	a3,8(sp)
    8000f668:	020cf793          	andi	a5,s9,32
    8000f66c:	00868613          	addi	a2,a3,8
    8000f670:	62078863          	beqz	a5,8000fca0 <_svfiprintf_r+0xbc8>
    8000f674:	0006bb83          	ld	s7,0(a3)
    8000f678:	bffcf693          	andi	a3,s9,-1025
    8000f67c:	0006869b          	sext.w	a3,a3
    8000f680:	00c13423          	sd	a2,8(sp)
    8000f684:	00000793          	li	a5,0
    8000f688:	eddff06f          	j	8000f564 <_svfiprintf_r+0x48c>
    8000f68c:	020cec93          	ori	s9,s9,32
    8000f690:	000d4683          	lbu	a3,0(s10)
    8000f694:	000c8c9b          	sext.w	s9,s9
    8000f698:	b75ff06f          	j	8000f20c <_svfiprintf_r+0x134>
    8000f69c:	080cec93          	ori	s9,s9,128
    8000f6a0:	000d4683          	lbu	a3,0(s10)
    8000f6a4:	000c8c9b          	sext.w	s9,s9
    8000f6a8:	b65ff06f          	j	8000f20c <_svfiprintf_r+0x134>
    8000f6ac:	000d4683          	lbu	a3,0(s10)
    8000f6b0:	001d0793          	addi	a5,s10,1
    8000f6b4:	1ab68ee3          	beq	a3,a1,80010070 <_svfiprintf_r+0xf98>
    8000f6b8:	fd06861b          	addiw	a2,a3,-48
    8000f6bc:	00078d13          	mv	s10,a5
    8000f6c0:	00000d93          	li	s11,0
    8000f6c4:	b4cbeae3          	bltu	s7,a2,8000f218 <_svfiprintf_r+0x140>
    8000f6c8:	000d4683          	lbu	a3,0(s10)
    8000f6cc:	002d979b          	slliw	a5,s11,0x2
    8000f6d0:	01b78dbb          	addw	s11,a5,s11
    8000f6d4:	001d9d9b          	slliw	s11,s11,0x1
    8000f6d8:	00cd8dbb          	addw	s11,s11,a2
    8000f6dc:	fd06861b          	addiw	a2,a3,-48
    8000f6e0:	001d0d13          	addi	s10,s10,1
    8000f6e4:	fecbf2e3          	bgeu	s7,a2,8000f6c8 <_svfiprintf_r+0x5f0>
    8000f6e8:	b31ff06f          	j	8000f218 <_svfiprintf_r+0x140>
    8000f6ec:	000d4683          	lbu	a3,0(s10)
    8000f6f0:	004cec93          	ori	s9,s9,4
    8000f6f4:	000c8c9b          	sext.w	s9,s9
    8000f6f8:	b15ff06f          	j	8000f20c <_svfiprintf_r+0x134>
    8000f6fc:	02b00793          	li	a5,43
    8000f700:	000d4683          	lbu	a3,0(s10)
    8000f704:	04f10ba3          	sb	a5,87(sp)
    8000f708:	b05ff06f          	j	8000f20c <_svfiprintf_r+0x134>
    8000f70c:	00813783          	ld	a5,8(sp)
    8000f710:	000d4683          	lbu	a3,0(s10)
    8000f714:	0007a403          	lw	s0,0(a5)
    8000f718:	00878793          	addi	a5,a5,8
    8000f71c:	00f13423          	sd	a5,8(sp)
    8000f720:	ae0456e3          	bgez	s0,8000f20c <_svfiprintf_r+0x134>
    8000f724:	4080043b          	negw	s0,s0
    8000f728:	fc9ff06f          	j	8000f6f0 <_svfiprintf_r+0x618>
    8000f72c:	000a8513          	mv	a0,s5
    8000f730:	9d1f80ef          	jal	ra,80008100 <_localeconv_r>
    8000f734:	00853783          	ld	a5,8(a0)
    8000f738:	00078513          	mv	a0,a5
    8000f73c:	02f13823          	sd	a5,48(sp)
    8000f740:	84cf20ef          	jal	ra,8000178c <strlen>
    8000f744:	00050793          	mv	a5,a0
    8000f748:	000a8513          	mv	a0,s5
    8000f74c:	02f13023          	sd	a5,32(sp)
    8000f750:	9b1f80ef          	jal	ra,80008100 <_localeconv_r>
    8000f754:	01053703          	ld	a4,16(a0)
    8000f758:	02013783          	ld	a5,32(sp)
    8000f75c:	000d4683          	lbu	a3,0(s10)
    8000f760:	02e13423          	sd	a4,40(sp)
    8000f764:	aa0784e3          	beqz	a5,8000f20c <_svfiprintf_r+0x134>
    8000f768:	aa0702e3          	beqz	a4,8000f20c <_svfiprintf_r+0x134>
    8000f76c:	00074783          	lbu	a5,0(a4)
    8000f770:	a8078ee3          	beqz	a5,8000f20c <_svfiprintf_r+0x134>
    8000f774:	400cec93          	ori	s9,s9,1024
    8000f778:	000c8c9b          	sext.w	s9,s9
    8000f77c:	a91ff06f          	j	8000f20c <_svfiprintf_r+0x134>
    8000f780:	001cec93          	ori	s9,s9,1
    8000f784:	000d4683          	lbu	a3,0(s10)
    8000f788:	000c8c9b          	sext.w	s9,s9
    8000f78c:	a81ff06f          	j	8000f20c <_svfiprintf_r+0x134>
    8000f790:	05714783          	lbu	a5,87(sp)
    8000f794:	000d4683          	lbu	a3,0(s10)
    8000f798:	a6079ae3          	bnez	a5,8000f20c <_svfiprintf_r+0x134>
    8000f79c:	02000793          	li	a5,32
    8000f7a0:	04f10ba3          	sb	a5,87(sp)
    8000f7a4:	a69ff06f          	j	8000f20c <_svfiprintf_r+0x134>
    8000f7a8:	00813603          	ld	a2,8(sp)
    8000f7ac:	03000793          	li	a5,48
    8000f7b0:	04f10c23          	sb	a5,88(sp)
    8000f7b4:	07800793          	li	a5,120
    8000f7b8:	04f10ca3          	sb	a5,89(sp)
    8000f7bc:	00860793          	addi	a5,a2,8
    8000f7c0:	00f13423          	sd	a5,8(sp)
    8000f7c4:	000237b7          	lui	a5,0x23
    8000f7c8:	ed878793          	addi	a5,a5,-296 # 22ed8 <_start-0x7ffdd144>
    8000f7cc:	002ce693          	ori	a3,s9,2
    8000f7d0:	00f13c23          	sd	a5,24(sp)
    8000f7d4:	00063b83          	ld	s7,0(a2)
    8000f7d8:	000c0713          	mv	a4,s8
    8000f7dc:	0006869b          	sext.w	a3,a3
    8000f7e0:	00200793          	li	a5,2
    8000f7e4:	d81ff06f          	j	8000f564 <_svfiprintf_r+0x48c>
    8000f7e8:	00813603          	ld	a2,8(sp)
    8000f7ec:	020cf793          	andi	a5,s9,32
    8000f7f0:	000c0713          	mv	a4,s8
    8000f7f4:	00063683          	ld	a3,0(a2)
    8000f7f8:	00860613          	addi	a2,a2,8
    8000f7fc:	00c13423          	sd	a2,8(sp)
    8000f800:	02079463          	bnez	a5,8000f828 <_svfiprintf_r+0x750>
    8000f804:	010cf793          	andi	a5,s9,16
    8000f808:	02079063          	bnez	a5,8000f828 <_svfiprintf_r+0x750>
    8000f80c:	040cf793          	andi	a5,s9,64
    8000f810:	000794e3          	bnez	a5,80010018 <_svfiprintf_r+0xf40>
    8000f814:	200cf893          	andi	a7,s9,512
    8000f818:	00013783          	ld	a5,0(sp)
    8000f81c:	040880e3          	beqz	a7,8001005c <_svfiprintf_r+0xf84>
    8000f820:	00f68023          	sb	a5,0(a3)
    8000f824:	959ff06f          	j	8000f17c <_svfiprintf_r+0xa4>
    8000f828:	00013783          	ld	a5,0(sp)
    8000f82c:	00f6b023          	sd	a5,0(a3)
    8000f830:	94dff06f          	j	8000f17c <_svfiprintf_r+0xa4>
    8000f834:	000d4683          	lbu	a3,0(s10)
    8000f838:	06c00793          	li	a5,108
    8000f83c:	6ef68a63          	beq	a3,a5,8000ff30 <_svfiprintf_r+0xe58>
    8000f840:	010cec93          	ori	s9,s9,16
    8000f844:	000c8c9b          	sext.w	s9,s9
    8000f848:	9c5ff06f          	j	8000f20c <_svfiprintf_r+0x134>
    8000f84c:	000c8693          	mv	a3,s9
    8000f850:	01813603          	ld	a2,24(sp)
    8000f854:	0dc10913          	addi	s2,sp,220
    8000f858:	00090c13          	mv	s8,s2
    8000f85c:	00fbf793          	andi	a5,s7,15
    8000f860:	00f607b3          	add	a5,a2,a5
    8000f864:	0007c783          	lbu	a5,0(a5)
    8000f868:	004bdb93          	srli	s7,s7,0x4
    8000f86c:	fffc0c13          	addi	s8,s8,-1
    8000f870:	00fc0023          	sb	a5,0(s8)
    8000f874:	fe0b94e3          	bnez	s7,8000f85c <_svfiprintf_r+0x784>
    8000f878:	4189093b          	subw	s2,s2,s8
    8000f87c:	00068c93          	mv	s9,a3
    8000f880:	c85ff06f          	j	8000f504 <_svfiprintf_r+0x42c>
    8000f884:	41740e3b          	subw	t3,s0,s7
    8000f888:	abc05ee3          	blez	t3,8000f344 <_svfiprintf_r+0x26c>
    8000f88c:	01000513          	li	a0,16
    8000f890:	7dc55063          	bge	a0,t3,80010050 <_svfiprintf_r+0xf78>
    8000f894:	02813c23          	sd	s0,56(sp)
    8000f898:	01000e93          	li	t4,16
    8000f89c:	00098413          	mv	s0,s3
    8000f8a0:	00700f13          	li	t5,7
    8000f8a4:	000e0993          	mv	s3,t3
    8000f8a8:	00c0006f          	j	8000f8b4 <_svfiprintf_r+0x7dc>
    8000f8ac:	ff09899b          	addiw	s3,s3,-16
    8000f8b0:	053eda63          	bge	t4,s3,8000f904 <_svfiprintf_r+0x82c>
    8000f8b4:	0016061b          	addiw	a2,a2,1
    8000f8b8:	01078793          	addi	a5,a5,16
    8000f8bc:	00973023          	sd	s1,0(a4)
    8000f8c0:	01d73423          	sd	t4,8(a4)
    8000f8c4:	06f13823          	sd	a5,112(sp)
    8000f8c8:	06c12423          	sw	a2,104(sp)
    8000f8cc:	01070713          	addi	a4,a4,16
    8000f8d0:	fccf5ee3          	bge	t5,a2,8000f8ac <_svfiprintf_r+0x7d4>
    8000f8d4:	06010613          	addi	a2,sp,96
    8000f8d8:	00040593          	mv	a1,s0
    8000f8dc:	000a8513          	mv	a0,s5
    8000f8e0:	e10ff0ef          	jal	ra,8000eef0 <__ssprint_r>
    8000f8e4:	66051a63          	bnez	a0,8000ff58 <_svfiprintf_r+0xe80>
    8000f8e8:	01000e93          	li	t4,16
    8000f8ec:	ff09899b          	addiw	s3,s3,-16
    8000f8f0:	07013783          	ld	a5,112(sp)
    8000f8f4:	06812603          	lw	a2,104(sp)
    8000f8f8:	000a0713          	mv	a4,s4
    8000f8fc:	00700f13          	li	t5,7
    8000f900:	fb3ecae3          	blt	t4,s3,8000f8b4 <_svfiprintf_r+0x7dc>
    8000f904:	00098e13          	mv	t3,s3
    8000f908:	00040993          	mv	s3,s0
    8000f90c:	03813403          	ld	s0,56(sp)
    8000f910:	0016061b          	addiw	a2,a2,1
    8000f914:	01070513          	addi	a0,a4,16
    8000f918:	01c787b3          	add	a5,a5,t3
    8000f91c:	00973023          	sd	s1,0(a4)
    8000f920:	01c73423          	sd	t3,8(a4)
    8000f924:	06f13823          	sd	a5,112(sp)
    8000f928:	06c12423          	sw	a2,104(sp)
    8000f92c:	00700713          	li	a4,7
    8000f930:	5cc74a63          	blt	a4,a2,8000ff04 <_svfiprintf_r+0xe2c>
    8000f934:	412d8dbb          	subw	s11,s11,s2
    8000f938:	0016059b          	addiw	a1,a2,1
    8000f93c:	01050693          	addi	a3,a0,16
    8000f940:	00050713          	mv	a4,a0
    8000f944:	a1b054e3          	blez	s11,8000f34c <_svfiprintf_r+0x274>
    8000f948:	01000513          	li	a0,16
    8000f94c:	69b55463          	bge	a0,s11,8000ffd4 <_svfiprintf_r+0xefc>
    8000f950:	01000e13          	li	t3,16
    8000f954:	00700e93          	li	t4,7
    8000f958:	00c0006f          	j	8000f964 <_svfiprintf_r+0x88c>
    8000f95c:	ff0d8d9b          	addiw	s11,s11,-16
    8000f960:	05be5a63          	bge	t3,s11,8000f9b4 <_svfiprintf_r+0x8dc>
    8000f964:	0016061b          	addiw	a2,a2,1
    8000f968:	01078793          	addi	a5,a5,16
    8000f96c:	00973023          	sd	s1,0(a4)
    8000f970:	01c73423          	sd	t3,8(a4)
    8000f974:	06f13823          	sd	a5,112(sp)
    8000f978:	06c12423          	sw	a2,104(sp)
    8000f97c:	01070713          	addi	a4,a4,16
    8000f980:	fccedee3          	bge	t4,a2,8000f95c <_svfiprintf_r+0x884>
    8000f984:	06010613          	addi	a2,sp,96
    8000f988:	00098593          	mv	a1,s3
    8000f98c:	000a8513          	mv	a0,s5
    8000f990:	d60ff0ef          	jal	ra,8000eef0 <__ssprint_r>
    8000f994:	a0051ce3          	bnez	a0,8000f3ac <_svfiprintf_r+0x2d4>
    8000f998:	01000e13          	li	t3,16
    8000f99c:	ff0d8d9b          	addiw	s11,s11,-16
    8000f9a0:	07013783          	ld	a5,112(sp)
    8000f9a4:	06812603          	lw	a2,104(sp)
    8000f9a8:	000a0713          	mv	a4,s4
    8000f9ac:	00700e93          	li	t4,7
    8000f9b0:	fbbe4ae3          	blt	t3,s11,8000f964 <_svfiprintf_r+0x88c>
    8000f9b4:	0016059b          	addiw	a1,a2,1
    8000f9b8:	01070613          	addi	a2,a4,16
    8000f9bc:	01b787b3          	add	a5,a5,s11
    8000f9c0:	00973023          	sd	s1,0(a4)
    8000f9c4:	01b73423          	sd	s11,8(a4)
    8000f9c8:	06f13823          	sd	a5,112(sp)
    8000f9cc:	06b12423          	sw	a1,104(sp)
    8000f9d0:	00700713          	li	a4,7
    8000f9d4:	2eb74863          	blt	a4,a1,8000fcc4 <_svfiprintf_r+0xbec>
    8000f9d8:	00060713          	mv	a4,a2
    8000f9dc:	0015859b          	addiw	a1,a1,1
    8000f9e0:	00f907b3          	add	a5,s2,a5
    8000f9e4:	01873023          	sd	s8,0(a4)
    8000f9e8:	01273423          	sd	s2,8(a4)
    8000f9ec:	06f13823          	sd	a5,112(sp)
    8000f9f0:	06b12423          	sw	a1,104(sp)
    8000f9f4:	00700713          	li	a4,7
    8000f9f8:	01060693          	addi	a3,a2,16
    8000f9fc:	96b756e3          	bge	a4,a1,8000f368 <_svfiprintf_r+0x290>
    8000fa00:	06010613          	addi	a2,sp,96
    8000fa04:	00098593          	mv	a1,s3
    8000fa08:	000a8513          	mv	a0,s5
    8000fa0c:	ce4ff0ef          	jal	ra,8000eef0 <__ssprint_r>
    8000fa10:	98051ee3          	bnez	a0,8000f3ac <_svfiprintf_r+0x2d4>
    8000fa14:	07013783          	ld	a5,112(sp)
    8000fa18:	000a0693          	mv	a3,s4
    8000fa1c:	94dff06f          	j	8000f368 <_svfiprintf_r+0x290>
    8000fa20:	06010613          	addi	a2,sp,96
    8000fa24:	00098593          	mv	a1,s3
    8000fa28:	000a8513          	mv	a0,s5
    8000fa2c:	cc4ff0ef          	jal	ra,8000eef0 <__ssprint_r>
    8000fa30:	960502e3          	beqz	a0,8000f394 <_svfiprintf_r+0x2bc>
    8000fa34:	979ff06f          	j	8000f3ac <_svfiprintf_r+0x2d4>
    8000fa38:	000c8693          	mv	a3,s9
    8000fa3c:	bc1ff06f          	j	8000f5fc <_svfiprintf_r+0x524>
    8000fa40:	01000593          	li	a1,16
    8000fa44:	0ad5d463          	bge	a1,a3,8000faec <_svfiprintf_r+0xa14>
    8000fa48:	04813423          	sd	s0,72(sp)
    8000fa4c:	00068413          	mv	s0,a3
    8000fa50:	000d0693          	mv	a3,s10
    8000fa54:	01000f13          	li	t5,16
    8000fa58:	00090d13          	mv	s10,s2
    8000fa5c:	00700f93          	li	t6,7
    8000fa60:	00098913          	mv	s2,s3
    8000fa64:	03d13c23          	sd	t4,56(sp)
    8000fa68:	05c13023          	sd	t3,64(sp)
    8000fa6c:	00068993          	mv	s3,a3
    8000fa70:	00c0006f          	j	8000fa7c <_svfiprintf_r+0x9a4>
    8000fa74:	ff04041b          	addiw	s0,s0,-16
    8000fa78:	048f5a63          	bge	t5,s0,8000facc <_svfiprintf_r+0x9f4>
    8000fa7c:	0016061b          	addiw	a2,a2,1
    8000fa80:	01078793          	addi	a5,a5,16
    8000fa84:	01673023          	sd	s6,0(a4)
    8000fa88:	01e73423          	sd	t5,8(a4)
    8000fa8c:	06f13823          	sd	a5,112(sp)
    8000fa90:	06c12423          	sw	a2,104(sp)
    8000fa94:	01070713          	addi	a4,a4,16
    8000fa98:	fccfdee3          	bge	t6,a2,8000fa74 <_svfiprintf_r+0x99c>
    8000fa9c:	06010613          	addi	a2,sp,96
    8000faa0:	00090593          	mv	a1,s2
    8000faa4:	000a8513          	mv	a0,s5
    8000faa8:	c48ff0ef          	jal	ra,8000eef0 <__ssprint_r>
    8000faac:	40051863          	bnez	a0,8000febc <_svfiprintf_r+0xde4>
    8000fab0:	01000f13          	li	t5,16
    8000fab4:	ff04041b          	addiw	s0,s0,-16
    8000fab8:	07013783          	ld	a5,112(sp)
    8000fabc:	06812603          	lw	a2,104(sp)
    8000fac0:	000a0713          	mv	a4,s4
    8000fac4:	00700f93          	li	t6,7
    8000fac8:	fa8f4ae3          	blt	t5,s0,8000fa7c <_svfiprintf_r+0x9a4>
    8000facc:	00040693          	mv	a3,s0
    8000fad0:	03813e83          	ld	t4,56(sp)
    8000fad4:	04013e03          	ld	t3,64(sp)
    8000fad8:	04813403          	ld	s0,72(sp)
    8000fadc:	00098593          	mv	a1,s3
    8000fae0:	00090993          	mv	s3,s2
    8000fae4:	000d0913          	mv	s2,s10
    8000fae8:	00058d13          	mv	s10,a1
    8000faec:	00d787b3          	add	a5,a5,a3
    8000faf0:	0016061b          	addiw	a2,a2,1
    8000faf4:	00d73423          	sd	a3,8(a4)
    8000faf8:	01673023          	sd	s6,0(a4)
    8000fafc:	06f13823          	sd	a5,112(sp)
    8000fb00:	06c12423          	sw	a2,104(sp)
    8000fb04:	00700693          	li	a3,7
    8000fb08:	01070713          	addi	a4,a4,16
    8000fb0c:	fac6d663          	bge	a3,a2,8000f2b8 <_svfiprintf_r+0x1e0>
    8000fb10:	06010613          	addi	a2,sp,96
    8000fb14:	00098593          	mv	a1,s3
    8000fb18:	000a8513          	mv	a0,s5
    8000fb1c:	05c13023          	sd	t3,64(sp)
    8000fb20:	03d13c23          	sd	t4,56(sp)
    8000fb24:	bccff0ef          	jal	ra,8000eef0 <__ssprint_r>
    8000fb28:	880512e3          	bnez	a0,8000f3ac <_svfiprintf_r+0x2d4>
    8000fb2c:	07013783          	ld	a5,112(sp)
    8000fb30:	06812603          	lw	a2,104(sp)
    8000fb34:	04013e03          	ld	t3,64(sp)
    8000fb38:	03813e83          	ld	t4,56(sp)
    8000fb3c:	000a0713          	mv	a4,s4
    8000fb40:	f78ff06f          	j	8000f2b8 <_svfiprintf_r+0x1e0>
    8000fb44:	06010613          	addi	a2,sp,96
    8000fb48:	00098593          	mv	a1,s3
    8000fb4c:	000a8513          	mv	a0,s5
    8000fb50:	05c13023          	sd	t3,64(sp)
    8000fb54:	03d13c23          	sd	t4,56(sp)
    8000fb58:	b98ff0ef          	jal	ra,8000eef0 <__ssprint_r>
    8000fb5c:	840518e3          	bnez	a0,8000f3ac <_svfiprintf_r+0x2d4>
    8000fb60:	06812603          	lw	a2,104(sp)
    8000fb64:	07013783          	ld	a5,112(sp)
    8000fb68:	04013e03          	ld	t3,64(sp)
    8000fb6c:	03813e83          	ld	t4,56(sp)
    8000fb70:	0f010693          	addi	a3,sp,240
    8000fb74:	0016059b          	addiw	a1,a2,1
    8000fb78:	000a0713          	mv	a4,s4
    8000fb7c:	f88ff06f          	j	8000f304 <_svfiprintf_r+0x22c>
    8000fb80:	06010613          	addi	a2,sp,96
    8000fb84:	00098593          	mv	a1,s3
    8000fb88:	000a8513          	mv	a0,s5
    8000fb8c:	03c13c23          	sd	t3,56(sp)
    8000fb90:	b60ff0ef          	jal	ra,8000eef0 <__ssprint_r>
    8000fb94:	80051ce3          	bnez	a0,8000f3ac <_svfiprintf_r+0x2d4>
    8000fb98:	06812603          	lw	a2,104(sp)
    8000fb9c:	07013783          	ld	a5,112(sp)
    8000fba0:	03813e03          	ld	t3,56(sp)
    8000fba4:	0f010693          	addi	a3,sp,240
    8000fba8:	0016059b          	addiw	a1,a2,1
    8000fbac:	000a0713          	mv	a4,s4
    8000fbb0:	f8cff06f          	j	8000f33c <_svfiprintf_r+0x264>
    8000fbb4:	01000613          	li	a2,16
    8000fbb8:	06812703          	lw	a4,104(sp)
    8000fbbc:	07265063          	bge	a2,s2,8000fc1c <_svfiprintf_r+0xb44>
    8000fbc0:	01000d93          	li	s11,16
    8000fbc4:	00700c13          	li	s8,7
    8000fbc8:	00c0006f          	j	8000fbd4 <_svfiprintf_r+0xafc>
    8000fbcc:	ff09091b          	addiw	s2,s2,-16
    8000fbd0:	052dd663          	bge	s11,s2,8000fc1c <_svfiprintf_r+0xb44>
    8000fbd4:	0017071b          	addiw	a4,a4,1
    8000fbd8:	01078793          	addi	a5,a5,16
    8000fbdc:	0166b023          	sd	s6,0(a3)
    8000fbe0:	01b6b423          	sd	s11,8(a3)
    8000fbe4:	06f13823          	sd	a5,112(sp)
    8000fbe8:	06e12423          	sw	a4,104(sp)
    8000fbec:	01068693          	addi	a3,a3,16
    8000fbf0:	fcec5ee3          	bge	s8,a4,8000fbcc <_svfiprintf_r+0xaf4>
    8000fbf4:	06010613          	addi	a2,sp,96
    8000fbf8:	00098593          	mv	a1,s3
    8000fbfc:	000a8513          	mv	a0,s5
    8000fc00:	af0ff0ef          	jal	ra,8000eef0 <__ssprint_r>
    8000fc04:	fa051463          	bnez	a0,8000f3ac <_svfiprintf_r+0x2d4>
    8000fc08:	ff09091b          	addiw	s2,s2,-16
    8000fc0c:	07013783          	ld	a5,112(sp)
    8000fc10:	06812703          	lw	a4,104(sp)
    8000fc14:	000a0693          	mv	a3,s4
    8000fc18:	fb2dcee3          	blt	s11,s2,8000fbd4 <_svfiprintf_r+0xafc>
    8000fc1c:	0017071b          	addiw	a4,a4,1
    8000fc20:	012787b3          	add	a5,a5,s2
    8000fc24:	0166b023          	sd	s6,0(a3)
    8000fc28:	0126b423          	sd	s2,8(a3)
    8000fc2c:	06e12423          	sw	a4,104(sp)
    8000fc30:	0007069b          	sext.w	a3,a4
    8000fc34:	06f13823          	sd	a5,112(sp)
    8000fc38:	00700713          	li	a4,7
    8000fc3c:	f2d75e63          	bge	a4,a3,8000f378 <_svfiprintf_r+0x2a0>
    8000fc40:	06010613          	addi	a2,sp,96
    8000fc44:	00098593          	mv	a1,s3
    8000fc48:	000a8513          	mv	a0,s5
    8000fc4c:	aa4ff0ef          	jal	ra,8000eef0 <__ssprint_r>
    8000fc50:	f4051e63          	bnez	a0,8000f3ac <_svfiprintf_r+0x2d4>
    8000fc54:	07013783          	ld	a5,112(sp)
    8000fc58:	f20ff06f          	j	8000f378 <_svfiprintf_r+0x2a0>
    8000fc5c:	880d9ae3          	bnez	s11,8000f4f0 <_svfiprintf_r+0x418>
    8000fc60:	00068c93          	mv	s9,a3
    8000fc64:	00000d93          	li	s11,0
    8000fc68:	00000913          	li	s2,0
    8000fc6c:	0dc10c13          	addi	s8,sp,220
    8000fc70:	895ff06f          	j	8000f504 <_svfiprintf_r+0x42c>
    8000fc74:	0106f793          	andi	a5,a3,16
    8000fc78:	10079063          	bnez	a5,8000fd78 <_svfiprintf_r+0xca0>
    8000fc7c:	00813583          	ld	a1,8(sp)
    8000fc80:	0406f793          	andi	a5,a3,64
    8000fc84:	0005ab83          	lw	s7,0(a1)
    8000fc88:	30078e63          	beqz	a5,8000ffa4 <_svfiprintf_r+0xecc>
    8000fc8c:	030b9b93          	slli	s7,s7,0x30
    8000fc90:	030bdb93          	srli	s7,s7,0x30
    8000fc94:	00c13423          	sd	a2,8(sp)
    8000fc98:	00100793          	li	a5,1
    8000fc9c:	8c9ff06f          	j	8000f564 <_svfiprintf_r+0x48c>
    8000fca0:	010cf793          	andi	a5,s9,16
    8000fca4:	0a079c63          	bnez	a5,8000fd5c <_svfiprintf_r+0xc84>
    8000fca8:	00813683          	ld	a3,8(sp)
    8000fcac:	040cf793          	andi	a5,s9,64
    8000fcb0:	0006ab83          	lw	s7,0(a3)
    8000fcb4:	2e078063          	beqz	a5,8000ff94 <_svfiprintf_r+0xebc>
    8000fcb8:	030b9b93          	slli	s7,s7,0x30
    8000fcbc:	030bdb93          	srli	s7,s7,0x30
    8000fcc0:	9b9ff06f          	j	8000f678 <_svfiprintf_r+0x5a0>
    8000fcc4:	06010613          	addi	a2,sp,96
    8000fcc8:	00098593          	mv	a1,s3
    8000fccc:	000a8513          	mv	a0,s5
    8000fcd0:	a20ff0ef          	jal	ra,8000eef0 <__ssprint_r>
    8000fcd4:	ec051c63          	bnez	a0,8000f3ac <_svfiprintf_r+0x2d4>
    8000fcd8:	06812583          	lw	a1,104(sp)
    8000fcdc:	07013783          	ld	a5,112(sp)
    8000fce0:	0f010693          	addi	a3,sp,240
    8000fce4:	0015859b          	addiw	a1,a1,1
    8000fce8:	000a0713          	mv	a4,s4
    8000fcec:	e60ff06f          	j	8000f34c <_svfiprintf_r+0x274>
    8000fcf0:	0dc10913          	addi	s2,sp,220
    8000fcf4:	02813803          	ld	a6,40(sp)
    8000fcf8:	4006fe93          	andi	t4,a3,1024
    8000fcfc:	00000593          	li	a1,0
    8000fd00:	00090613          	mv	a2,s2
    8000fd04:	00a00893          	li	a7,10
    8000fd08:	00900e13          	li	t3,9
    8000fd0c:	0ff00c93          	li	s9,255
    8000fd10:	0140006f          	j	8000fd24 <_svfiprintf_r+0xc4c>
    8000fd14:	031bd7b3          	divu	a5,s7,a7
    8000fd18:	037e7a63          	bgeu	t3,s7,8000fd4c <_svfiprintf_r+0xc74>
    8000fd1c:	00078b93          	mv	s7,a5
    8000fd20:	000c0613          	mv	a2,s8
    8000fd24:	fff60c13          	addi	s8,a2,-1
    8000fd28:	0015859b          	addiw	a1,a1,1
    8000fd2c:	031bf7b3          	remu	a5,s7,a7
    8000fd30:	0307879b          	addiw	a5,a5,48
    8000fd34:	fef60fa3          	sb	a5,-1(a2)
    8000fd38:	fc0e8ee3          	beqz	t4,8000fd14 <_svfiprintf_r+0xc3c>
    8000fd3c:	00084783          	lbu	a5,0(a6)
    8000fd40:	fcb79ae3          	bne	a5,a1,8000fd14 <_svfiprintf_r+0xc3c>
    8000fd44:	fd9788e3          	beq	a5,s9,8000fd14 <_svfiprintf_r+0xc3c>
    8000fd48:	117e6e63          	bltu	t3,s7,8000fe64 <_svfiprintf_r+0xd8c>
    8000fd4c:	03013423          	sd	a6,40(sp)
    8000fd50:	4189093b          	subw	s2,s2,s8
    8000fd54:	00068c93          	mv	s9,a3
    8000fd58:	facff06f          	j	8000f504 <_svfiprintf_r+0x42c>
    8000fd5c:	00813783          	ld	a5,8(sp)
    8000fd60:	0007bb83          	ld	s7,0(a5)
    8000fd64:	915ff06f          	j	8000f678 <_svfiprintf_r+0x5a0>
    8000fd68:	00813783          	ld	a5,8(sp)
    8000fd6c:	0007b783          	ld	a5,0(a5)
    8000fd70:	00078b93          	mv	s7,a5
    8000fd74:	f58ff06f          	j	8000f4cc <_svfiprintf_r+0x3f4>
    8000fd78:	00813783          	ld	a5,8(sp)
    8000fd7c:	00c13423          	sd	a2,8(sp)
    8000fd80:	0007bb83          	ld	s7,0(a5)
    8000fd84:	00100793          	li	a5,1
    8000fd88:	fdcff06f          	j	8000f564 <_svfiprintf_r+0x48c>
    8000fd8c:	00813583          	ld	a1,8(sp)
    8000fd90:	000237b7          	lui	a5,0x23
    8000fd94:	ec078793          	addi	a5,a5,-320 # 22ec0 <_start-0x7ffdd15c>
    8000fd98:	00f13c23          	sd	a5,24(sp)
    8000fd9c:	020cf793          	andi	a5,s9,32
    8000fda0:	000c0713          	mv	a4,s8
    8000fda4:	00858613          	addi	a2,a1,8
    8000fda8:	06078463          	beqz	a5,8000fe10 <_svfiprintf_r+0xd38>
    8000fdac:	0005bb83          	ld	s7,0(a1)
    8000fdb0:	001cf793          	andi	a5,s9,1
    8000fdb4:	00078e63          	beqz	a5,8000fdd0 <_svfiprintf_r+0xcf8>
    8000fdb8:	000b8c63          	beqz	s7,8000fdd0 <_svfiprintf_r+0xcf8>
    8000fdbc:	002ce893          	ori	a7,s9,2
    8000fdc0:	03000793          	li	a5,48
    8000fdc4:	04f10c23          	sb	a5,88(sp)
    8000fdc8:	04d10ca3          	sb	a3,89(sp)
    8000fdcc:	00088c9b          	sext.w	s9,a7
    8000fdd0:	bffcf693          	andi	a3,s9,-1025
    8000fdd4:	0006869b          	sext.w	a3,a3
    8000fdd8:	00c13423          	sd	a2,8(sp)
    8000fddc:	00200793          	li	a5,2
    8000fde0:	f84ff06f          	j	8000f564 <_svfiprintf_r+0x48c>
    8000fde4:	000c0713          	mv	a4,s8
    8000fde8:	000c8693          	mv	a3,s9
    8000fdec:	f5cff06f          	j	8000f548 <_svfiprintf_r+0x470>
    8000fdf0:	00813583          	ld	a1,8(sp)
    8000fdf4:	000237b7          	lui	a5,0x23
    8000fdf8:	ed878793          	addi	a5,a5,-296 # 22ed8 <_start-0x7ffdd144>
    8000fdfc:	00f13c23          	sd	a5,24(sp)
    8000fe00:	020cf793          	andi	a5,s9,32
    8000fe04:	000c0713          	mv	a4,s8
    8000fe08:	00858613          	addi	a2,a1,8
    8000fe0c:	fa0790e3          	bnez	a5,8000fdac <_svfiprintf_r+0xcd4>
    8000fe10:	010cf793          	andi	a5,s9,16
    8000fe14:	0a078863          	beqz	a5,8000fec4 <_svfiprintf_r+0xdec>
    8000fe18:	00813783          	ld	a5,8(sp)
    8000fe1c:	0007bb83          	ld	s7,0(a5)
    8000fe20:	f91ff06f          	j	8000fdb0 <_svfiprintf_r+0xcd8>
    8000fe24:	000c0713          	mv	a4,s8
    8000fe28:	83dff06f          	j	8000f664 <_svfiprintf_r+0x58c>
    8000fe2c:	000c0513          	mv	a0,s8
    8000fe30:	95df10ef          	jal	ra,8000178c <strlen>
    8000fe34:	03813703          	ld	a4,56(sp)
    8000fe38:	0005091b          	sext.w	s2,a0
    8000fe3c:	00000d93          	li	s11,0
    8000fe40:	ec4ff06f          	j	8000f504 <_svfiprintf_r+0x42c>
    8000fe44:	04000593          	li	a1,64
    8000fe48:	e34f80ef          	jal	ra,8000847c <_malloc_r>
    8000fe4c:	00a9b023          	sd	a0,0(s3)
    8000fe50:	00a9bc23          	sd	a0,24(s3)
    8000fe54:	24050263          	beqz	a0,80010098 <_svfiprintf_r+0xfc0>
    8000fe58:	04000793          	li	a5,64
    8000fe5c:	02f9a023          	sw	a5,32(s3)
    8000fe60:	ad4ff06f          	j	8000f134 <_svfiprintf_r+0x5c>
    8000fe64:	02013783          	ld	a5,32(sp)
    8000fe68:	03013583          	ld	a1,48(sp)
    8000fe6c:	05d13423          	sd	t4,72(sp)
    8000fe70:	40fc0c33          	sub	s8,s8,a5
    8000fe74:	00078613          	mv	a2,a5
    8000fe78:	000c0513          	mv	a0,s8
    8000fe7c:	04e13023          	sd	a4,64(sp)
    8000fe80:	03013c23          	sd	a6,56(sp)
    8000fe84:	02d13423          	sd	a3,40(sp)
    8000fe88:	cf1fa0ef          	jal	ra,8000ab78 <strncpy>
    8000fe8c:	03813803          	ld	a6,56(sp)
    8000fe90:	00a00893          	li	a7,10
    8000fe94:	031bd7b3          	divu	a5,s7,a7
    8000fe98:	00184603          	lbu	a2,1(a6)
    8000fe9c:	02813683          	ld	a3,40(sp)
    8000fea0:	04013703          	ld	a4,64(sp)
    8000fea4:	00c03633          	snez	a2,a2
    8000fea8:	04813e83          	ld	t4,72(sp)
    8000feac:	00000593          	li	a1,0
    8000feb0:	00c80833          	add	a6,a6,a2
    8000feb4:	00900e13          	li	t3,9
    8000feb8:	e65ff06f          	j	8000fd1c <_svfiprintf_r+0xc44>
    8000febc:	00090993          	mv	s3,s2
    8000fec0:	cecff06f          	j	8000f3ac <_svfiprintf_r+0x2d4>
    8000fec4:	00813583          	ld	a1,8(sp)
    8000fec8:	040cf793          	andi	a5,s9,64
    8000fecc:	0005ab83          	lw	s7,0(a1)
    8000fed0:	0a078a63          	beqz	a5,8000ff84 <_svfiprintf_r+0xeac>
    8000fed4:	030b9b93          	slli	s7,s7,0x30
    8000fed8:	030bdb93          	srli	s7,s7,0x30
    8000fedc:	ed5ff06f          	j	8000fdb0 <_svfiprintf_r+0xcd8>
    8000fee0:	000c8693          	mv	a3,s9
    8000fee4:	00c13423          	sd	a2,8(sp)
    8000fee8:	e00ff06f          	j	8000f4e8 <_svfiprintf_r+0x410>
    8000feec:	00100693          	li	a3,1
    8000fef0:	14d78c63          	beq	a5,a3,80010048 <_svfiprintf_r+0xf70>
    8000fef4:	00200693          	li	a3,2
    8000fef8:	94d78ae3          	beq	a5,a3,8000f84c <_svfiprintf_r+0x774>
    8000fefc:	000c8693          	mv	a3,s9
    8000ff00:	f0cff06f          	j	8000f60c <_svfiprintf_r+0x534>
    8000ff04:	06010613          	addi	a2,sp,96
    8000ff08:	00098593          	mv	a1,s3
    8000ff0c:	000a8513          	mv	a0,s5
    8000ff10:	fe1fe0ef          	jal	ra,8000eef0 <__ssprint_r>
    8000ff14:	c8051c63          	bnez	a0,8000f3ac <_svfiprintf_r+0x2d4>
    8000ff18:	06812603          	lw	a2,104(sp)
    8000ff1c:	07013783          	ld	a5,112(sp)
    8000ff20:	0f010693          	addi	a3,sp,240
    8000ff24:	0016059b          	addiw	a1,a2,1
    8000ff28:	000a0713          	mv	a4,s4
    8000ff2c:	c18ff06f          	j	8000f344 <_svfiprintf_r+0x26c>
    8000ff30:	020cec93          	ori	s9,s9,32
    8000ff34:	001d4683          	lbu	a3,1(s10)
    8000ff38:	000c8c9b          	sext.w	s9,s9
    8000ff3c:	001d0d13          	addi	s10,s10,1
    8000ff40:	accff06f          	j	8000f20c <_svfiprintf_r+0x134>
    8000ff44:	200cec93          	ori	s9,s9,512
    8000ff48:	001d4683          	lbu	a3,1(s10)
    8000ff4c:	000c8c9b          	sext.w	s9,s9
    8000ff50:	001d0d13          	addi	s10,s10,1
    8000ff54:	ab8ff06f          	j	8000f20c <_svfiprintf_r+0x134>
    8000ff58:	00040993          	mv	s3,s0
    8000ff5c:	c50ff06f          	j	8000f3ac <_svfiprintf_r+0x2d4>
    8000ff60:	00600793          	li	a5,6
    8000ff64:	000d891b          	sext.w	s2,s11
    8000ff68:	01b7f463          	bgeu	a5,s11,8000ff70 <_svfiprintf_r+0xe98>
    8000ff6c:	00600913          	li	s2,6
    8000ff70:	00023337          	lui	t1,0x23
    8000ff74:	00090b93          	mv	s7,s2
    8000ff78:	00d13423          	sd	a3,8(sp)
    8000ff7c:	ef030c13          	addi	s8,t1,-272 # 22ef0 <_start-0x7ffdd12c>
    8000ff80:	b10ff06f          	j	8000f290 <_svfiprintf_r+0x1b8>
    8000ff84:	200cf793          	andi	a5,s9,512
    8000ff88:	08078263          	beqz	a5,8001000c <_svfiprintf_r+0xf34>
    8000ff8c:	0ffbfb93          	andi	s7,s7,255
    8000ff90:	e21ff06f          	j	8000fdb0 <_svfiprintf_r+0xcd8>
    8000ff94:	200cf793          	andi	a5,s9,512
    8000ff98:	06078463          	beqz	a5,80010000 <_svfiprintf_r+0xf28>
    8000ff9c:	0ffbfb93          	andi	s7,s7,255
    8000ffa0:	ed8ff06f          	j	8000f678 <_svfiprintf_r+0x5a0>
    8000ffa4:	2006f793          	andi	a5,a3,512
    8000ffa8:	04078263          	beqz	a5,8000ffec <_svfiprintf_r+0xf14>
    8000ffac:	0ffbfb93          	andi	s7,s7,255
    8000ffb0:	00c13423          	sd	a2,8(sp)
    8000ffb4:	00100793          	li	a5,1
    8000ffb8:	dacff06f          	j	8000f564 <_svfiprintf_r+0x48c>
    8000ffbc:	200cf793          	andi	a5,s9,512
    8000ffc0:	00078e63          	beqz	a5,8000ffdc <_svfiprintf_r+0xf04>
    8000ffc4:	00813783          	ld	a5,8(sp)
    8000ffc8:	00078b83          	lb	s7,0(a5)
    8000ffcc:	000b8793          	mv	a5,s7
    8000ffd0:	cfcff06f          	j	8000f4cc <_svfiprintf_r+0x3f4>
    8000ffd4:	00068613          	mv	a2,a3
    8000ffd8:	9e5ff06f          	j	8000f9bc <_svfiprintf_r+0x8e4>
    8000ffdc:	00813783          	ld	a5,8(sp)
    8000ffe0:	0007ab83          	lw	s7,0(a5)
    8000ffe4:	000b8793          	mv	a5,s7
    8000ffe8:	ce4ff06f          	j	8000f4cc <_svfiprintf_r+0x3f4>
    8000ffec:	020b9b93          	slli	s7,s7,0x20
    8000fff0:	020bdb93          	srli	s7,s7,0x20
    8000fff4:	00c13423          	sd	a2,8(sp)
    8000fff8:	00100793          	li	a5,1
    8000fffc:	d68ff06f          	j	8000f564 <_svfiprintf_r+0x48c>
    80010000:	020b9b93          	slli	s7,s7,0x20
    80010004:	020bdb93          	srli	s7,s7,0x20
    80010008:	e70ff06f          	j	8000f678 <_svfiprintf_r+0x5a0>
    8001000c:	020b9b93          	slli	s7,s7,0x20
    80010010:	020bdb93          	srli	s7,s7,0x20
    80010014:	d9dff06f          	j	8000fdb0 <_svfiprintf_r+0xcd8>
    80010018:	00013783          	ld	a5,0(sp)
    8001001c:	00f69023          	sh	a5,0(a3)
    80010020:	95cff06f          	j	8000f17c <_svfiprintf_r+0xa4>
    80010024:	06010613          	addi	a2,sp,96
    80010028:	00098593          	mv	a1,s3
    8001002c:	000a8513          	mv	a0,s5
    80010030:	ec1fe0ef          	jal	ra,8000eef0 <__ssprint_r>
    80010034:	b78ff06f          	j	8000f3ac <_svfiprintf_r+0x2d4>
    80010038:	000d8913          	mv	s2,s11
    8001003c:	00d13423          	sd	a3,8(sp)
    80010040:	00000d93          	li	s11,0
    80010044:	cc0ff06f          	j	8000f504 <_svfiprintf_r+0x42c>
    80010048:	000c8693          	mv	a3,s9
    8001004c:	ca4ff06f          	j	8000f4f0 <_svfiprintf_r+0x418>
    80010050:	00068513          	mv	a0,a3
    80010054:	00058613          	mv	a2,a1
    80010058:	8c1ff06f          	j	8000f918 <_svfiprintf_r+0x840>
    8001005c:	00f6a023          	sw	a5,0(a3)
    80010060:	91cff06f          	j	8000f17c <_svfiprintf_r+0xa4>
    80010064:	fff00793          	li	a5,-1
    80010068:	00f13023          	sd	a5,0(sp)
    8001006c:	b4cff06f          	j	8000f3b8 <_svfiprintf_r+0x2e0>
    80010070:	00813703          	ld	a4,8(sp)
    80010074:	00072683          	lw	a3,0(a4)
    80010078:	00870613          	addi	a2,a4,8
    8001007c:	00068d9b          	sext.w	s11,a3
    80010080:	0006d463          	bgez	a3,80010088 <_svfiprintf_r+0xfb0>
    80010084:	fff00d93          	li	s11,-1
    80010088:	001d4683          	lbu	a3,1(s10)
    8001008c:	00c13423          	sd	a2,8(sp)
    80010090:	00078d13          	mv	s10,a5
    80010094:	978ff06f          	j	8000f20c <_svfiprintf_r+0x134>
    80010098:	00c00793          	li	a5,12
    8001009c:	00faa023          	sw	a5,0(s5)
    800100a0:	fff00793          	li	a5,-1
    800100a4:	00f13023          	sd	a5,0(sp)
    800100a8:	b10ff06f          	j	8000f3b8 <_svfiprintf_r+0x2e0>

00000000800100ac <_wcrtomb_r>:
    800100ac:	fd010113          	addi	sp,sp,-48

00000000800100b0 <register_fini>:
    800100b0:	02813023          	sd	s0,32(sp)
    800100b4:	00913c23          	sd	s1,24(sp)
    800100b8:	000257b7          	lui	a5,0x25
    800100bc:	02113423          	sd	ra,40(sp)
    800100c0:	8487b783          	ld	a5,-1976(a5) # 24848 <_start-0x7ffdb7d4>
    800100c4:	00050413          	mv	s0,a0
    800100c8:	00068493          	mv	s1,a3
    800100cc:	02058263          	beqz	a1,800100f0 <register_fini+0x40>
    800100d0:	000780e7          	jalr	a5
    800100d4:	fff00793          	li	a5,-1
    800100d8:	02f50663          	beq	a0,a5,80010104 <register_fini+0x54>
    800100dc:	02813083          	ld	ra,40(sp)
    800100e0:	02013403          	ld	s0,32(sp)
    800100e4:	01813483          	ld	s1,24(sp)
    800100e8:	03010113          	addi	sp,sp,48
    800100ec:	00008067          	ret
    800100f0:	00000613          	li	a2,0
    800100f4:	00010593          	mv	a1,sp
    800100f8:	000780e7          	jalr	a5
    800100fc:	fff00793          	li	a5,-1
    80010100:	fcf51ee3          	bne	a0,a5,800100dc <register_fini+0x2c>
    80010104:	0004a023          	sw	zero,0(s1)
    80010108:	08a00793          	li	a5,138
    8001010c:	02813083          	ld	ra,40(sp)
    80010110:	00f42023          	sw	a5,0(s0)
    80010114:	02013403          	ld	s0,32(sp)
    80010118:	01813483          	ld	s1,24(sp)

000000008001011c <__do_global_dtors_aux>:
    8001011c:	03010113          	addi	sp,sp,48
    80010120:	00008067          	ret

0000000080010124 <wcrtomb>:
    80010124:	fd010113          	addi	sp,sp,-48
    80010128:	02813023          	sd	s0,32(sp)
    8001012c:	00913c23          	sd	s1,24(sp)
    80010130:	02113423          	sd	ra,40(sp)
    80010134:	8401b483          	ld	s1,-1984(gp) # 80015160 <_impure_ptr>
    80010138:	000257b7          	lui	a5,0x25
    8001013c:	8487b783          	ld	a5,-1976(a5) # 24848 <_start-0x7ffdb7d4>
    80010140:	00060413          	mv	s0,a2
    80010144:	02050a63          	beqz	a0,80010178 <frame_dummy+0xc>
    80010148:	00058613          	mv	a2,a1
    8001014c:	00040693          	mv	a3,s0
    80010150:	00050593          	mv	a1,a0
    80010154:	00048513          	mv	a0,s1
    80010158:	000780e7          	jalr	a5
    8001015c:	fff00793          	li	a5,-1
    80010160:	02f50a63          	beq	a0,a5,80010194 <frame_dummy+0x28>
    80010164:	02813083          	ld	ra,40(sp)
    80010168:	02013403          	ld	s0,32(sp)

000000008001016c <frame_dummy>:
    8001016c:	01813483          	ld	s1,24(sp)
    80010170:	03010113          	addi	sp,sp,48
    80010174:	00008067          	ret
    80010178:	00060693          	mv	a3,a2
    8001017c:	00010593          	mv	a1,sp
    80010180:	00000613          	li	a2,0
    80010184:	00048513          	mv	a0,s1
    80010188:	000780e7          	jalr	a5
    8001018c:	fff00793          	li	a5,-1
    80010190:	fcf51ae3          	bne	a0,a5,80010164 <wcrtomb+0x40>
    80010194:	00042023          	sw	zero,0(s0)
    80010198:	02813083          	ld	ra,40(sp)
    8001019c:	02013403          	ld	s0,32(sp)
    800101a0:	08a00793          	li	a5,138
    800101a4:	00f4a023          	sw	a5,0(s1)
    800101a8:	01813483          	ld	s1,24(sp)
    800101ac:	03010113          	addi	sp,sp,48
    800101b0:	00008067          	ret

00000000800101b4 <abort>:
    800101b4:	ff010113          	addi	sp,sp,-16
    800101b8:	00600513          	li	a0,6
    800101bc:	00113423          	sd	ra,8(sp)
    800101c0:	374000ef          	jal	ra,80010534 <raise>
    800101c4:	00100513          	li	a0,1
    800101c8:	6ec000ef          	jal	ra,800108b4 <_exit>

00000000800101cc <__register_exitproc>:
    800101cc:	8301b703          	ld	a4,-2000(gp) # 80015150 <_global_impure_ptr>
    800101d0:	00004033          	nop
    800101d4:	06078063          	beqz	a5,80010234 <__register_exitproc+0x68>
    800101d8:	00004033          	nop
    800101dc:	01f00813          	li	a6,31
    800101e0:	08e84663          	blt	a6,a4,8001026c <__register_exitproc+0xa0>
    800101e4:	02050863          	beqz	a0,80010214 <__register_exitproc+0x48>
    800101e8:	00371813          	slli	a6,a4,0x3
    800101ec:	01078833          	add	a6,a5,a6
    800101f0:	10c83823          	sd	a2,272(a6)
    800101f4:	3107a883          	lw	a7,784(a5)
    800101f8:	00100613          	li	a2,1
    800101fc:	00e6163b          	sllw	a2,a2,a4
    80010200:	00c8e8b3          	or	a7,a7,a2
    80010204:	3117a823          	sw	a7,784(a5)
    80010208:	20d83823          	sd	a3,528(a6)
    8001020c:	00200693          	li	a3,2
    80010210:	02d50863          	beq	a0,a3,80010240 <__register_exitproc+0x74>
    80010214:	00270693          	addi	a3,a4,2
    80010218:	00369693          	slli	a3,a3,0x3
    8001021c:	0017071b          	addiw	a4,a4,1
    80010220:	00004033          	nop
    80010224:	00d787b3          	add	a5,a5,a3
    80010228:	00004033          	nop
    8001022c:	00000513          	li	a0,0
    80010230:	00008067          	ret
    80010234:	20070793          	addi	a5,a4,512
    80010238:	00004033          	nop
    8001023c:	f9dff06f          	j	800101d8 <__register_exitproc+0xc>
    80010240:	00004033          	nop
    80010244:	00000513          	li	a0,0
    80010248:	00c6e633          	or	a2,a3,a2
    8001024c:	00270693          	addi	a3,a4,2
    80010250:	00369693          	slli	a3,a3,0x3
    80010254:	0017071b          	addiw	a4,a4,1
    80010258:	00004033          	nop
    8001025c:	00004033          	nop
    80010260:	00d787b3          	add	a5,a5,a3
    80010264:	00004033          	nop
    80010268:	00008067          	ret
    8001026c:	fff00513          	li	a0,-1
    80010270:	00008067          	ret

0000000080010274 <_init_signal_r>:
    80010274:	51853783          	ld	a5,1304(a0)
    80010278:	00078663          	beqz	a5,80010284 <_init_signal_r+0x10>
    8001027c:	00000513          	li	a0,0
    80010280:	00008067          	ret
    80010284:	ff010113          	addi	sp,sp,-16
    80010288:	10000593          	li	a1,256
    8001028c:	00813023          	sd	s0,0(sp)
    80010290:	00113423          	sd	ra,8(sp)
    80010294:	00050413          	mv	s0,a0
    80010298:	9e4f80ef          	jal	ra,8000847c <_malloc_r>
    8001029c:	50a43c23          	sd	a0,1304(s0)
    800102a0:	02050463          	beqz	a0,800102c8 <_init_signal_r+0x54>
    800102a4:	10050793          	addi	a5,a0,256
    800102a8:	00053023          	sd	zero,0(a0)
    800102ac:	00850513          	addi	a0,a0,8
    800102b0:	fef51ce3          	bne	a0,a5,800102a8 <_init_signal_r+0x34>
    800102b4:	00000513          	li	a0,0
    800102b8:	00813083          	ld	ra,8(sp)
    800102bc:	00013403          	ld	s0,0(sp)
    800102c0:	01010113          	addi	sp,sp,16
    800102c4:	00008067          	ret
    800102c8:	fff00513          	li	a0,-1
    800102cc:	fedff06f          	j	800102b8 <_init_signal_r+0x44>

00000000800102d0 <_signal_r>:
    800102d0:	fd010113          	addi	sp,sp,-48
    800102d4:	00913c23          	sd	s1,24(sp)
    800102d8:	02113423          	sd	ra,40(sp)
    800102dc:	02813023          	sd	s0,32(sp)
    800102e0:	01f00793          	li	a5,31
    800102e4:	00050493          	mv	s1,a0
    800102e8:	02b7ea63          	bltu	a5,a1,8001031c <_signal_r+0x4c>
    800102ec:	51853703          	ld	a4,1304(a0)
    800102f0:	00058413          	mv	s0,a1
    800102f4:	04070463          	beqz	a4,8001033c <_signal_r+0x6c>
    800102f8:	00341413          	slli	s0,s0,0x3
    800102fc:	00870433          	add	s0,a4,s0
    80010300:	00043503          	ld	a0,0(s0)
    80010304:	00c43023          	sd	a2,0(s0)
    80010308:	02813083          	ld	ra,40(sp)
    8001030c:	02013403          	ld	s0,32(sp)
    80010310:	01813483          	ld	s1,24(sp)
    80010314:	03010113          	addi	sp,sp,48
    80010318:	00008067          	ret
    8001031c:	02813083          	ld	ra,40(sp)
    80010320:	02013403          	ld	s0,32(sp)
    80010324:	01600793          	li	a5,22
    80010328:	00f52023          	sw	a5,0(a0)
    8001032c:	01813483          	ld	s1,24(sp)
    80010330:	fff00513          	li	a0,-1
    80010334:	03010113          	addi	sp,sp,48
    80010338:	00008067          	ret
    8001033c:	10000593          	li	a1,256
    80010340:	00c13423          	sd	a2,8(sp)
    80010344:	938f80ef          	jal	ra,8000847c <_malloc_r>
    80010348:	50a4bc23          	sd	a0,1304(s1)
    8001034c:	00050713          	mv	a4,a0
    80010350:	02050063          	beqz	a0,80010370 <_signal_r+0xa0>
    80010354:	00813603          	ld	a2,8(sp)
    80010358:	00050793          	mv	a5,a0
    8001035c:	10050693          	addi	a3,a0,256
    80010360:	0007b023          	sd	zero,0(a5)
    80010364:	00878793          	addi	a5,a5,8
    80010368:	fef69ce3          	bne	a3,a5,80010360 <_signal_r+0x90>
    8001036c:	f8dff06f          	j	800102f8 <_signal_r+0x28>
    80010370:	fff00513          	li	a0,-1
    80010374:	f95ff06f          	j	80010308 <_signal_r+0x38>

0000000080010378 <_raise_r>:
    80010378:	fe010113          	addi	sp,sp,-32
    8001037c:	00913423          	sd	s1,8(sp)
    80010380:	00113c23          	sd	ra,24(sp)
    80010384:	00813823          	sd	s0,16(sp)
    80010388:	01f00793          	li	a5,31
    8001038c:	00050493          	mv	s1,a0
    80010390:	0ab7ea63          	bltu	a5,a1,80010444 <_raise_r+0xcc>
    80010394:	51853783          	ld	a5,1304(a0)
    80010398:	00058413          	mv	s0,a1
    8001039c:	04078463          	beqz	a5,800103e4 <_raise_r+0x6c>
    800103a0:	00359713          	slli	a4,a1,0x3
    800103a4:	00e787b3          	add	a5,a5,a4
    800103a8:	0007b703          	ld	a4,0(a5)
    800103ac:	02070c63          	beqz	a4,800103e4 <_raise_r+0x6c>
    800103b0:	00100693          	li	a3,1
    800103b4:	06d70c63          	beq	a4,a3,8001042c <_raise_r+0xb4>
    800103b8:	fff00693          	li	a3,-1
    800103bc:	04d70863          	beq	a4,a3,8001040c <_raise_r+0x94>
    800103c0:	00058513          	mv	a0,a1
    800103c4:	0007b023          	sd	zero,0(a5)
    800103c8:	000700e7          	jalr	a4
    800103cc:	00000513          	li	a0,0
    800103d0:	01813083          	ld	ra,24(sp)
    800103d4:	01013403          	ld	s0,16(sp)
    800103d8:	00813483          	ld	s1,8(sp)
    800103dc:	02010113          	addi	sp,sp,32
    800103e0:	00008067          	ret
    800103e4:	00048513          	mv	a0,s1
    800103e8:	470000ef          	jal	ra,80010858 <_getpid_r>
    800103ec:	00040613          	mv	a2,s0
    800103f0:	01013403          	ld	s0,16(sp)
    800103f4:	01813083          	ld	ra,24(sp)
    800103f8:	00050593          	mv	a1,a0
    800103fc:	00048513          	mv	a0,s1
    80010400:	00813483          	ld	s1,8(sp)
    80010404:	02010113          	addi	sp,sp,32
    80010408:	3ec0006f          	j	800107f4 <_kill_r>
    8001040c:	01813083          	ld	ra,24(sp)
    80010410:	01013403          	ld	s0,16(sp)
    80010414:	01600793          	li	a5,22
    80010418:	00f52023          	sw	a5,0(a0)
    8001041c:	00813483          	ld	s1,8(sp)
    80010420:	00100513          	li	a0,1
    80010424:	02010113          	addi	sp,sp,32
    80010428:	00008067          	ret
    8001042c:	01813083          	ld	ra,24(sp)
    80010430:	01013403          	ld	s0,16(sp)
    80010434:	00813483          	ld	s1,8(sp)
    80010438:	00000513          	li	a0,0
    8001043c:	02010113          	addi	sp,sp,32
    80010440:	00008067          	ret
    80010444:	01600793          	li	a5,22
    80010448:	00f52023          	sw	a5,0(a0)
    8001044c:	fff00513          	li	a0,-1
    80010450:	f81ff06f          	j	800103d0 <_raise_r+0x58>

0000000080010454 <__sigtramp_r>:
    80010454:	01f00793          	li	a5,31
    80010458:	0cb7ea63          	bltu	a5,a1,8001052c <__sigtramp_r+0xd8>
    8001045c:	51853703          	ld	a4,1304(a0)
    80010460:	fe010113          	addi	sp,sp,-32
    80010464:	00813823          	sd	s0,16(sp)
    80010468:	00913423          	sd	s1,8(sp)
    8001046c:	00113c23          	sd	ra,24(sp)
    80010470:	00058413          	mv	s0,a1
    80010474:	00050493          	mv	s1,a0
    80010478:	06070063          	beqz	a4,800104d8 <__sigtramp_r+0x84>
    8001047c:	00341513          	slli	a0,s0,0x3
    80010480:	00a70733          	add	a4,a4,a0
    80010484:	00073783          	ld	a5,0(a4)
    80010488:	02078c63          	beqz	a5,800104c0 <__sigtramp_r+0x6c>
    8001048c:	fff00693          	li	a3,-1
    80010490:	08d78663          	beq	a5,a3,8001051c <__sigtramp_r+0xc8>
    80010494:	00100693          	li	a3,1
    80010498:	06d78663          	beq	a5,a3,80010504 <__sigtramp_r+0xb0>
    8001049c:	00040513          	mv	a0,s0
    800104a0:	00073023          	sd	zero,0(a4)
    800104a4:	000780e7          	jalr	a5
    800104a8:	00000513          	li	a0,0
    800104ac:	01813083          	ld	ra,24(sp)
    800104b0:	01013403          	ld	s0,16(sp)
    800104b4:	00813483          	ld	s1,8(sp)
    800104b8:	02010113          	addi	sp,sp,32
    800104bc:	00008067          	ret
    800104c0:	01813083          	ld	ra,24(sp)
    800104c4:	01013403          	ld	s0,16(sp)
    800104c8:	00813483          	ld	s1,8(sp)
    800104cc:	00100513          	li	a0,1
    800104d0:	02010113          	addi	sp,sp,32
    800104d4:	00008067          	ret
    800104d8:	10000593          	li	a1,256
    800104dc:	fa1f70ef          	jal	ra,8000847c <_malloc_r>
    800104e0:	50a4bc23          	sd	a0,1304(s1)
    800104e4:	00050713          	mv	a4,a0
    800104e8:	02050e63          	beqz	a0,80010524 <__sigtramp_r+0xd0>
    800104ec:	00050793          	mv	a5,a0
    800104f0:	10050693          	addi	a3,a0,256
    800104f4:	0007b023          	sd	zero,0(a5)
    800104f8:	00878793          	addi	a5,a5,8
    800104fc:	fed79ce3          	bne	a5,a3,800104f4 <__sigtramp_r+0xa0>
    80010500:	f7dff06f          	j	8001047c <__sigtramp_r+0x28>
    80010504:	01813083          	ld	ra,24(sp)
    80010508:	01013403          	ld	s0,16(sp)
    8001050c:	00813483          	ld	s1,8(sp)
    80010510:	00300513          	li	a0,3
    80010514:	02010113          	addi	sp,sp,32
    80010518:	00008067          	ret
    8001051c:	00200513          	li	a0,2
    80010520:	f8dff06f          	j	800104ac <__sigtramp_r+0x58>
    80010524:	fff00513          	li	a0,-1
    80010528:	f85ff06f          	j	800104ac <__sigtramp_r+0x58>
    8001052c:	fff00513          	li	a0,-1
    80010530:	00008067          	ret

0000000080010534 <raise>:
    80010534:	fe010113          	addi	sp,sp,-32
    80010538:	00913423          	sd	s1,8(sp)
    8001053c:	00113c23          	sd	ra,24(sp)
    80010540:	00813823          	sd	s0,16(sp)
    80010544:	01f00793          	li	a5,31
    80010548:	8401b483          	ld	s1,-1984(gp) # 80015160 <_impure_ptr>
    8001054c:	0aa7e863          	bltu	a5,a0,800105fc <raise+0xc8>
    80010550:	5184b783          	ld	a5,1304(s1)
    80010554:	00050413          	mv	s0,a0
    80010558:	04078263          	beqz	a5,8001059c <raise+0x68>
    8001055c:	00351713          	slli	a4,a0,0x3
    80010560:	00e787b3          	add	a5,a5,a4
    80010564:	0007b703          	ld	a4,0(a5)
    80010568:	02070a63          	beqz	a4,8001059c <raise+0x68>
    8001056c:	00100693          	li	a3,1
    80010570:	06d70a63          	beq	a4,a3,800105e4 <raise+0xb0>
    80010574:	fff00693          	li	a3,-1
    80010578:	04d70663          	beq	a4,a3,800105c4 <raise+0x90>
    8001057c:	0007b023          	sd	zero,0(a5)
    80010580:	000700e7          	jalr	a4
    80010584:	00000513          	li	a0,0
    80010588:	01813083          	ld	ra,24(sp)
    8001058c:	01013403          	ld	s0,16(sp)
    80010590:	00813483          	ld	s1,8(sp)
    80010594:	02010113          	addi	sp,sp,32
    80010598:	00008067          	ret
    8001059c:	00048513          	mv	a0,s1
    800105a0:	2b8000ef          	jal	ra,80010858 <_getpid_r>
    800105a4:	00040613          	mv	a2,s0
    800105a8:	01013403          	ld	s0,16(sp)
    800105ac:	01813083          	ld	ra,24(sp)
    800105b0:	00050593          	mv	a1,a0
    800105b4:	00048513          	mv	a0,s1
    800105b8:	00813483          	ld	s1,8(sp)
    800105bc:	02010113          	addi	sp,sp,32
    800105c0:	2340006f          	j	800107f4 <_kill_r>
    800105c4:	01813083          	ld	ra,24(sp)
    800105c8:	01013403          	ld	s0,16(sp)
    800105cc:	01600793          	li	a5,22
    800105d0:	00f4a023          	sw	a5,0(s1)
    800105d4:	00100513          	li	a0,1
    800105d8:	00813483          	ld	s1,8(sp)
    800105dc:	02010113          	addi	sp,sp,32
    800105e0:	00008067          	ret
    800105e4:	01813083          	ld	ra,24(sp)
    800105e8:	01013403          	ld	s0,16(sp)
    800105ec:	00813483          	ld	s1,8(sp)
    800105f0:	00000513          	li	a0,0
    800105f4:	02010113          	addi	sp,sp,32
    800105f8:	00008067          	ret
    800105fc:	01600793          	li	a5,22
    80010600:	00f4a023          	sw	a5,0(s1)
    80010604:	fff00513          	li	a0,-1
    80010608:	f81ff06f          	j	80010588 <raise+0x54>

000000008001060c <signal>:
    8001060c:	fe010113          	addi	sp,sp,-32
    80010610:	01213023          	sd	s2,0(sp)
    80010614:	00113c23          	sd	ra,24(sp)
    80010618:	00813823          	sd	s0,16(sp)
    8001061c:	00913423          	sd	s1,8(sp)
    80010620:	01f00793          	li	a5,31
    80010624:	8401b903          	ld	s2,-1984(gp) # 80015160 <_impure_ptr>
    80010628:	02a7ee63          	bltu	a5,a0,80010664 <signal+0x58>
    8001062c:	00050413          	mv	s0,a0
    80010630:	51893503          	ld	a0,1304(s2)
    80010634:	00058493          	mv	s1,a1
    80010638:	04050863          	beqz	a0,80010688 <signal+0x7c>
    8001063c:	00341413          	slli	s0,s0,0x3
    80010640:	00850433          	add	s0,a0,s0
    80010644:	00043503          	ld	a0,0(s0)
    80010648:	00943023          	sd	s1,0(s0)
    8001064c:	01813083          	ld	ra,24(sp)
    80010650:	01013403          	ld	s0,16(sp)
    80010654:	00813483          	ld	s1,8(sp)
    80010658:	00013903          	ld	s2,0(sp)
    8001065c:	02010113          	addi	sp,sp,32
    80010660:	00008067          	ret
    80010664:	01813083          	ld	ra,24(sp)
    80010668:	01013403          	ld	s0,16(sp)
    8001066c:	01600793          	li	a5,22
    80010670:	00f92023          	sw	a5,0(s2)
    80010674:	00813483          	ld	s1,8(sp)
    80010678:	00013903          	ld	s2,0(sp)
    8001067c:	fff00513          	li	a0,-1
    80010680:	02010113          	addi	sp,sp,32
    80010684:	00008067          	ret
    80010688:	10000593          	li	a1,256
    8001068c:	00090513          	mv	a0,s2
    80010690:	dedf70ef          	jal	ra,8000847c <_malloc_r>
    80010694:	50a93c23          	sd	a0,1304(s2)
    80010698:	00050e63          	beqz	a0,800106b4 <signal+0xa8>
    8001069c:	00050793          	mv	a5,a0
    800106a0:	10050713          	addi	a4,a0,256
    800106a4:	0007b023          	sd	zero,0(a5)
    800106a8:	00878793          	addi	a5,a5,8
    800106ac:	fef71ce3          	bne	a4,a5,800106a4 <signal+0x98>
    800106b0:	f8dff06f          	j	8001063c <signal+0x30>
    800106b4:	fff00513          	li	a0,-1
    800106b8:	f95ff06f          	j	8001064c <signal+0x40>

00000000800106bc <_init_signal>:
    800106bc:	ff010113          	addi	sp,sp,-16
    800106c0:	00813023          	sd	s0,0(sp)
    800106c4:	8401b403          	ld	s0,-1984(gp) # 80015160 <_impure_ptr>
    800106c8:	00113423          	sd	ra,8(sp)
    800106cc:	51843783          	ld	a5,1304(s0)
    800106d0:	00078c63          	beqz	a5,800106e8 <_init_signal+0x2c>
    800106d4:	00000513          	li	a0,0
    800106d8:	00813083          	ld	ra,8(sp)
    800106dc:	00013403          	ld	s0,0(sp)
    800106e0:	01010113          	addi	sp,sp,16
    800106e4:	00008067          	ret
    800106e8:	10000593          	li	a1,256
    800106ec:	00040513          	mv	a0,s0
    800106f0:	d8df70ef          	jal	ra,8000847c <_malloc_r>
    800106f4:	50a43c23          	sd	a0,1304(s0)
    800106f8:	00050c63          	beqz	a0,80010710 <_init_signal+0x54>
    800106fc:	10050793          	addi	a5,a0,256
    80010700:	00053023          	sd	zero,0(a0)
    80010704:	00850513          	addi	a0,a0,8
    80010708:	fef51ce3          	bne	a0,a5,80010700 <_init_signal+0x44>
    8001070c:	fc9ff06f          	j	800106d4 <_init_signal+0x18>
    80010710:	fff00513          	li	a0,-1
    80010714:	fc5ff06f          	j	800106d8 <_init_signal+0x1c>

0000000080010718 <__sigtramp>:
    80010718:	fe010113          	addi	sp,sp,-32
    8001071c:	00913423          	sd	s1,8(sp)
    80010720:	00113c23          	sd	ra,24(sp)
    80010724:	00813823          	sd	s0,16(sp)
    80010728:	01f00793          	li	a5,31
    8001072c:	8401b483          	ld	s1,-1984(gp) # 80015160 <_impure_ptr>
    80010730:	0aa7ee63          	bltu	a5,a0,800107ec <__sigtramp+0xd4>
    80010734:	5184b703          	ld	a4,1304(s1)
    80010738:	00050413          	mv	s0,a0
    8001073c:	06070063          	beqz	a4,8001079c <__sigtramp+0x84>
    80010740:	00341513          	slli	a0,s0,0x3
    80010744:	00a70733          	add	a4,a4,a0
    80010748:	00073783          	ld	a5,0(a4)
    8001074c:	02078c63          	beqz	a5,80010784 <__sigtramp+0x6c>
    80010750:	fff00693          	li	a3,-1
    80010754:	08d78863          	beq	a5,a3,800107e4 <__sigtramp+0xcc>
    80010758:	00100693          	li	a3,1
    8001075c:	06d78863          	beq	a5,a3,800107cc <__sigtramp+0xb4>
    80010760:	00040513          	mv	a0,s0
    80010764:	00073023          	sd	zero,0(a4)
    80010768:	000780e7          	jalr	a5
    8001076c:	00000513          	li	a0,0
    80010770:	01813083          	ld	ra,24(sp)
    80010774:	01013403          	ld	s0,16(sp)
    80010778:	00813483          	ld	s1,8(sp)
    8001077c:	02010113          	addi	sp,sp,32
    80010780:	00008067          	ret
    80010784:	01813083          	ld	ra,24(sp)
    80010788:	01013403          	ld	s0,16(sp)
    8001078c:	00813483          	ld	s1,8(sp)
    80010790:	00100513          	li	a0,1
    80010794:	02010113          	addi	sp,sp,32
    80010798:	00008067          	ret
    8001079c:	10000593          	li	a1,256
    800107a0:	00048513          	mv	a0,s1
    800107a4:	cd9f70ef          	jal	ra,8000847c <_malloc_r>
    800107a8:	50a4bc23          	sd	a0,1304(s1)
    800107ac:	00050713          	mv	a4,a0
    800107b0:	02050e63          	beqz	a0,800107ec <__sigtramp+0xd4>
    800107b4:	00050793          	mv	a5,a0
    800107b8:	10050693          	addi	a3,a0,256
    800107bc:	0007b023          	sd	zero,0(a5)
    800107c0:	00878793          	addi	a5,a5,8
    800107c4:	fed79ce3          	bne	a5,a3,800107bc <__sigtramp+0xa4>
    800107c8:	f79ff06f          	j	80010740 <__sigtramp+0x28>
    800107cc:	01813083          	ld	ra,24(sp)
    800107d0:	01013403          	ld	s0,16(sp)
    800107d4:	00813483          	ld	s1,8(sp)
    800107d8:	00300513          	li	a0,3
    800107dc:	02010113          	addi	sp,sp,32
    800107e0:	00008067          	ret
    800107e4:	00200513          	li	a0,2
    800107e8:	f89ff06f          	j	80010770 <__sigtramp+0x58>
    800107ec:	fff00513          	li	a0,-1
    800107f0:	f81ff06f          	j	80010770 <__sigtramp+0x58>

00000000800107f4 <_kill_r>:
    800107f4:	fe010113          	addi	sp,sp,-32
    800107f8:	00058713          	mv	a4,a1
    800107fc:	00813823          	sd	s0,16(sp)
    80010800:	00913423          	sd	s1,8(sp)
    80010804:	00050413          	mv	s0,a0
    80010808:	00060593          	mv	a1,a2
    8001080c:	00070513          	mv	a0,a4
    80010810:	00113c23          	sd	ra,24(sp)
    80010814:	8c01a423          	sw	zero,-1848(gp) # 800151e8 <errno>
    80010818:	19c000ef          	jal	ra,800109b4 <_kill>
    8001081c:	fff00793          	li	a5,-1
    80010820:	00f50c63          	beq	a0,a5,80010838 <_kill_r+0x44>
    80010824:	01813083          	ld	ra,24(sp)
    80010828:	01013403          	ld	s0,16(sp)
    8001082c:	00813483          	ld	s1,8(sp)
    80010830:	02010113          	addi	sp,sp,32
    80010834:	00008067          	ret
    80010838:	8c81a783          	lw	a5,-1848(gp) # 800151e8 <errno>
    8001083c:	fe0784e3          	beqz	a5,80010824 <_kill_r+0x30>
    80010840:	01813083          	ld	ra,24(sp)
    80010844:	00f42023          	sw	a5,0(s0)
    80010848:	01013403          	ld	s0,16(sp)
    8001084c:	00813483          	ld	s1,8(sp)
    80010850:	02010113          	addi	sp,sp,32
    80010854:	00008067          	ret

0000000080010858 <_getpid_r>:
    80010858:	1140006f          	j	8001096c <_getpid>

000000008001085c <_close>:
    8001085c:	ff010113          	addi	sp,sp,-16
    80010860:	00113423          	sd	ra,8(sp)
    80010864:	00813023          	sd	s0,0(sp)
    80010868:	00000593          	li	a1,0
    8001086c:	00000613          	li	a2,0
    80010870:	00000693          	li	a3,0
    80010874:	00000713          	li	a4,0
    80010878:	00000793          	li	a5,0
    8001087c:	03900893          	li	a7,57
    80010880:	00000073          	ecall
    80010884:	00050413          	mv	s0,a0
    80010888:	00054c63          	bltz	a0,800108a0 <_close+0x44>
    8001088c:	0005051b          	sext.w	a0,a0
    80010890:	00813083          	ld	ra,8(sp)
    80010894:	00013403          	ld	s0,0(sp)
    80010898:	01010113          	addi	sp,sp,16
    8001089c:	00008067          	ret
    800108a0:	41c000ef          	jal	ra,80010cbc <__errno>
    800108a4:	4080043b          	negw	s0,s0
    800108a8:	00852023          	sw	s0,0(a0)
    800108ac:	fff00513          	li	a0,-1
    800108b0:	fe1ff06f          	j	80010890 <_close+0x34>

00000000800108b4 <_exit>:
    800108b4:	00000593          	li	a1,0
    800108b8:	00000613          	li	a2,0
    800108bc:	00000693          	li	a3,0
    800108c0:	00000713          	li	a4,0
    800108c4:	00000793          	li	a5,0
    800108c8:	05d00893          	li	a7,93
    800108cc:	00000073          	ecall
    800108d0:	00054463          	bltz	a0,800108d8 <_exit+0x24>
    800108d4:	0000006f          	j	800108d4 <_exit+0x20>
    800108d8:	ff010113          	addi	sp,sp,-16
    800108dc:	00813023          	sd	s0,0(sp)
    800108e0:	00050413          	mv	s0,a0
    800108e4:	00113423          	sd	ra,8(sp)
    800108e8:	4080043b          	negw	s0,s0
    800108ec:	3d0000ef          	jal	ra,80010cbc <__errno>
    800108f0:	00852023          	sw	s0,0(a0)
    800108f4:	0000006f          	j	800108f4 <_exit+0x40>

00000000800108f8 <_fstat>:
    800108f8:	f6010113          	addi	sp,sp,-160
    800108fc:	08913423          	sd	s1,136(sp)
    80010900:	08113c23          	sd	ra,152(sp)
    80010904:	00058493          	mv	s1,a1
    80010908:	08813823          	sd	s0,144(sp)
    8001090c:	00010593          	mv	a1,sp
    80010910:	00000613          	li	a2,0
    80010914:	00000693          	li	a3,0
    80010918:	00000713          	li	a4,0
    8001091c:	00000793          	li	a5,0
    80010920:	05000893          	li	a7,80
    80010924:	00000073          	ecall
    80010928:	00050413          	mv	s0,a0
    8001092c:	02054663          	bltz	a0,80010958 <_fstat+0x60>
    80010930:	0005041b          	sext.w	s0,a0
    80010934:	00048513          	mv	a0,s1
    80010938:	00010593          	mv	a1,sp
    8001093c:	2bc000ef          	jal	ra,80010bf8 <_conv_stat>
    80010940:	09813083          	ld	ra,152(sp)
    80010944:	00040513          	mv	a0,s0
    80010948:	09013403          	ld	s0,144(sp)
    8001094c:	08813483          	ld	s1,136(sp)
    80010950:	0a010113          	addi	sp,sp,160
    80010954:	00008067          	ret
    80010958:	4080043b          	negw	s0,s0
    8001095c:	360000ef          	jal	ra,80010cbc <__errno>
    80010960:	00852023          	sw	s0,0(a0)
    80010964:	fff00413          	li	s0,-1
    80010968:	fcdff06f          	j	80010934 <_fstat+0x3c>

000000008001096c <_getpid>:
    8001096c:	00100513          	li	a0,1
    80010970:	00008067          	ret

0000000080010974 <_isatty>:
    80010974:	f8010113          	addi	sp,sp,-128
    80010978:	00810593          	addi	a1,sp,8
    8001097c:	06113c23          	sd	ra,120(sp)
    80010980:	f79ff0ef          	jal	ra,800108f8 <_fstat>
    80010984:	fff00793          	li	a5,-1
    80010988:	00f50e63          	beq	a0,a5,800109a4 <_isatty+0x30>
    8001098c:	00c12503          	lw	a0,12(sp)
    80010990:	07813083          	ld	ra,120(sp)
    80010994:	40d5551b          	sraiw	a0,a0,0xd
    80010998:	00157513          	andi	a0,a0,1
    8001099c:	08010113          	addi	sp,sp,128
    800109a0:	00008067          	ret
    800109a4:	07813083          	ld	ra,120(sp)
    800109a8:	00000513          	li	a0,0
    800109ac:	08010113          	addi	sp,sp,128
    800109b0:	00008067          	ret

00000000800109b4 <_kill>:
    800109b4:	ff010113          	addi	sp,sp,-16
    800109b8:	00113423          	sd	ra,8(sp)
    800109bc:	300000ef          	jal	ra,80010cbc <__errno>
    800109c0:	00813083          	ld	ra,8(sp)
    800109c4:	01600793          	li	a5,22
    800109c8:	00f52023          	sw	a5,0(a0)
    800109cc:	fff00513          	li	a0,-1
    800109d0:	01010113          	addi	sp,sp,16
    800109d4:	00008067          	ret

00000000800109d8 <_lseek>:
    800109d8:	ff010113          	addi	sp,sp,-16
    800109dc:	00113423          	sd	ra,8(sp)
    800109e0:	00813023          	sd	s0,0(sp)
    800109e4:	00000693          	li	a3,0
    800109e8:	00000713          	li	a4,0
    800109ec:	00000793          	li	a5,0
    800109f0:	03e00893          	li	a7,62
    800109f4:	00000073          	ecall
    800109f8:	00050413          	mv	s0,a0
    800109fc:	00054c63          	bltz	a0,80010a14 <_lseek+0x3c>
    80010a00:	00813083          	ld	ra,8(sp)
    80010a04:	00040513          	mv	a0,s0
    80010a08:	00013403          	ld	s0,0(sp)
    80010a0c:	01010113          	addi	sp,sp,16
    80010a10:	00008067          	ret
    80010a14:	4080043b          	negw	s0,s0
    80010a18:	2a4000ef          	jal	ra,80010cbc <__errno>
    80010a1c:	00852023          	sw	s0,0(a0)
    80010a20:	fff00413          	li	s0,-1
    80010a24:	fddff06f          	j	80010a00 <_lseek+0x28>

0000000080010a28 <_read>:
    80010a28:	ff010113          	addi	sp,sp,-16
    80010a2c:	00113423          	sd	ra,8(sp)
    80010a30:	00813023          	sd	s0,0(sp)
    80010a34:	00000693          	li	a3,0
    80010a38:	00000713          	li	a4,0
    80010a3c:	00000793          	li	a5,0
    80010a40:	03f00893          	li	a7,63
    80010a44:	00000073          	ecall
    80010a48:	00050413          	mv	s0,a0
    80010a4c:	00054c63          	bltz	a0,80010a64 <_read+0x3c>
    80010a50:	00813083          	ld	ra,8(sp)
    80010a54:	00040513          	mv	a0,s0
    80010a58:	00013403          	ld	s0,0(sp)
    80010a5c:	01010113          	addi	sp,sp,16
    80010a60:	00008067          	ret
    80010a64:	4080043b          	negw	s0,s0
    80010a68:	254000ef          	jal	ra,80010cbc <__errno>
    80010a6c:	00852023          	sw	s0,0(a0)
    80010a70:	fff00413          	li	s0,-1
    80010a74:	fddff06f          	j	80010a50 <_read+0x28>

0000000080010a78 <_sbrk>:
    80010a78:	8d01b783          	ld	a5,-1840(gp) # 800151f0 <errno+0x8>
    80010a7c:	ff010113          	addi	sp,sp,-16
    80010a80:	00113423          	sd	ra,8(sp)
    80010a84:	00050813          	mv	a6,a0
    80010a88:	02079863          	bnez	a5,80010ab8 <_sbrk+0x40>
    80010a8c:	00000513          	li	a0,0
    80010a90:	00000593          	li	a1,0
    80010a94:	00000613          	li	a2,0
    80010a98:	00000693          	li	a3,0
    80010a9c:	00000713          	li	a4,0
    80010aa0:	0d600893          	li	a7,214
    80010aa4:	00000073          	ecall
    80010aa8:	fff00713          	li	a4,-1
    80010aac:	00050793          	mv	a5,a0
    80010ab0:	04e50463          	beq	a0,a4,80010af8 <_sbrk+0x80>
    80010ab4:	8ca1b823          	sd	a0,-1840(gp) # 800151f0 <errno+0x8>
    80010ab8:	00f80533          	add	a0,a6,a5
    80010abc:	00000593          	li	a1,0
    80010ac0:	00000613          	li	a2,0
    80010ac4:	00000693          	li	a3,0
    80010ac8:	00000713          	li	a4,0
    80010acc:	00000793          	li	a5,0
    80010ad0:	0d600893          	li	a7,214
    80010ad4:	00000073          	ecall
    80010ad8:	8d01b783          	ld	a5,-1840(gp) # 800151f0 <errno+0x8>
    80010adc:	00f80833          	add	a6,a6,a5
    80010ae0:	01051c63          	bne	a0,a6,80010af8 <_sbrk+0x80>
    80010ae4:	00813083          	ld	ra,8(sp)
    80010ae8:	8ca1b823          	sd	a0,-1840(gp) # 800151f0 <errno+0x8>
    80010aec:	00078513          	mv	a0,a5
    80010af0:	01010113          	addi	sp,sp,16
    80010af4:	00008067          	ret
    80010af8:	1c4000ef          	jal	ra,80010cbc <__errno>
    80010afc:	00813083          	ld	ra,8(sp)
    80010b00:	00c00793          	li	a5,12
    80010b04:	00f52023          	sw	a5,0(a0)
    80010b08:	fff00513          	li	a0,-1
    80010b0c:	01010113          	addi	sp,sp,16
    80010b10:	00008067          	ret

0000000080010b14 <_times>:
    80010b14:	fd010113          	addi	sp,sp,-48
    80010b18:	00028737          	lui	a4,0x28
    80010b1c:	00913c23          	sd	s1,24(sp)
    80010b20:	a5070493          	addi	s1,a4,-1456 # 27a50 <_start-0x7ffd85cc>
    80010b24:	0004b783          	ld	a5,0(s1)
    80010b28:	0084b683          	ld	a3,8(s1)
    80010b2c:	02813023          	sd	s0,32(sp)
    80010b30:	02113423          	sd	ra,40(sp)
    80010b34:	00d7e7b3          	or	a5,a5,a3
    80010b38:	00050413          	mv	s0,a0
    80010b3c:	04078e63          	beqz	a5,80010b98 <_times+0x84>
    80010b40:	00010513          	mv	a0,sp
    80010b44:	00000593          	li	a1,0
    80010b48:	11c000ef          	jal	ra,80010c64 <_gettimeofday>
    80010b4c:	0004b503          	ld	a0,0(s1)
    80010b50:	00013783          	ld	a5,0(sp)
    80010b54:	0084b703          	ld	a4,8(s1)
    80010b58:	02813083          	ld	ra,40(sp)
    80010b5c:	40a787b3          	sub	a5,a5,a0
    80010b60:	000f4537          	lui	a0,0xf4
    80010b64:	24050513          	addi	a0,a0,576 # f4240 <_start-0x7ff0bddc>
    80010b68:	02a787b3          	mul	a5,a5,a0
    80010b6c:	00813503          	ld	a0,8(sp)
    80010b70:	00043823          	sd	zero,16(s0)
    80010b74:	00043c23          	sd	zero,24(s0)
    80010b78:	40e50533          	sub	a0,a0,a4
    80010b7c:	00043423          	sd	zero,8(s0)
    80010b80:	01813483          	ld	s1,24(sp)
    80010b84:	00a78533          	add	a0,a5,a0
    80010b88:	00a43023          	sd	a0,0(s0)
    80010b8c:	02013403          	ld	s0,32(sp)
    80010b90:	03010113          	addi	sp,sp,48
    80010b94:	00008067          	ret
    80010b98:	00000593          	li	a1,0
    80010b9c:	a5070513          	addi	a0,a4,-1456
    80010ba0:	0c4000ef          	jal	ra,80010c64 <_gettimeofday>
    80010ba4:	f9dff06f          	j	80010b40 <_times+0x2c>

0000000080010ba8 <_write>:
    80010ba8:	ff010113          	addi	sp,sp,-16
    80010bac:	00113423          	sd	ra,8(sp)
    80010bb0:	00813023          	sd	s0,0(sp)
    80010bb4:	00000693          	li	a3,0
    80010bb8:	00000713          	li	a4,0
    80010bbc:	00000793          	li	a5,0
    80010bc0:	04000893          	li	a7,64
    80010bc4:	00000073          	ecall
    80010bc8:	00050413          	mv	s0,a0
    80010bcc:	00054c63          	bltz	a0,80010be4 <_write+0x3c>
    80010bd0:	00813083          	ld	ra,8(sp)
    80010bd4:	00040513          	mv	a0,s0
    80010bd8:	00013403          	ld	s0,0(sp)
    80010bdc:	01010113          	addi	sp,sp,16
    80010be0:	00008067          	ret
    80010be4:	4080043b          	negw	s0,s0
    80010be8:	0d4000ef          	jal	ra,80010cbc <__errno>
    80010bec:	00852023          	sw	s0,0(a0)
    80010bf0:	fff00413          	li	s0,-1
    80010bf4:	fddff06f          	j	80010bd0 <_write+0x28>

0000000080010bf8 <_conv_stat>:
    80010bf8:	0005b383          	ld	t2,0(a1)
    80010bfc:	0085b283          	ld	t0,8(a1)
    80010c00:	0105af83          	lw	t6,16(a1)
    80010c04:	0145af03          	lw	t5,20(a1)
    80010c08:	0185ae83          	lw	t4,24(a1)
    80010c0c:	01c5ae03          	lw	t3,28(a1)
    80010c10:	0205b303          	ld	t1,32(a1)
    80010c14:	0305b883          	ld	a7,48(a1)
    80010c18:	0405b803          	ld	a6,64(a1)
    80010c1c:	0385a603          	lw	a2,56(a1)
    80010c20:	0485b683          	ld	a3,72(a1)
    80010c24:	0585b703          	ld	a4,88(a1)
    80010c28:	0685b783          	ld	a5,104(a1)
    80010c2c:	00751023          	sh	t2,0(a0)
    80010c30:	00551123          	sh	t0,2(a0)
    80010c34:	01f52223          	sw	t6,4(a0)
    80010c38:	01e51423          	sh	t5,8(a0)
    80010c3c:	01d51523          	sh	t4,10(a0)
    80010c40:	01c51623          	sh	t3,12(a0)
    80010c44:	00651723          	sh	t1,14(a0)
    80010c48:	01153823          	sd	a7,16(a0)
    80010c4c:	05053823          	sd	a6,80(a0)
    80010c50:	04c53423          	sd	a2,72(a0)
    80010c54:	00d53c23          	sd	a3,24(a0)
    80010c58:	02e53423          	sd	a4,40(a0)
    80010c5c:	02f53c23          	sd	a5,56(a0)
    80010c60:	00008067          	ret

0000000080010c64 <_gettimeofday>:
    80010c64:	ff010113          	addi	sp,sp,-16
    80010c68:	00113423          	sd	ra,8(sp)
    80010c6c:	00813023          	sd	s0,0(sp)
    80010c70:	00000593          	li	a1,0
    80010c74:	00000613          	li	a2,0
    80010c78:	00000693          	li	a3,0
    80010c7c:	00000713          	li	a4,0
    80010c80:	00000793          	li	a5,0
    80010c84:	0a900893          	li	a7,169
    80010c88:	00000073          	ecall
    80010c8c:	00050413          	mv	s0,a0
    80010c90:	00054c63          	bltz	a0,80010ca8 <_gettimeofday+0x44>
    80010c94:	0005051b          	sext.w	a0,a0
    80010c98:	00813083          	ld	ra,8(sp)
    80010c9c:	00013403          	ld	s0,0(sp)
    80010ca0:	01010113          	addi	sp,sp,16
    80010ca4:	00008067          	ret
    80010ca8:	014000ef          	jal	ra,80010cbc <__errno>
    80010cac:	4080043b          	negw	s0,s0
    80010cb0:	00852023          	sw	s0,0(a0)
    80010cb4:	fff00513          	li	a0,-1
    80010cb8:	fe1ff06f          	j	80010c98 <_gettimeofday+0x34>

0000000080010cbc <__errno>:
    80010cbc:	8401b503          	ld	a0,-1984(gp) # 80015160 <_impure_ptr>
    80010cc0:	00008067          	ret

0000000080010cc4 <__divdf3>:
    80010cc4:	fc010113          	addi	sp,sp,-64
    80010cc8:	02913423          	sd	s1,40(sp)
    80010ccc:	03455493          	srli	s1,a0,0x34
    80010cd0:	03213023          	sd	s2,32(sp)
    80010cd4:	01313c23          	sd	s3,24(sp)
    80010cd8:	01413823          	sd	s4,16(sp)
    80010cdc:	00c51993          	slli	s3,a0,0xc
    80010ce0:	02113c23          	sd	ra,56(sp)
    80010ce4:	02813823          	sd	s0,48(sp)
    80010ce8:	01513423          	sd	s5,8(sp)
    80010cec:	7ff4f493          	andi	s1,s1,2047
    80010cf0:	00058a13          	mv	s4,a1
    80010cf4:	00c9d993          	srli	s3,s3,0xc
    80010cf8:	03f55913          	srli	s2,a0,0x3f
    80010cfc:	08048863          	beqz	s1,80010d8c <__divdf3+0xc8>
    80010d00:	7ff00793          	li	a5,2047
    80010d04:	0af48463          	beq	s1,a5,80010dac <__divdf3+0xe8>
    80010d08:	00100793          	li	a5,1
    80010d0c:	00399993          	slli	s3,s3,0x3
    80010d10:	03779793          	slli	a5,a5,0x37
    80010d14:	00f9e9b3          	or	s3,s3,a5
    80010d18:	c0148493          	addi	s1,s1,-1023
    80010d1c:	00000a93          	li	s5,0
    80010d20:	034a5793          	srli	a5,s4,0x34
    80010d24:	00ca1413          	slli	s0,s4,0xc
    80010d28:	7ff7f793          	andi	a5,a5,2047
    80010d2c:	00c45413          	srli	s0,s0,0xc
    80010d30:	03fa5a13          	srli	s4,s4,0x3f
    80010d34:	08078c63          	beqz	a5,80010dcc <__divdf3+0x108>
    80010d38:	7ff00713          	li	a4,2047
    80010d3c:	0ae78863          	beq	a5,a4,80010dec <__divdf3+0x128>
    80010d40:	00100713          	li	a4,1
    80010d44:	00341413          	slli	s0,s0,0x3
    80010d48:	03771713          	slli	a4,a4,0x37
    80010d4c:	00e46433          	or	s0,s0,a4
    80010d50:	c0178793          	addi	a5,a5,-1023
    80010d54:	00000693          	li	a3,0
    80010d58:	002a9613          	slli	a2,s5,0x2
    80010d5c:	00d66633          	or	a2,a2,a3
    80010d60:	40f484b3          	sub	s1,s1,a5
    80010d64:	fff60613          	addi	a2,a2,-1
    80010d68:	00e00793          	li	a5,14
    80010d6c:	01494533          	xor	a0,s2,s4
    80010d70:	08c7ee63          	bltu	a5,a2,80010e0c <__divdf3+0x148>
    80010d74:	000247b7          	lui	a5,0x24
    80010d78:	b7078793          	addi	a5,a5,-1168 # 23b70 <_start-0x7ffdc4ac>
    80010d7c:	00261613          	slli	a2,a2,0x2
    80010d80:	00f60633          	add	a2,a2,a5
    80010d84:	00062783          	lw	a5,0(a2)
    80010d88:	00078067          	jr	a5
    80010d8c:	02098a63          	beqz	s3,80010dc0 <__divdf3+0xfc>
    80010d90:	00098513          	mv	a0,s3
    80010d94:	1d5010ef          	jal	ra,80012768 <__clzdi2>
    80010d98:	ff85079b          	addiw	a5,a0,-8
    80010d9c:	3f35051b          	addiw	a0,a0,1011
    80010da0:	00f999b3          	sll	s3,s3,a5
    80010da4:	40a004b3          	neg	s1,a0
    80010da8:	f75ff06f          	j	80010d1c <__divdf3+0x58>
    80010dac:	7ff00493          	li	s1,2047
    80010db0:	00200a93          	li	s5,2
    80010db4:	f60986e3          	beqz	s3,80010d20 <__divdf3+0x5c>
    80010db8:	00300a93          	li	s5,3
    80010dbc:	f65ff06f          	j	80010d20 <__divdf3+0x5c>
    80010dc0:	00000493          	li	s1,0
    80010dc4:	00100a93          	li	s5,1
    80010dc8:	f59ff06f          	j	80010d20 <__divdf3+0x5c>
    80010dcc:	02040a63          	beqz	s0,80010e00 <__divdf3+0x13c>
    80010dd0:	00040513          	mv	a0,s0
    80010dd4:	195010ef          	jal	ra,80012768 <__clzdi2>
    80010dd8:	ff85079b          	addiw	a5,a0,-8
    80010ddc:	3f35051b          	addiw	a0,a0,1011
    80010de0:	00f41433          	sll	s0,s0,a5
    80010de4:	40a007b3          	neg	a5,a0
    80010de8:	f6dff06f          	j	80010d54 <__divdf3+0x90>
    80010dec:	7ff00793          	li	a5,2047
    80010df0:	00200693          	li	a3,2
    80010df4:	f60402e3          	beqz	s0,80010d58 <__divdf3+0x94>
    80010df8:	00300693          	li	a3,3
    80010dfc:	f5dff06f          	j	80010d58 <__divdf3+0x94>
    80010e00:	00000793          	li	a5,0
    80010e04:	00100693          	li	a3,1
    80010e08:	f51ff06f          	j	80010d58 <__divdf3+0x94>
    80010e0c:	00841593          	slli	a1,s0,0x8
    80010e10:	1289f463          	bgeu	s3,s0,80010f38 <__divdf3+0x274>
    80010e14:	fff48493          	addi	s1,s1,-1
    80010e18:	00000693          	li	a3,0
    80010e1c:	0205d413          	srli	s0,a1,0x20
    80010e20:	0289d8b3          	divu	a7,s3,s0
    80010e24:	fff00793          	li	a5,-1
    80010e28:	0207d793          	srli	a5,a5,0x20
    80010e2c:	00f5f7b3          	and	a5,a1,a5
    80010e30:	0206d693          	srli	a3,a3,0x20
    80010e34:	0289f733          	remu	a4,s3,s0
    80010e38:	00088613          	mv	a2,a7
    80010e3c:	03178833          	mul	a6,a5,a7
    80010e40:	02071713          	slli	a4,a4,0x20
    80010e44:	00e6e733          	or	a4,a3,a4
    80010e48:	01077e63          	bgeu	a4,a6,80010e64 <__divdf3+0x1a0>
    80010e4c:	00b70733          	add	a4,a4,a1
    80010e50:	fff88613          	addi	a2,a7,-1
    80010e54:	00b76863          	bltu	a4,a1,80010e64 <__divdf3+0x1a0>
    80010e58:	01077663          	bgeu	a4,a6,80010e64 <__divdf3+0x1a0>
    80010e5c:	ffe88613          	addi	a2,a7,-2
    80010e60:	00b70733          	add	a4,a4,a1
    80010e64:	41070733          	sub	a4,a4,a6
    80010e68:	02875833          	divu	a6,a4,s0
    80010e6c:	02877733          	remu	a4,a4,s0
    80010e70:	030786b3          	mul	a3,a5,a6
    80010e74:	02071793          	slli	a5,a4,0x20
    80010e78:	00080713          	mv	a4,a6
    80010e7c:	00d7fe63          	bgeu	a5,a3,80010e98 <__divdf3+0x1d4>
    80010e80:	00b787b3          	add	a5,a5,a1
    80010e84:	fff80713          	addi	a4,a6,-1
    80010e88:	00b7e863          	bltu	a5,a1,80010e98 <__divdf3+0x1d4>
    80010e8c:	00d7f663          	bgeu	a5,a3,80010e98 <__divdf3+0x1d4>
    80010e90:	ffe80713          	addi	a4,a6,-2
    80010e94:	00b787b3          	add	a5,a5,a1
    80010e98:	02061413          	slli	s0,a2,0x20
    80010e9c:	40d787b3          	sub	a5,a5,a3
    80010ea0:	00e46433          	or	s0,s0,a4
    80010ea4:	00f037b3          	snez	a5,a5
    80010ea8:	00f46433          	or	s0,s0,a5
    80010eac:	3ff48793          	addi	a5,s1,1023
    80010eb0:	0ef05063          	blez	a5,80010f90 <__divdf3+0x2cc>
    80010eb4:	00747713          	andi	a4,s0,7
    80010eb8:	00070a63          	beqz	a4,80010ecc <__divdf3+0x208>
    80010ebc:	00f47713          	andi	a4,s0,15
    80010ec0:	00400693          	li	a3,4
    80010ec4:	00d70463          	beq	a4,a3,80010ecc <__divdf3+0x208>
    80010ec8:	00440413          	addi	s0,s0,4
    80010ecc:	03845713          	srli	a4,s0,0x38
    80010ed0:	00177713          	andi	a4,a4,1
    80010ed4:	00070c63          	beqz	a4,80010eec <__divdf3+0x228>
    80010ed8:	fff00793          	li	a5,-1
    80010edc:	03879793          	slli	a5,a5,0x38
    80010ee0:	fff78793          	addi	a5,a5,-1
    80010ee4:	00f47433          	and	s0,s0,a5
    80010ee8:	40048793          	addi	a5,s1,1024
    80010eec:	7fe00713          	li	a4,2046
    80010ef0:	06f74c63          	blt	a4,a5,80010f68 <__divdf3+0x2a4>
    80010ef4:	00345413          	srli	s0,s0,0x3
    80010ef8:	7ff7f793          	andi	a5,a5,2047
    80010efc:	00c41413          	slli	s0,s0,0xc
    80010f00:	03479793          	slli	a5,a5,0x34
    80010f04:	00c45413          	srli	s0,s0,0xc
    80010f08:	0087e433          	or	s0,a5,s0
    80010f0c:	03f51513          	slli	a0,a0,0x3f
    80010f10:	03813083          	ld	ra,56(sp)
    80010f14:	00a46533          	or	a0,s0,a0
    80010f18:	03013403          	ld	s0,48(sp)
    80010f1c:	02813483          	ld	s1,40(sp)
    80010f20:	02013903          	ld	s2,32(sp)
    80010f24:	01813983          	ld	s3,24(sp)
    80010f28:	01013a03          	ld	s4,16(sp)
    80010f2c:	00813a83          	ld	s5,8(sp)
    80010f30:	04010113          	addi	sp,sp,64
    80010f34:	00008067          	ret
    80010f38:	03f99693          	slli	a3,s3,0x3f
    80010f3c:	0019d993          	srli	s3,s3,0x1
    80010f40:	eddff06f          	j	80010e1c <__divdf3+0x158>
    80010f44:	00090513          	mv	a0,s2
    80010f48:	00098413          	mv	s0,s3
    80010f4c:	000a8693          	mv	a3,s5
    80010f50:	00300793          	li	a5,3
    80010f54:	08f68a63          	beq	a3,a5,80010fe8 <__divdf3+0x324>
    80010f58:	00100793          	li	a5,1
    80010f5c:	0af68063          	beq	a3,a5,80010ffc <__divdf3+0x338>
    80010f60:	00200793          	li	a5,2
    80010f64:	f4f694e3          	bne	a3,a5,80010eac <__divdf3+0x1e8>
    80010f68:	00000413          	li	s0,0
    80010f6c:	7ff00793          	li	a5,2047
    80010f70:	f89ff06f          	j	80010ef8 <__divdf3+0x234>
    80010f74:	000a0513          	mv	a0,s4
    80010f78:	fd9ff06f          	j	80010f50 <__divdf3+0x28c>
    80010f7c:	00100413          	li	s0,1
    80010f80:	03341413          	slli	s0,s0,0x33
    80010f84:	00000513          	li	a0,0
    80010f88:	00300693          	li	a3,3
    80010f8c:	fc5ff06f          	j	80010f50 <__divdf3+0x28c>
    80010f90:	00100713          	li	a4,1
    80010f94:	40f70733          	sub	a4,a4,a5
    80010f98:	03800793          	li	a5,56
    80010f9c:	06e7c063          	blt	a5,a4,80010ffc <__divdf3+0x338>
    80010fa0:	04000693          	li	a3,64
    80010fa4:	00e457b3          	srl	a5,s0,a4
    80010fa8:	40e6873b          	subw	a4,a3,a4
    80010fac:	00e41433          	sll	s0,s0,a4
    80010fb0:	00803433          	snez	s0,s0
    80010fb4:	0087e433          	or	s0,a5,s0
    80010fb8:	00747793          	andi	a5,s0,7
    80010fbc:	00078a63          	beqz	a5,80010fd0 <__divdf3+0x30c>
    80010fc0:	00f47793          	andi	a5,s0,15
    80010fc4:	00400713          	li	a4,4
    80010fc8:	00e78463          	beq	a5,a4,80010fd0 <__divdf3+0x30c>
    80010fcc:	00440413          	addi	s0,s0,4
    80010fd0:	03745793          	srli	a5,s0,0x37
    80010fd4:	0017f793          	andi	a5,a5,1
    80010fd8:	f0078ee3          	beqz	a5,80010ef4 <__divdf3+0x230>
    80010fdc:	00000413          	li	s0,0
    80010fe0:	00100793          	li	a5,1
    80010fe4:	f15ff06f          	j	80010ef8 <__divdf3+0x234>
    80010fe8:	00100413          	li	s0,1
    80010fec:	03341413          	slli	s0,s0,0x33
    80010ff0:	7ff00793          	li	a5,2047
    80010ff4:	00000513          	li	a0,0
    80010ff8:	f01ff06f          	j	80010ef8 <__divdf3+0x234>
    80010ffc:	00000413          	li	s0,0
    80011000:	00000793          	li	a5,0
    80011004:	ef5ff06f          	j	80010ef8 <__divdf3+0x234>

0000000080011008 <__muldf3>:
    80011008:	fc010113          	addi	sp,sp,-64
    8001100c:	02913423          	sd	s1,40(sp)
    80011010:	03455493          	srli	s1,a0,0x34
    80011014:	03213023          	sd	s2,32(sp)
    80011018:	01313c23          	sd	s3,24(sp)
    8001101c:	01413823          	sd	s4,16(sp)
    80011020:	00c51993          	slli	s3,a0,0xc
    80011024:	02113c23          	sd	ra,56(sp)
    80011028:	02813823          	sd	s0,48(sp)
    8001102c:	01513423          	sd	s5,8(sp)
    80011030:	7ff4f493          	andi	s1,s1,2047
    80011034:	00058a13          	mv	s4,a1
    80011038:	00c9d993          	srli	s3,s3,0xc
    8001103c:	03f55913          	srli	s2,a0,0x3f
    80011040:	08048a63          	beqz	s1,800110d4 <__muldf3+0xcc>
    80011044:	7ff00793          	li	a5,2047
    80011048:	0af48663          	beq	s1,a5,800110f4 <__muldf3+0xec>
    8001104c:	00100793          	li	a5,1
    80011050:	00399993          	slli	s3,s3,0x3
    80011054:	03779793          	slli	a5,a5,0x37
    80011058:	00f9e9b3          	or	s3,s3,a5
    8001105c:	c0148493          	addi	s1,s1,-1023
    80011060:	00000a93          	li	s5,0
    80011064:	034a5793          	srli	a5,s4,0x34
    80011068:	00ca1413          	slli	s0,s4,0xc
    8001106c:	7ff7f793          	andi	a5,a5,2047
    80011070:	00c45413          	srli	s0,s0,0xc
    80011074:	03fa5a13          	srli	s4,s4,0x3f
    80011078:	08078e63          	beqz	a5,80011114 <__muldf3+0x10c>
    8001107c:	7ff00713          	li	a4,2047
    80011080:	0ae78a63          	beq	a5,a4,80011134 <__muldf3+0x12c>
    80011084:	00100713          	li	a4,1
    80011088:	00341413          	slli	s0,s0,0x3
    8001108c:	03771713          	slli	a4,a4,0x37
    80011090:	00e46433          	or	s0,s0,a4
    80011094:	c0178793          	addi	a5,a5,-1023
    80011098:	00000713          	li	a4,0
    8001109c:	002a9693          	slli	a3,s5,0x2
    800110a0:	00e6e6b3          	or	a3,a3,a4
    800110a4:	00f487b3          	add	a5,s1,a5
    800110a8:	fff68693          	addi	a3,a3,-1
    800110ac:	00e00593          	li	a1,14
    800110b0:	01494533          	xor	a0,s2,s4
    800110b4:	00178613          	addi	a2,a5,1
    800110b8:	08d5ee63          	bltu	a1,a3,80011154 <__muldf3+0x14c>
    800110bc:	000247b7          	lui	a5,0x24
    800110c0:	bac78793          	addi	a5,a5,-1108 # 23bac <_start-0x7ffdc470>
    800110c4:	00269693          	slli	a3,a3,0x2
    800110c8:	00f686b3          	add	a3,a3,a5
    800110cc:	0006a783          	lw	a5,0(a3)
    800110d0:	00078067          	jr	a5
    800110d4:	02098a63          	beqz	s3,80011108 <__muldf3+0x100>
    800110d8:	00098513          	mv	a0,s3
    800110dc:	68c010ef          	jal	ra,80012768 <__clzdi2>
    800110e0:	ff85079b          	addiw	a5,a0,-8
    800110e4:	3f35051b          	addiw	a0,a0,1011
    800110e8:	00f999b3          	sll	s3,s3,a5
    800110ec:	40a004b3          	neg	s1,a0
    800110f0:	f71ff06f          	j	80011060 <__muldf3+0x58>
    800110f4:	7ff00493          	li	s1,2047
    800110f8:	00200a93          	li	s5,2
    800110fc:	f60984e3          	beqz	s3,80011064 <__muldf3+0x5c>
    80011100:	00300a93          	li	s5,3
    80011104:	f61ff06f          	j	80011064 <__muldf3+0x5c>
    80011108:	00000493          	li	s1,0
    8001110c:	00100a93          	li	s5,1
    80011110:	f55ff06f          	j	80011064 <__muldf3+0x5c>
    80011114:	02040a63          	beqz	s0,80011148 <__muldf3+0x140>
    80011118:	00040513          	mv	a0,s0
    8001111c:	64c010ef          	jal	ra,80012768 <__clzdi2>
    80011120:	ff85079b          	addiw	a5,a0,-8
    80011124:	3f35051b          	addiw	a0,a0,1011
    80011128:	00f41433          	sll	s0,s0,a5
    8001112c:	40a007b3          	neg	a5,a0
    80011130:	f69ff06f          	j	80011098 <__muldf3+0x90>
    80011134:	7ff00793          	li	a5,2047
    80011138:	00200713          	li	a4,2
    8001113c:	f60400e3          	beqz	s0,8001109c <__muldf3+0x94>
    80011140:	00300713          	li	a4,3
    80011144:	f59ff06f          	j	8001109c <__muldf3+0x94>
    80011148:	00000793          	li	a5,0
    8001114c:	00100713          	li	a4,1
    80011150:	f4dff06f          	j	8001109c <__muldf3+0x94>
    80011154:	fff00713          	li	a4,-1
    80011158:	02075713          	srli	a4,a4,0x20
    8001115c:	0209d693          	srli	a3,s3,0x20
    80011160:	02045593          	srli	a1,s0,0x20
    80011164:	00e9f9b3          	and	s3,s3,a4
    80011168:	00e47433          	and	s0,s0,a4
    8001116c:	03340833          	mul	a6,s0,s3
    80011170:	02868433          	mul	s0,a3,s0
    80011174:	02b686b3          	mul	a3,a3,a1
    80011178:	033585b3          	mul	a1,a1,s3
    8001117c:	02085993          	srli	s3,a6,0x20
    80011180:	008585b3          	add	a1,a1,s0
    80011184:	00b989b3          	add	s3,s3,a1
    80011188:	0089f863          	bgeu	s3,s0,80011198 <__muldf3+0x190>
    8001118c:	00100713          	li	a4,1
    80011190:	02071713          	slli	a4,a4,0x20
    80011194:	00e686b3          	add	a3,a3,a4
    80011198:	fff00413          	li	s0,-1
    8001119c:	02045413          	srli	s0,s0,0x20
    800111a0:	0089f733          	and	a4,s3,s0
    800111a4:	00887833          	and	a6,a6,s0
    800111a8:	02071713          	slli	a4,a4,0x20
    800111ac:	01070733          	add	a4,a4,a6
    800111b0:	00971413          	slli	s0,a4,0x9
    800111b4:	0209d993          	srli	s3,s3,0x20
    800111b8:	00803433          	snez	s0,s0
    800111bc:	03775713          	srli	a4,a4,0x37
    800111c0:	00d989b3          	add	s3,s3,a3
    800111c4:	00999993          	slli	s3,s3,0x9
    800111c8:	00e46733          	or	a4,s0,a4
    800111cc:	00e9e433          	or	s0,s3,a4
    800111d0:	0389d993          	srli	s3,s3,0x38
    800111d4:	0019f993          	andi	s3,s3,1
    800111d8:	0c098a63          	beqz	s3,800112ac <__muldf3+0x2a4>
    800111dc:	00145793          	srli	a5,s0,0x1
    800111e0:	00147413          	andi	s0,s0,1
    800111e4:	0087e433          	or	s0,a5,s0
    800111e8:	3ff60793          	addi	a5,a2,1023
    800111ec:	0cf05463          	blez	a5,800112b4 <__muldf3+0x2ac>
    800111f0:	00747713          	andi	a4,s0,7
    800111f4:	00070a63          	beqz	a4,80011208 <__muldf3+0x200>
    800111f8:	00f47713          	andi	a4,s0,15
    800111fc:	00400693          	li	a3,4
    80011200:	00d70463          	beq	a4,a3,80011208 <__muldf3+0x200>
    80011204:	00440413          	addi	s0,s0,4
    80011208:	03845713          	srli	a4,s0,0x38
    8001120c:	00177713          	andi	a4,a4,1
    80011210:	00070c63          	beqz	a4,80011228 <__muldf3+0x220>
    80011214:	fff00793          	li	a5,-1
    80011218:	03879793          	slli	a5,a5,0x38
    8001121c:	fff78793          	addi	a5,a5,-1
    80011220:	00f47433          	and	s0,s0,a5
    80011224:	40060793          	addi	a5,a2,1024
    80011228:	7fe00713          	li	a4,2046
    8001122c:	0ef74a63          	blt	a4,a5,80011320 <__muldf3+0x318>
    80011230:	00345413          	srli	s0,s0,0x3
    80011234:	7ff7f793          	andi	a5,a5,2047
    80011238:	00c41413          	slli	s0,s0,0xc
    8001123c:	03479793          	slli	a5,a5,0x34
    80011240:	00c45413          	srli	s0,s0,0xc
    80011244:	0087e433          	or	s0,a5,s0
    80011248:	03f51513          	slli	a0,a0,0x3f
    8001124c:	03813083          	ld	ra,56(sp)
    80011250:	00a46533          	or	a0,s0,a0
    80011254:	03013403          	ld	s0,48(sp)
    80011258:	02813483          	ld	s1,40(sp)
    8001125c:	02013903          	ld	s2,32(sp)
    80011260:	01813983          	ld	s3,24(sp)
    80011264:	01013a03          	ld	s4,16(sp)
    80011268:	00813a83          	ld	s5,8(sp)
    8001126c:	04010113          	addi	sp,sp,64
    80011270:	00008067          	ret
    80011274:	00090513          	mv	a0,s2
    80011278:	00098413          	mv	s0,s3
    8001127c:	000a8713          	mv	a4,s5
    80011280:	00200793          	li	a5,2
    80011284:	08f70e63          	beq	a4,a5,80011320 <__muldf3+0x318>
    80011288:	00300793          	li	a5,3
    8001128c:	08f70063          	beq	a4,a5,8001130c <__muldf3+0x304>
    80011290:	00100793          	li	a5,1
    80011294:	f4f71ae3          	bne	a4,a5,800111e8 <__muldf3+0x1e0>
    80011298:	00000413          	li	s0,0
    8001129c:	00000793          	li	a5,0
    800112a0:	f95ff06f          	j	80011234 <__muldf3+0x22c>
    800112a4:	000a0513          	mv	a0,s4
    800112a8:	fd9ff06f          	j	80011280 <__muldf3+0x278>
    800112ac:	00078613          	mv	a2,a5
    800112b0:	f39ff06f          	j	800111e8 <__muldf3+0x1e0>
    800112b4:	00100713          	li	a4,1
    800112b8:	40f70733          	sub	a4,a4,a5
    800112bc:	03800793          	li	a5,56
    800112c0:	fce7cce3          	blt	a5,a4,80011298 <__muldf3+0x290>
    800112c4:	04000693          	li	a3,64
    800112c8:	00e457b3          	srl	a5,s0,a4
    800112cc:	40e6873b          	subw	a4,a3,a4
    800112d0:	00e41433          	sll	s0,s0,a4
    800112d4:	00803433          	snez	s0,s0
    800112d8:	0087e433          	or	s0,a5,s0
    800112dc:	00747793          	andi	a5,s0,7
    800112e0:	00078a63          	beqz	a5,800112f4 <__muldf3+0x2ec>
    800112e4:	00f47793          	andi	a5,s0,15
    800112e8:	00400713          	li	a4,4
    800112ec:	00e78463          	beq	a5,a4,800112f4 <__muldf3+0x2ec>
    800112f0:	00440413          	addi	s0,s0,4
    800112f4:	03745793          	srli	a5,s0,0x37
    800112f8:	0017f793          	andi	a5,a5,1
    800112fc:	f2078ae3          	beqz	a5,80011230 <__muldf3+0x228>
    80011300:	00000413          	li	s0,0
    80011304:	00100793          	li	a5,1
    80011308:	f2dff06f          	j	80011234 <__muldf3+0x22c>
    8001130c:	00100413          	li	s0,1
    80011310:	03341413          	slli	s0,s0,0x33
    80011314:	7ff00793          	li	a5,2047
    80011318:	00000513          	li	a0,0
    8001131c:	f19ff06f          	j	80011234 <__muldf3+0x22c>
    80011320:	00000413          	li	s0,0
    80011324:	7ff00793          	li	a5,2047
    80011328:	f0dff06f          	j	80011234 <__muldf3+0x22c>

000000008001132c <__eqtf2>:
    8001132c:	00008837          	lui	a6,0x8
    80011330:	0305d713          	srli	a4,a1,0x30
    80011334:	fff80813          	addi	a6,a6,-1 # 7fff <_start-0x7fff801d>
    80011338:	fff00793          	li	a5,-1
    8001133c:	0107d793          	srli	a5,a5,0x10
    80011340:	0306d893          	srli	a7,a3,0x30
    80011344:	01077733          	and	a4,a4,a6
    80011348:	00f5f333          	and	t1,a1,a5
    8001134c:	00050e13          	mv	t3,a0
    80011350:	00f6f7b3          	and	a5,a3,a5
    80011354:	03f5d593          	srli	a1,a1,0x3f
    80011358:	0108f8b3          	and	a7,a7,a6
    8001135c:	03f6d693          	srli	a3,a3,0x3f
    80011360:	01071e63          	bne	a4,a6,8001137c <__eqtf2+0x50>
    80011364:	00a36833          	or	a6,t1,a0
    80011368:	00100513          	li	a0,1
    8001136c:	00081663          	bnez	a6,80011378 <__eqtf2+0x4c>
    80011370:	00e88863          	beq	a7,a4,80011380 <__eqtf2+0x54>
    80011374:	00100513          	li	a0,1
    80011378:	00008067          	ret
    8001137c:	01089863          	bne	a7,a6,8001138c <__eqtf2+0x60>
    80011380:	00c7e833          	or	a6,a5,a2
    80011384:	00100513          	li	a0,1
    80011388:	fe0818e3          	bnez	a6,80011378 <__eqtf2+0x4c>
    8001138c:	00100513          	li	a0,1
    80011390:	ff1714e3          	bne	a4,a7,80011378 <__eqtf2+0x4c>
    80011394:	fef312e3          	bne	t1,a5,80011378 <__eqtf2+0x4c>
    80011398:	fece10e3          	bne	t3,a2,80011378 <__eqtf2+0x4c>
    8001139c:	00d58a63          	beq	a1,a3,800113b0 <__eqtf2+0x84>
    800113a0:	fc071ce3          	bnez	a4,80011378 <__eqtf2+0x4c>
    800113a4:	01c36533          	or	a0,t1,t3
    800113a8:	00a03533          	snez	a0,a0
    800113ac:	00008067          	ret
    800113b0:	00000513          	li	a0,0
    800113b4:	00008067          	ret

00000000800113b8 <__getf2>:
    800113b8:	00008337          	lui	t1,0x8
    800113bc:	fff30313          	addi	t1,t1,-1 # 7fff <_start-0x7fff801d>
    800113c0:	fff00793          	li	a5,-1
    800113c4:	0305d813          	srli	a6,a1,0x30
    800113c8:	0107d793          	srli	a5,a5,0x10
    800113cc:	0306d713          	srli	a4,a3,0x30
    800113d0:	00687833          	and	a6,a6,t1
    800113d4:	00050893          	mv	a7,a0
    800113d8:	00f5fe33          	and	t3,a1,a5
    800113dc:	03f5d513          	srli	a0,a1,0x3f
    800113e0:	00f6f7b3          	and	a5,a3,a5
    800113e4:	00677733          	and	a4,a4,t1
    800113e8:	03f6d693          	srli	a3,a3,0x3f
    800113ec:	00681a63          	bne	a6,t1,80011400 <__getf2+0x48>
    800113f0:	011e65b3          	or	a1,t3,a7
    800113f4:	08058a63          	beqz	a1,80011488 <__getf2+0xd0>
    800113f8:	ffe00513          	li	a0,-2
    800113fc:	00008067          	ret
    80011400:	00671663          	bne	a4,t1,8001140c <__getf2+0x54>
    80011404:	00c7e5b3          	or	a1,a5,a2
    80011408:	fe0598e3          	bnez	a1,800113f8 <__getf2+0x40>
    8001140c:	08081063          	bnez	a6,8001148c <__getf2+0xd4>
    80011410:	011e65b3          	or	a1,t3,a7
    80011414:	0015b593          	seqz	a1,a1
    80011418:	00071663          	bnez	a4,80011424 <__getf2+0x6c>
    8001141c:	00c7e333          	or	t1,a5,a2
    80011420:	04030c63          	beqz	t1,80011478 <__getf2+0xc0>
    80011424:	00059c63          	bnez	a1,8001143c <__getf2+0x84>
    80011428:	00d51463          	bne	a0,a3,80011430 <__getf2+0x78>
    8001142c:	03075063          	bge	a4,a6,8001144c <__getf2+0x94>
    80011430:	04050063          	beqz	a0,80011470 <__getf2+0xb8>
    80011434:	fff00513          	li	a0,-1
    80011438:	00008067          	ret
    8001143c:	fff00513          	li	a0,-1
    80011440:	00068a63          	beqz	a3,80011454 <__getf2+0x9c>
    80011444:	00068513          	mv	a0,a3
    80011448:	00008067          	ret
    8001144c:	00e85663          	bge	a6,a4,80011458 <__getf2+0xa0>
    80011450:	fe0502e3          	beqz	a0,80011434 <__getf2+0x7c>
    80011454:	00008067          	ret
    80011458:	fdc7ece3          	bltu	a5,t3,80011430 <__getf2+0x78>
    8001145c:	02fe1263          	bne	t3,a5,80011480 <__getf2+0xc8>
    80011460:	fd1668e3          	bltu	a2,a7,80011430 <__getf2+0x78>
    80011464:	fec8e6e3          	bltu	a7,a2,80011450 <__getf2+0x98>
    80011468:	00000513          	li	a0,0
    8001146c:	00008067          	ret
    80011470:	00100513          	li	a0,1
    80011474:	00008067          	ret
    80011478:	fe0598e3          	bnez	a1,80011468 <__getf2+0xb0>
    8001147c:	fb5ff06f          	j	80011430 <__getf2+0x78>
    80011480:	fcfe68e3          	bltu	t3,a5,80011450 <__getf2+0x98>
    80011484:	fe5ff06f          	j	80011468 <__getf2+0xb0>
    80011488:	f7070ee3          	beq	a4,a6,80011404 <__getf2+0x4c>
    8001148c:	f8071ee3          	bnez	a4,80011428 <__getf2+0x70>
    80011490:	00000593          	li	a1,0
    80011494:	f89ff06f          	j	8001141c <__getf2+0x64>

0000000080011498 <__letf2>:
    80011498:	00008337          	lui	t1,0x8
    8001149c:	fff30313          	addi	t1,t1,-1 # 7fff <_start-0x7fff801d>
    800114a0:	fff00793          	li	a5,-1
    800114a4:	0305d813          	srli	a6,a1,0x30
    800114a8:	0107d793          	srli	a5,a5,0x10
    800114ac:	0306d713          	srli	a4,a3,0x30
    800114b0:	00687833          	and	a6,a6,t1
    800114b4:	00050893          	mv	a7,a0
    800114b8:	00f5fe33          	and	t3,a1,a5
    800114bc:	03f5d513          	srli	a0,a1,0x3f
    800114c0:	00f6f7b3          	and	a5,a3,a5
    800114c4:	00677733          	and	a4,a4,t1
    800114c8:	03f6d693          	srli	a3,a3,0x3f
    800114cc:	00681a63          	bne	a6,t1,800114e0 <__letf2+0x48>
    800114d0:	011e65b3          	or	a1,t3,a7
    800114d4:	08058a63          	beqz	a1,80011568 <__letf2+0xd0>
    800114d8:	00200513          	li	a0,2
    800114dc:	00008067          	ret
    800114e0:	00671663          	bne	a4,t1,800114ec <__letf2+0x54>
    800114e4:	00c7e5b3          	or	a1,a5,a2
    800114e8:	fe0598e3          	bnez	a1,800114d8 <__letf2+0x40>
    800114ec:	08081063          	bnez	a6,8001156c <__letf2+0xd4>
    800114f0:	011e65b3          	or	a1,t3,a7
    800114f4:	0015b593          	seqz	a1,a1
    800114f8:	00071663          	bnez	a4,80011504 <__letf2+0x6c>
    800114fc:	00c7e333          	or	t1,a5,a2
    80011500:	04030c63          	beqz	t1,80011558 <__letf2+0xc0>
    80011504:	00059c63          	bnez	a1,8001151c <__letf2+0x84>
    80011508:	00d51463          	bne	a0,a3,80011510 <__letf2+0x78>
    8001150c:	03075063          	bge	a4,a6,8001152c <__letf2+0x94>
    80011510:	04050063          	beqz	a0,80011550 <__letf2+0xb8>
    80011514:	fff00513          	li	a0,-1
    80011518:	00008067          	ret
    8001151c:	fff00513          	li	a0,-1
    80011520:	00068a63          	beqz	a3,80011534 <__letf2+0x9c>
    80011524:	00068513          	mv	a0,a3
    80011528:	00008067          	ret
    8001152c:	00e85663          	bge	a6,a4,80011538 <__letf2+0xa0>
    80011530:	fe0502e3          	beqz	a0,80011514 <__letf2+0x7c>
    80011534:	00008067          	ret
    80011538:	fdc7ece3          	bltu	a5,t3,80011510 <__letf2+0x78>
    8001153c:	02fe1263          	bne	t3,a5,80011560 <__letf2+0xc8>
    80011540:	fd1668e3          	bltu	a2,a7,80011510 <__letf2+0x78>
    80011544:	fec8e6e3          	bltu	a7,a2,80011530 <__letf2+0x98>
    80011548:	00000513          	li	a0,0
    8001154c:	00008067          	ret
    80011550:	00100513          	li	a0,1
    80011554:	00008067          	ret
    80011558:	fe0598e3          	bnez	a1,80011548 <__letf2+0xb0>
    8001155c:	fb5ff06f          	j	80011510 <__letf2+0x78>
    80011560:	fcfe68e3          	bltu	t3,a5,80011530 <__letf2+0x98>
    80011564:	fe5ff06f          	j	80011548 <__letf2+0xb0>
    80011568:	f7070ee3          	beq	a4,a6,800114e4 <__letf2+0x4c>
    8001156c:	f8071ee3          	bnez	a4,80011508 <__letf2+0x70>
    80011570:	00000593          	li	a1,0
    80011574:	f89ff06f          	j	800114fc <__letf2+0x64>

0000000080011578 <__multf3>:
    80011578:	fb010113          	addi	sp,sp,-80
    8001157c:	00008737          	lui	a4,0x8
    80011580:	03313423          	sd	s3,40(sp)
    80011584:	fff70713          	addi	a4,a4,-1 # 7fff <_start-0x7fff801d>
    80011588:	0305d993          	srli	s3,a1,0x30
    8001158c:	04813023          	sd	s0,64(sp)
    80011590:	02913c23          	sd	s1,56(sp)
    80011594:	03413023          	sd	s4,32(sp)
    80011598:	01513c23          	sd	s5,24(sp)
    8001159c:	01613823          	sd	s6,16(sp)
    800115a0:	01059493          	slli	s1,a1,0x10
    800115a4:	04113423          	sd	ra,72(sp)
    800115a8:	03213823          	sd	s2,48(sp)
    800115ac:	01713423          	sd	s7,8(sp)
    800115b0:	00e9f7b3          	and	a5,s3,a4
    800115b4:	00050413          	mv	s0,a0
    800115b8:	00060b13          	mv	s6,a2
    800115bc:	00068a13          	mv	s4,a3
    800115c0:	0104d493          	srli	s1,s1,0x10
    800115c4:	03f5da93          	srli	s5,a1,0x3f
    800115c8:	0c078263          	beqz	a5,8001168c <__multf3+0x114>
    800115cc:	0007899b          	sext.w	s3,a5
    800115d0:	12e78663          	beq	a5,a4,800116fc <__multf3+0x184>
    800115d4:	00349493          	slli	s1,s1,0x3
    800115d8:	03d55713          	srli	a4,a0,0x3d
    800115dc:	00976733          	or	a4,a4,s1
    800115e0:	ffffc9b7          	lui	s3,0xffffc
    800115e4:	00100493          	li	s1,1
    800115e8:	03349493          	slli	s1,s1,0x33
    800115ec:	00198993          	addi	s3,s3,1 # ffffffffffffc001 <t0.2038+0xffffffff7ffbf3b9>
    800115f0:	009764b3          	or	s1,a4,s1
    800115f4:	00351913          	slli	s2,a0,0x3
    800115f8:	013789b3          	add	s3,a5,s3
    800115fc:	00000b93          	li	s7,0
    80011600:	000087b7          	lui	a5,0x8
    80011604:	030a5513          	srli	a0,s4,0x30
    80011608:	fff78793          	addi	a5,a5,-1 # 7fff <_start-0x7fff801d>
    8001160c:	010a1413          	slli	s0,s4,0x10
    80011610:	00f57733          	and	a4,a0,a5
    80011614:	01045413          	srli	s0,s0,0x10
    80011618:	03fa5a13          	srli	s4,s4,0x3f
    8001161c:	10070863          	beqz	a4,8001172c <__multf3+0x1b4>
    80011620:	0007051b          	sext.w	a0,a4
    80011624:	16f70e63          	beq	a4,a5,800117a0 <__multf3+0x228>
    80011628:	00341413          	slli	s0,s0,0x3
    8001162c:	03db5593          	srli	a1,s6,0x3d
    80011630:	0085e5b3          	or	a1,a1,s0
    80011634:	ffffc537          	lui	a0,0xffffc
    80011638:	00100413          	li	s0,1
    8001163c:	03341413          	slli	s0,s0,0x33
    80011640:	00150513          	addi	a0,a0,1 # ffffffffffffc001 <t0.2038+0xffffffff7ffbf3b9>
    80011644:	0085e433          	or	s0,a1,s0
    80011648:	003b1793          	slli	a5,s6,0x3
    8001164c:	00a70533          	add	a0,a4,a0
    80011650:	00000713          	li	a4,0
    80011654:	002b9613          	slli	a2,s7,0x2
    80011658:	00e66633          	or	a2,a2,a4
    8001165c:	01350533          	add	a0,a0,s3
    80011660:	fff60613          	addi	a2,a2,-1
    80011664:	00e00593          	li	a1,14
    80011668:	014ac6b3          	xor	a3,s5,s4
    8001166c:	00150893          	addi	a7,a0,1
    80011670:	16c5e063          	bltu	a1,a2,800117d0 <__multf3+0x258>
    80011674:	000245b7          	lui	a1,0x24
    80011678:	00261613          	slli	a2,a2,0x2
    8001167c:	be858593          	addi	a1,a1,-1048 # 23be8 <_start-0x7ffdc434>
    80011680:	00b60633          	add	a2,a2,a1
    80011684:	00062603          	lw	a2,0(a2)
    80011688:	00060067          	jr	a2
    8001168c:	00a4e933          	or	s2,s1,a0
    80011690:	08090063          	beqz	s2,80011710 <__multf3+0x198>
    80011694:	04048663          	beqz	s1,800116e0 <__multf3+0x168>
    80011698:	00048513          	mv	a0,s1
    8001169c:	0cc010ef          	jal	ra,80012768 <__clzdi2>
    800116a0:	0005051b          	sext.w	a0,a0
    800116a4:	ff150713          	addi	a4,a0,-15
    800116a8:	03c00693          	li	a3,60
    800116ac:	0007079b          	sext.w	a5,a4
    800116b0:	02e6ce63          	blt	a3,a4,800116ec <__multf3+0x174>
    800116b4:	03d00713          	li	a4,61
    800116b8:	0037891b          	addiw	s2,a5,3
    800116bc:	40f707bb          	subw	a5,a4,a5
    800116c0:	012494b3          	sll	s1,s1,s2
    800116c4:	00f457b3          	srl	a5,s0,a5
    800116c8:	0097e4b3          	or	s1,a5,s1
    800116cc:	01241933          	sll	s2,s0,s2
    800116d0:	ffffc9b7          	lui	s3,0xffffc
    800116d4:	01198993          	addi	s3,s3,17 # ffffffffffffc011 <t0.2038+0xffffffff7ffbf3c9>
    800116d8:	40a989b3          	sub	s3,s3,a0
    800116dc:	f21ff06f          	j	800115fc <__multf3+0x84>
    800116e0:	088010ef          	jal	ra,80012768 <__clzdi2>
    800116e4:	0405051b          	addiw	a0,a0,64
    800116e8:	fbdff06f          	j	800116a4 <__multf3+0x12c>
    800116ec:	fc37879b          	addiw	a5,a5,-61
    800116f0:	00f414b3          	sll	s1,s0,a5
    800116f4:	00000913          	li	s2,0
    800116f8:	fd9ff06f          	j	800116d0 <__multf3+0x158>
    800116fc:	00a4e933          	or	s2,s1,a0
    80011700:	02090063          	beqz	s2,80011720 <__multf3+0x1a8>
    80011704:	00050913          	mv	s2,a0
    80011708:	00300b93          	li	s7,3
    8001170c:	ef5ff06f          	j	80011600 <__multf3+0x88>
    80011710:	00000493          	li	s1,0
    80011714:	00000993          	li	s3,0
    80011718:	00100b93          	li	s7,1
    8001171c:	ee5ff06f          	j	80011600 <__multf3+0x88>
    80011720:	00000493          	li	s1,0
    80011724:	00200b93          	li	s7,2
    80011728:	ed9ff06f          	j	80011600 <__multf3+0x88>
    8001172c:	008b67b3          	or	a5,s6,s0
    80011730:	08078263          	beqz	a5,800117b4 <__multf3+0x23c>
    80011734:	04040663          	beqz	s0,80011780 <__multf3+0x208>
    80011738:	00040513          	mv	a0,s0
    8001173c:	02c010ef          	jal	ra,80012768 <__clzdi2>
    80011740:	0005071b          	sext.w	a4,a0
    80011744:	ff170793          	addi	a5,a4,-15
    80011748:	03c00613          	li	a2,60
    8001174c:	0007869b          	sext.w	a3,a5
    80011750:	04f64063          	blt	a2,a5,80011790 <__multf3+0x218>
    80011754:	03d00613          	li	a2,61
    80011758:	0036879b          	addiw	a5,a3,3
    8001175c:	40d606bb          	subw	a3,a2,a3
    80011760:	00f41433          	sll	s0,s0,a5
    80011764:	00db56b3          	srl	a3,s6,a3
    80011768:	0086e433          	or	s0,a3,s0
    8001176c:	00fb17b3          	sll	a5,s6,a5
    80011770:	ffffc537          	lui	a0,0xffffc
    80011774:	01150513          	addi	a0,a0,17 # ffffffffffffc011 <t0.2038+0xffffffff7ffbf3c9>
    80011778:	40e50533          	sub	a0,a0,a4
    8001177c:	ed5ff06f          	j	80011650 <__multf3+0xd8>
    80011780:	000b0513          	mv	a0,s6
    80011784:	7e5000ef          	jal	ra,80012768 <__clzdi2>
    80011788:	0405071b          	addiw	a4,a0,64
    8001178c:	fb9ff06f          	j	80011744 <__multf3+0x1cc>
    80011790:	fc36869b          	addiw	a3,a3,-61
    80011794:	00db1433          	sll	s0,s6,a3
    80011798:	00000793          	li	a5,0
    8001179c:	fd5ff06f          	j	80011770 <__multf3+0x1f8>
    800117a0:	008b67b3          	or	a5,s6,s0
    800117a4:	02078063          	beqz	a5,800117c4 <__multf3+0x24c>
    800117a8:	000b0793          	mv	a5,s6
    800117ac:	00300713          	li	a4,3
    800117b0:	ea5ff06f          	j	80011654 <__multf3+0xdc>
    800117b4:	00000413          	li	s0,0
    800117b8:	00000513          	li	a0,0
    800117bc:	00100713          	li	a4,1
    800117c0:	e95ff06f          	j	80011654 <__multf3+0xdc>
    800117c4:	00000413          	li	s0,0
    800117c8:	00200713          	li	a4,2
    800117cc:	e89ff06f          	j	80011654 <__multf3+0xdc>
    800117d0:	fff00713          	li	a4,-1
    800117d4:	02075713          	srli	a4,a4,0x20
    800117d8:	012483b3          	add	t2,s1,s2
    800117dc:	008782b3          	add	t0,a5,s0
    800117e0:	02095e93          	srli	t4,s2,0x20
    800117e4:	0207d613          	srli	a2,a5,0x20
    800117e8:	0123bf33          	sltu	t5,t2,s2
    800117ec:	00f2bfb3          	sltu	t6,t0,a5
    800117f0:	00e97933          	and	s2,s2,a4
    800117f4:	00e7f7b3          	and	a5,a5,a4
    800117f8:	02f905b3          	mul	a1,s2,a5
    800117fc:	000f0e13          	mv	t3,t5
    80011800:	000f8993          	mv	s3,t6
    80011804:	02fe87b3          	mul	a5,t4,a5
    80011808:	02ce8733          	mul	a4,t4,a2
    8001180c:	03260633          	mul	a2,a2,s2
    80011810:	0205d913          	srli	s2,a1,0x20
    80011814:	00f60633          	add	a2,a2,a5
    80011818:	00c90933          	add	s2,s2,a2
    8001181c:	00f97863          	bgeu	s2,a5,8001182c <__multf3+0x2b4>
    80011820:	00100793          	li	a5,1
    80011824:	02079793          	slli	a5,a5,0x20
    80011828:	00f70733          	add	a4,a4,a5
    8001182c:	fff00613          	li	a2,-1
    80011830:	02065613          	srli	a2,a2,0x20
    80011834:	02095e93          	srli	t4,s2,0x20
    80011838:	00c97833          	and	a6,s2,a2
    8001183c:	00c5f5b3          	and	a1,a1,a2
    80011840:	0203da13          	srli	s4,t2,0x20
    80011844:	0202d793          	srli	a5,t0,0x20
    80011848:	00ee8eb3          	add	t4,t4,a4
    8001184c:	00c3f733          	and	a4,t2,a2
    80011850:	00c2f633          	and	a2,t0,a2
    80011854:	02c70ab3          	mul	s5,a4,a2
    80011858:	02081813          	slli	a6,a6,0x20
    8001185c:	00b80833          	add	a6,a6,a1
    80011860:	02ca0633          	mul	a2,s4,a2
    80011864:	02fa0a33          	mul	s4,s4,a5
    80011868:	02e787b3          	mul	a5,a5,a4
    8001186c:	00c78733          	add	a4,a5,a2
    80011870:	020ad793          	srli	a5,s5,0x20
    80011874:	00e787b3          	add	a5,a5,a4
    80011878:	00c7f863          	bgeu	a5,a2,80011888 <__multf3+0x310>
    8001187c:	00100713          	li	a4,1
    80011880:	02071713          	slli	a4,a4,0x20
    80011884:	00ea0a33          	add	s4,s4,a4
    80011888:	fff00313          	li	t1,-1
    8001188c:	02035313          	srli	t1,t1,0x20
    80011890:	0067f633          	and	a2,a5,t1
    80011894:	02061613          	slli	a2,a2,0x20
    80011898:	006af5b3          	and	a1,s5,t1
    8001189c:	0207d913          	srli	s2,a5,0x20
    800118a0:	00b605b3          	add	a1,a2,a1
    800118a4:	0204d793          	srli	a5,s1,0x20
    800118a8:	02045613          	srli	a2,s0,0x20
    800118ac:	0064f4b3          	and	s1,s1,t1
    800118b0:	00647333          	and	t1,s0,t1
    800118b4:	02648433          	mul	s0,s1,t1
    800118b8:	02678333          	mul	t1,a5,t1
    800118bc:	02c787b3          	mul	a5,a5,a2
    800118c0:	02960633          	mul	a2,a2,s1
    800118c4:	02045493          	srli	s1,s0,0x20
    800118c8:	00660633          	add	a2,a2,t1
    800118cc:	00c484b3          	add	s1,s1,a2
    800118d0:	0064f863          	bgeu	s1,t1,800118e0 <__multf3+0x368>
    800118d4:	00100713          	li	a4,1
    800118d8:	02071713          	slli	a4,a4,0x20
    800118dc:	00e787b3          	add	a5,a5,a4
    800118e0:	0204d613          	srli	a2,s1,0x20
    800118e4:	00f607b3          	add	a5,a2,a5
    800118e8:	fff00613          	li	a2,-1
    800118ec:	02065613          	srli	a2,a2,0x20
    800118f0:	00c47433          	and	s0,s0,a2
    800118f4:	00c4f733          	and	a4,s1,a2
    800118f8:	01d58633          	add	a2,a1,t4
    800118fc:	01d635b3          	sltu	a1,a2,t4
    80011900:	02071713          	slli	a4,a4,0x20
    80011904:	00870733          	add	a4,a4,s0
    80011908:	41300333          	neg	t1,s3
    8001190c:	00b90433          	add	s0,s2,a1
    80011910:	01440433          	add	s0,s0,s4
    80011914:	41c00e33          	neg	t3,t3
    80011918:	00737333          	and	t1,t1,t2
    8001191c:	00830333          	add	t1,t1,s0
    80011920:	01ff7f33          	and	t5,t5,t6
    80011924:	005e72b3          	and	t0,t3,t0
    80011928:	00b435b3          	sltu	a1,s0,a1
    8001192c:	006282b3          	add	t0,t0,t1
    80011930:	01e585b3          	add	a1,a1,t5
    80011934:	00833433          	sltu	s0,t1,s0
    80011938:	008585b3          	add	a1,a1,s0
    8001193c:	0062b333          	sltu	t1,t0,t1
    80011940:	41060f33          	sub	t5,a2,a6
    80011944:	01e63e33          	sltu	t3,a2,t5
    80011948:	006585b3          	add	a1,a1,t1
    8001194c:	41d28333          	sub	t1,t0,t4
    80011950:	0062bfb3          	sltu	t6,t0,t1
    80011954:	41c30333          	sub	t1,t1,t3
    80011958:	00000e13          	li	t3,0
    8001195c:	01e67663          	bgeu	a2,t5,80011968 <__multf3+0x3f0>
    80011960:	405e82b3          	sub	t0,t4,t0
    80011964:	0012be13          	seqz	t3,t0
    80011968:	01fe62b3          	or	t0,t3,t6
    8001196c:	40ef0e33          	sub	t3,t5,a4
    80011970:	40f30633          	sub	a2,t1,a5
    80011974:	00f585b3          	add	a1,a1,a5
    80011978:	01cf37b3          	sltu	a5,t5,t3
    8001197c:	00c33333          	sltu	t1,t1,a2
    80011980:	40f707b3          	sub	a5,a4,a5
    80011984:	00000e93          	li	t4,0
    80011988:	01cf7463          	bgeu	t5,t3,80011990 <__multf3+0x418>
    8001198c:	00163e93          	seqz	t4,a2
    80011990:	00f60633          	add	a2,a2,a5
    80011994:	00e63733          	sltu	a4,a2,a4
    80011998:	00b70733          	add	a4,a4,a1
    8001199c:	40570733          	sub	a4,a4,t0
    800119a0:	006ee333          	or	t1,t4,t1
    800119a4:	00de1793          	slli	a5,t3,0xd
    800119a8:	40670733          	sub	a4,a4,t1
    800119ac:	00d71713          	slli	a4,a4,0xd
    800119b0:	03365413          	srli	s0,a2,0x33
    800119b4:	0107e7b3          	or	a5,a5,a6
    800119b8:	00876433          	or	s0,a4,s0
    800119bc:	00f037b3          	snez	a5,a5
    800119c0:	033e5e13          	srli	t3,t3,0x33
    800119c4:	03475713          	srli	a4,a4,0x34
    800119c8:	01c7e7b3          	or	a5,a5,t3
    800119cc:	00d61613          	slli	a2,a2,0xd
    800119d0:	00177713          	andi	a4,a4,1
    800119d4:	00c7e7b3          	or	a5,a5,a2
    800119d8:	10070e63          	beqz	a4,80011af4 <__multf3+0x57c>
    800119dc:	0017d713          	srli	a4,a5,0x1
    800119e0:	0017f793          	andi	a5,a5,1
    800119e4:	03f41513          	slli	a0,s0,0x3f
    800119e8:	00f767b3          	or	a5,a4,a5
    800119ec:	00a7e7b3          	or	a5,a5,a0
    800119f0:	00145413          	srli	s0,s0,0x1
    800119f4:	00004737          	lui	a4,0x4
    800119f8:	fff70713          	addi	a4,a4,-1 # 3fff <_start-0x7fffc01d>
    800119fc:	00e88733          	add	a4,a7,a4
    80011a00:	0ee05e63          	blez	a4,80011afc <__multf3+0x584>
    80011a04:	0077f613          	andi	a2,a5,7
    80011a08:	02060063          	beqz	a2,80011a28 <__multf3+0x4b0>
    80011a0c:	00f7f613          	andi	a2,a5,15
    80011a10:	00400593          	li	a1,4
    80011a14:	00b60a63          	beq	a2,a1,80011a28 <__multf3+0x4b0>
    80011a18:	00478613          	addi	a2,a5,4
    80011a1c:	00f637b3          	sltu	a5,a2,a5
    80011a20:	00f40433          	add	s0,s0,a5
    80011a24:	00060793          	mv	a5,a2
    80011a28:	03445613          	srli	a2,s0,0x34
    80011a2c:	00167613          	andi	a2,a2,1
    80011a30:	00060e63          	beqz	a2,80011a4c <__multf3+0x4d4>
    80011a34:	fff00713          	li	a4,-1
    80011a38:	03471713          	slli	a4,a4,0x34
    80011a3c:	fff70713          	addi	a4,a4,-1
    80011a40:	00e47433          	and	s0,s0,a4
    80011a44:	00004737          	lui	a4,0x4
    80011a48:	00e88733          	add	a4,a7,a4
    80011a4c:	00008637          	lui	a2,0x8
    80011a50:	ffe60593          	addi	a1,a2,-2 # 7ffe <_start-0x7fff801e>
    80011a54:	18e5c663          	blt	a1,a4,80011be0 <__multf3+0x668>
    80011a58:	03d41513          	slli	a0,s0,0x3d
    80011a5c:	0037d793          	srli	a5,a5,0x3
    80011a60:	00f56533          	or	a0,a0,a5
    80011a64:	00345413          	srli	s0,s0,0x3
    80011a68:	03171713          	slli	a4,a4,0x31
    80011a6c:	00f69593          	slli	a1,a3,0xf
    80011a70:	03175713          	srli	a4,a4,0x31
    80011a74:	01041413          	slli	s0,s0,0x10
    80011a78:	00e5e733          	or	a4,a1,a4
    80011a7c:	01045413          	srli	s0,s0,0x10
    80011a80:	03071593          	slli	a1,a4,0x30
    80011a84:	04813083          	ld	ra,72(sp)
    80011a88:	00b465b3          	or	a1,s0,a1
    80011a8c:	04013403          	ld	s0,64(sp)
    80011a90:	03813483          	ld	s1,56(sp)
    80011a94:	03013903          	ld	s2,48(sp)
    80011a98:	02813983          	ld	s3,40(sp)
    80011a9c:	02013a03          	ld	s4,32(sp)
    80011aa0:	01813a83          	ld	s5,24(sp)
    80011aa4:	01013b03          	ld	s6,16(sp)
    80011aa8:	00813b83          	ld	s7,8(sp)
    80011aac:	05010113          	addi	sp,sp,80
    80011ab0:	00008067          	ret
    80011ab4:	000a8693          	mv	a3,s5
    80011ab8:	00048413          	mv	s0,s1
    80011abc:	00090793          	mv	a5,s2
    80011ac0:	000b8713          	mv	a4,s7
    80011ac4:	00200613          	li	a2,2
    80011ac8:	0ec70463          	beq	a4,a2,80011bb0 <__multf3+0x638>
    80011acc:	00300613          	li	a2,3
    80011ad0:	0ec70a63          	beq	a4,a2,80011bc4 <__multf3+0x64c>
    80011ad4:	00100613          	li	a2,1
    80011ad8:	f0c71ee3          	bne	a4,a2,800119f4 <__multf3+0x47c>
    80011adc:	00000413          	li	s0,0
    80011ae0:	00000513          	li	a0,0
    80011ae4:	00000713          	li	a4,0
    80011ae8:	f81ff06f          	j	80011a68 <__multf3+0x4f0>
    80011aec:	000a0693          	mv	a3,s4
    80011af0:	fd5ff06f          	j	80011ac4 <__multf3+0x54c>
    80011af4:	00050893          	mv	a7,a0
    80011af8:	efdff06f          	j	800119f4 <__multf3+0x47c>
    80011afc:	00100613          	li	a2,1
    80011b00:	40e60733          	sub	a4,a2,a4
    80011b04:	07400613          	li	a2,116
    80011b08:	fce64ae3          	blt	a2,a4,80011adc <__multf3+0x564>
    80011b0c:	03f00613          	li	a2,63
    80011b10:	0007059b          	sext.w	a1,a4
    80011b14:	06e64463          	blt	a2,a4,80011b7c <__multf3+0x604>
    80011b18:	04000713          	li	a4,64
    80011b1c:	40b7073b          	subw	a4,a4,a1
    80011b20:	00e41533          	sll	a0,s0,a4
    80011b24:	00b7d633          	srl	a2,a5,a1
    80011b28:	00e797b3          	sll	a5,a5,a4
    80011b2c:	00c56533          	or	a0,a0,a2
    80011b30:	00f037b3          	snez	a5,a5
    80011b34:	00f567b3          	or	a5,a0,a5
    80011b38:	00b45433          	srl	s0,s0,a1
    80011b3c:	0077f713          	andi	a4,a5,7
    80011b40:	02070063          	beqz	a4,80011b60 <__multf3+0x5e8>
    80011b44:	00f7f713          	andi	a4,a5,15
    80011b48:	00400613          	li	a2,4
    80011b4c:	00c70a63          	beq	a4,a2,80011b60 <__multf3+0x5e8>
    80011b50:	00478713          	addi	a4,a5,4
    80011b54:	00f737b3          	sltu	a5,a4,a5
    80011b58:	00f40433          	add	s0,s0,a5
    80011b5c:	00070793          	mv	a5,a4
    80011b60:	03345713          	srli	a4,s0,0x33
    80011b64:	00177713          	andi	a4,a4,1
    80011b68:	ee0708e3          	beqz	a4,80011a58 <__multf3+0x4e0>
    80011b6c:	00000413          	li	s0,0
    80011b70:	00000513          	li	a0,0
    80011b74:	00100713          	li	a4,1
    80011b78:	ef1ff06f          	j	80011a68 <__multf3+0x4f0>
    80011b7c:	fc05851b          	addiw	a0,a1,-64
    80011b80:	04000813          	li	a6,64
    80011b84:	00a45533          	srl	a0,s0,a0
    80011b88:	00000613          	li	a2,0
    80011b8c:	01070863          	beq	a4,a6,80011b9c <__multf3+0x624>
    80011b90:	08000613          	li	a2,128
    80011b94:	40b6063b          	subw	a2,a2,a1
    80011b98:	00c41633          	sll	a2,s0,a2
    80011b9c:	00f667b3          	or	a5,a2,a5
    80011ba0:	00f037b3          	snez	a5,a5
    80011ba4:	00f567b3          	or	a5,a0,a5
    80011ba8:	00000413          	li	s0,0
    80011bac:	f91ff06f          	j	80011b3c <__multf3+0x5c4>
    80011bb0:	00008737          	lui	a4,0x8
    80011bb4:	00000413          	li	s0,0
    80011bb8:	00000513          	li	a0,0
    80011bbc:	fff70713          	addi	a4,a4,-1 # 7fff <_start-0x7fff801d>
    80011bc0:	ea9ff06f          	j	80011a68 <__multf3+0x4f0>
    80011bc4:	00100413          	li	s0,1
    80011bc8:	00008737          	lui	a4,0x8
    80011bcc:	02f41413          	slli	s0,s0,0x2f
    80011bd0:	00000513          	li	a0,0
    80011bd4:	fff70713          	addi	a4,a4,-1 # 7fff <_start-0x7fff801d>
    80011bd8:	00000693          	li	a3,0
    80011bdc:	e8dff06f          	j	80011a68 <__multf3+0x4f0>
    80011be0:	00000413          	li	s0,0
    80011be4:	00000513          	li	a0,0
    80011be8:	fff60713          	addi	a4,a2,-1
    80011bec:	e7dff06f          	j	80011a68 <__multf3+0x4f0>

0000000080011bf0 <__subtf3>:
    80011bf0:	fff00793          	li	a5,-1
    80011bf4:	fd010113          	addi	sp,sp,-48
    80011bf8:	0107d793          	srli	a5,a5,0x10
    80011bfc:	0305de13          	srli	t3,a1,0x30
    80011c00:	00913c23          	sd	s1,24(sp)
    80011c04:	03f5d493          	srli	s1,a1,0x3f
    80011c08:	00f5f5b3          	and	a1,a1,a5
    80011c0c:	03d55813          	srli	a6,a0,0x3d
    80011c10:	00008737          	lui	a4,0x8
    80011c14:	00359593          	slli	a1,a1,0x3
    80011c18:	fff70713          	addi	a4,a4,-1 # 7fff <_start-0x7fff801d>
    80011c1c:	00b865b3          	or	a1,a6,a1
    80011c20:	03f6d313          	srli	t1,a3,0x3f
    80011c24:	0306d813          	srli	a6,a3,0x30
    80011c28:	00f6f6b3          	and	a3,a3,a5
    80011c2c:	02813023          	sd	s0,32(sp)
    80011c30:	03d65793          	srli	a5,a2,0x3d
    80011c34:	00ee7e33          	and	t3,t3,a4
    80011c38:	00369693          	slli	a3,a3,0x3
    80011c3c:	02113423          	sd	ra,40(sp)
    80011c40:	01213823          	sd	s2,16(sp)
    80011c44:	01313423          	sd	s3,8(sp)
    80011c48:	00e87833          	and	a6,a6,a4
    80011c4c:	000e0413          	mv	s0,t3
    80011c50:	00351513          	slli	a0,a0,0x3
    80011c54:	00d7e7b3          	or	a5,a5,a3
    80011c58:	00361613          	slli	a2,a2,0x3
    80011c5c:	00e81663          	bne	a6,a4,80011c68 <__subtf3+0x78>
    80011c60:	00c7e733          	or	a4,a5,a2
    80011c64:	00071463          	bnez	a4,80011c6c <__subtf3+0x7c>
    80011c68:	00134313          	xori	t1,t1,1
    80011c6c:	410e073b          	subw	a4,t3,a6
    80011c70:	00008eb7          	lui	t4,0x8
    80011c74:	0007069b          	sext.w	a3,a4
    80011c78:	fffe8893          	addi	a7,t4,-1 # 7fff <_start-0x7fff801d>
    80011c7c:	2c931663          	bne	t1,s1,80011f48 <__subtf3+0x358>
    80011c80:	12d05c63          	blez	a3,80011db8 <__subtf3+0x1c8>
    80011c84:	08081e63          	bnez	a6,80011d20 <__subtf3+0x130>
    80011c88:	00c7e6b3          	or	a3,a5,a2
    80011c8c:	06068663          	beqz	a3,80011cf8 <__subtf3+0x108>
    80011c90:	fff7069b          	addiw	a3,a4,-1
    80011c94:	06069063          	bnez	a3,80011cf4 <__subtf3+0x104>
    80011c98:	00c50633          	add	a2,a0,a2
    80011c9c:	00f585b3          	add	a1,a1,a5
    80011ca0:	00a63533          	sltu	a0,a2,a0
    80011ca4:	00a585b3          	add	a1,a1,a0
    80011ca8:	00060513          	mv	a0,a2
    80011cac:	0335d793          	srli	a5,a1,0x33
    80011cb0:	0017f793          	andi	a5,a5,1
    80011cb4:	04078263          	beqz	a5,80011cf8 <__subtf3+0x108>
    80011cb8:	000087b7          	lui	a5,0x8
    80011cbc:	00140413          	addi	s0,s0,1
    80011cc0:	fff78793          	addi	a5,a5,-1 # 7fff <_start-0x7fff801d>
    80011cc4:	62f40463          	beq	s0,a5,800122ec <__subtf3+0x6fc>
    80011cc8:	fff00793          	li	a5,-1
    80011ccc:	03379793          	slli	a5,a5,0x33
    80011cd0:	fff78793          	addi	a5,a5,-1
    80011cd4:	00f5f5b3          	and	a1,a1,a5
    80011cd8:	00155793          	srli	a5,a0,0x1
    80011cdc:	00157513          	andi	a0,a0,1
    80011ce0:	00a7e533          	or	a0,a5,a0
    80011ce4:	03f59793          	slli	a5,a1,0x3f
    80011ce8:	00a7e533          	or	a0,a5,a0
    80011cec:	0015d593          	srli	a1,a1,0x1
    80011cf0:	0080006f          	j	80011cf8 <__subtf3+0x108>
    80011cf4:	031e1e63          	bne	t3,a7,80011d30 <__subtf3+0x140>
    80011cf8:	00757793          	andi	a5,a0,7
    80011cfc:	5e078c63          	beqz	a5,800122f4 <__subtf3+0x704>
    80011d00:	00f57793          	andi	a5,a0,15
    80011d04:	00400713          	li	a4,4
    80011d08:	5ee78663          	beq	a5,a4,800122f4 <__subtf3+0x704>
    80011d0c:	00450793          	addi	a5,a0,4
    80011d10:	00a7b533          	sltu	a0,a5,a0
    80011d14:	00a585b3          	add	a1,a1,a0
    80011d18:	00078513          	mv	a0,a5
    80011d1c:	5d80006f          	j	800122f4 <__subtf3+0x704>
    80011d20:	fd1e0ce3          	beq	t3,a7,80011cf8 <__subtf3+0x108>
    80011d24:	00100713          	li	a4,1
    80011d28:	03371713          	slli	a4,a4,0x33
    80011d2c:	00e7e7b3          	or	a5,a5,a4
    80011d30:	07400713          	li	a4,116
    80011d34:	06d74c63          	blt	a4,a3,80011dac <__subtf3+0x1bc>
    80011d38:	03f00713          	li	a4,63
    80011d3c:	02d74e63          	blt	a4,a3,80011d78 <__subtf3+0x188>
    80011d40:	04000813          	li	a6,64
    80011d44:	40d8083b          	subw	a6,a6,a3
    80011d48:	01079733          	sll	a4,a5,a6
    80011d4c:	00d658b3          	srl	a7,a2,a3
    80011d50:	01061633          	sll	a2,a2,a6
    80011d54:	01176733          	or	a4,a4,a7
    80011d58:	00c03633          	snez	a2,a2
    80011d5c:	00c76633          	or	a2,a4,a2
    80011d60:	00d7d7b3          	srl	a5,a5,a3
    80011d64:	00a60633          	add	a2,a2,a0
    80011d68:	00b787b3          	add	a5,a5,a1
    80011d6c:	00a63533          	sltu	a0,a2,a0
    80011d70:	00a785b3          	add	a1,a5,a0
    80011d74:	f35ff06f          	j	80011ca8 <__subtf3+0xb8>
    80011d78:	fc06871b          	addiw	a4,a3,-64
    80011d7c:	04000893          	li	a7,64
    80011d80:	00e7d733          	srl	a4,a5,a4
    80011d84:	00000813          	li	a6,0
    80011d88:	01168863          	beq	a3,a7,80011d98 <__subtf3+0x1a8>
    80011d8c:	08000813          	li	a6,128
    80011d90:	40d806bb          	subw	a3,a6,a3
    80011d94:	00d79833          	sll	a6,a5,a3
    80011d98:	00c86633          	or	a2,a6,a2
    80011d9c:	00c03633          	snez	a2,a2
    80011da0:	00c76633          	or	a2,a4,a2
    80011da4:	00000793          	li	a5,0
    80011da8:	fbdff06f          	j	80011d64 <__subtf3+0x174>
    80011dac:	00c7e633          	or	a2,a5,a2
    80011db0:	00c03633          	snez	a2,a2
    80011db4:	ff1ff06f          	j	80011da4 <__subtf3+0x1b4>
    80011db8:	0e068263          	beqz	a3,80011e9c <__subtf3+0x2ac>
    80011dbc:	040e1263          	bnez	t3,80011e00 <__subtf3+0x210>
    80011dc0:	00a5e6b3          	or	a3,a1,a0
    80011dc4:	02068663          	beqz	a3,80011df0 <__subtf3+0x200>
    80011dc8:	fff74713          	not	a4,a4
    80011dcc:	0007071b          	sext.w	a4,a4
    80011dd0:	00071e63          	bnez	a4,80011dec <__subtf3+0x1fc>
    80011dd4:	00c50533          	add	a0,a0,a2
    80011dd8:	00f585b3          	add	a1,a1,a5
    80011ddc:	00c53633          	sltu	a2,a0,a2
    80011de0:	00c585b3          	add	a1,a1,a2
    80011de4:	00080413          	mv	s0,a6
    80011de8:	ec5ff06f          	j	80011cac <__subtf3+0xbc>
    80011dec:	03181463          	bne	a6,a7,80011e14 <__subtf3+0x224>
    80011df0:	00078593          	mv	a1,a5
    80011df4:	00060513          	mv	a0,a2
    80011df8:	00080413          	mv	s0,a6
    80011dfc:	efdff06f          	j	80011cf8 <__subtf3+0x108>
    80011e00:	ff1808e3          	beq	a6,a7,80011df0 <__subtf3+0x200>
    80011e04:	00100693          	li	a3,1
    80011e08:	03369693          	slli	a3,a3,0x33
    80011e0c:	40e0073b          	negw	a4,a4
    80011e10:	00d5e5b3          	or	a1,a1,a3
    80011e14:	07400693          	li	a3,116
    80011e18:	06e6cc63          	blt	a3,a4,80011e90 <__subtf3+0x2a0>
    80011e1c:	03f00693          	li	a3,63
    80011e20:	02e6ce63          	blt	a3,a4,80011e5c <__subtf3+0x26c>
    80011e24:	04000893          	li	a7,64
    80011e28:	40e888bb          	subw	a7,a7,a4
    80011e2c:	00e55333          	srl	t1,a0,a4
    80011e30:	011596b3          	sll	a3,a1,a7
    80011e34:	01151533          	sll	a0,a0,a7
    80011e38:	0066e6b3          	or	a3,a3,t1
    80011e3c:	00a03533          	snez	a0,a0
    80011e40:	00a6e533          	or	a0,a3,a0
    80011e44:	00e5d733          	srl	a4,a1,a4
    80011e48:	00c50533          	add	a0,a0,a2
    80011e4c:	00f70733          	add	a4,a4,a5
    80011e50:	00c53633          	sltu	a2,a0,a2
    80011e54:	00c705b3          	add	a1,a4,a2
    80011e58:	f8dff06f          	j	80011de4 <__subtf3+0x1f4>
    80011e5c:	fc07069b          	addiw	a3,a4,-64
    80011e60:	04000313          	li	t1,64
    80011e64:	00d5d6b3          	srl	a3,a1,a3
    80011e68:	00000893          	li	a7,0
    80011e6c:	00670863          	beq	a4,t1,80011e7c <__subtf3+0x28c>
    80011e70:	08000893          	li	a7,128
    80011e74:	40e8873b          	subw	a4,a7,a4
    80011e78:	00e598b3          	sll	a7,a1,a4
    80011e7c:	00a8e533          	or	a0,a7,a0
    80011e80:	00a03533          	snez	a0,a0
    80011e84:	00a6e533          	or	a0,a3,a0
    80011e88:	00000713          	li	a4,0
    80011e8c:	fbdff06f          	j	80011e48 <__subtf3+0x258>
    80011e90:	00a5e533          	or	a0,a1,a0
    80011e94:	00a03533          	snez	a0,a0
    80011e98:	ff1ff06f          	j	80011e88 <__subtf3+0x298>
    80011e9c:	001e0713          	addi	a4,t3,1
    80011ea0:	ffee8e93          	addi	t4,t4,-2
    80011ea4:	01d77eb3          	and	t4,a4,t4
    80011ea8:	060e9a63          	bnez	t4,80011f1c <__subtf3+0x32c>
    80011eac:	00a5e733          	or	a4,a1,a0
    80011eb0:	040e1463          	bnez	t3,80011ef8 <__subtf3+0x308>
    80011eb4:	40070e63          	beqz	a4,800122d0 <__subtf3+0x6e0>
    80011eb8:	00c7e733          	or	a4,a5,a2
    80011ebc:	e2070ee3          	beqz	a4,80011cf8 <__subtf3+0x108>
    80011ec0:	00c50633          	add	a2,a0,a2
    80011ec4:	00f585b3          	add	a1,a1,a5
    80011ec8:	00a63533          	sltu	a0,a2,a0
    80011ecc:	00a585b3          	add	a1,a1,a0
    80011ed0:	0335d793          	srli	a5,a1,0x33
    80011ed4:	0017f793          	andi	a5,a5,1
    80011ed8:	00060513          	mv	a0,a2
    80011edc:	e0078ee3          	beqz	a5,80011cf8 <__subtf3+0x108>
    80011ee0:	fff00793          	li	a5,-1
    80011ee4:	03379793          	slli	a5,a5,0x33
    80011ee8:	fff78793          	addi	a5,a5,-1
    80011eec:	00f5f5b3          	and	a1,a1,a5
    80011ef0:	00100413          	li	s0,1
    80011ef4:	e05ff06f          	j	80011cf8 <__subtf3+0x108>
    80011ef8:	3e070263          	beqz	a4,800122dc <__subtf3+0x6ec>
    80011efc:	00c7e633          	or	a2,a5,a2
    80011f00:	28060c63          	beqz	a2,80012198 <__subtf3+0x5a8>
    80011f04:	00100593          	li	a1,1
    80011f08:	00000493          	li	s1,0
    80011f0c:	03259593          	slli	a1,a1,0x32
    80011f10:	00000513          	li	a0,0
    80011f14:	00088413          	mv	s0,a7
    80011f18:	3dc0006f          	j	800122f4 <__subtf3+0x704>
    80011f1c:	3d170663          	beq	a4,a7,800122e8 <__subtf3+0x6f8>
    80011f20:	00c50633          	add	a2,a0,a2
    80011f24:	00a63533          	sltu	a0,a2,a0
    80011f28:	00f585b3          	add	a1,a1,a5
    80011f2c:	00a585b3          	add	a1,a1,a0
    80011f30:	03f59513          	slli	a0,a1,0x3f
    80011f34:	00165613          	srli	a2,a2,0x1
    80011f38:	00c56533          	or	a0,a0,a2
    80011f3c:	0015d593          	srli	a1,a1,0x1
    80011f40:	00070413          	mv	s0,a4
    80011f44:	db5ff06f          	j	80011cf8 <__subtf3+0x108>
    80011f48:	0ed05463          	blez	a3,80012030 <__subtf3+0x440>
    80011f4c:	08081863          	bnez	a6,80011fdc <__subtf3+0x3ec>
    80011f50:	00c7e6b3          	or	a3,a5,a2
    80011f54:	da0682e3          	beqz	a3,80011cf8 <__subtf3+0x108>
    80011f58:	fff7069b          	addiw	a3,a4,-1
    80011f5c:	02069a63          	bnez	a3,80011f90 <__subtf3+0x3a0>
    80011f60:	40c50633          	sub	a2,a0,a2
    80011f64:	40f585b3          	sub	a1,a1,a5
    80011f68:	00c53533          	sltu	a0,a0,a2
    80011f6c:	40a585b3          	sub	a1,a1,a0
    80011f70:	00060513          	mv	a0,a2
    80011f74:	0335d793          	srli	a5,a1,0x33
    80011f78:	0017f793          	andi	a5,a5,1
    80011f7c:	d6078ee3          	beqz	a5,80011cf8 <__subtf3+0x108>
    80011f80:	00d59593          	slli	a1,a1,0xd
    80011f84:	00d5d913          	srli	s2,a1,0xd
    80011f88:	00050993          	mv	s3,a0
    80011f8c:	24c0006f          	j	800121d8 <__subtf3+0x5e8>
    80011f90:	d71e04e3          	beq	t3,a7,80011cf8 <__subtf3+0x108>
    80011f94:	07400713          	li	a4,116
    80011f98:	08d74663          	blt	a4,a3,80012024 <__subtf3+0x434>
    80011f9c:	03f00713          	li	a4,63
    80011fa0:	04d74863          	blt	a4,a3,80011ff0 <__subtf3+0x400>
    80011fa4:	04000813          	li	a6,64
    80011fa8:	40d8083b          	subw	a6,a6,a3
    80011fac:	01079733          	sll	a4,a5,a6
    80011fb0:	00d658b3          	srl	a7,a2,a3
    80011fb4:	01061633          	sll	a2,a2,a6
    80011fb8:	01176733          	or	a4,a4,a7
    80011fbc:	00c03633          	snez	a2,a2
    80011fc0:	00c76633          	or	a2,a4,a2
    80011fc4:	00d7d7b3          	srl	a5,a5,a3
    80011fc8:	40c50633          	sub	a2,a0,a2
    80011fcc:	40f587b3          	sub	a5,a1,a5
    80011fd0:	00c53533          	sltu	a0,a0,a2
    80011fd4:	40a785b3          	sub	a1,a5,a0
    80011fd8:	f99ff06f          	j	80011f70 <__subtf3+0x380>
    80011fdc:	d11e0ee3          	beq	t3,a7,80011cf8 <__subtf3+0x108>
    80011fe0:	00100713          	li	a4,1
    80011fe4:	03371713          	slli	a4,a4,0x33
    80011fe8:	00e7e7b3          	or	a5,a5,a4
    80011fec:	fa9ff06f          	j	80011f94 <__subtf3+0x3a4>
    80011ff0:	fc06871b          	addiw	a4,a3,-64
    80011ff4:	04000893          	li	a7,64
    80011ff8:	00e7d733          	srl	a4,a5,a4
    80011ffc:	00000813          	li	a6,0
    80012000:	01168863          	beq	a3,a7,80012010 <__subtf3+0x420>
    80012004:	08000813          	li	a6,128
    80012008:	40d806bb          	subw	a3,a6,a3
    8001200c:	00d79833          	sll	a6,a5,a3
    80012010:	00c86633          	or	a2,a6,a2
    80012014:	00c03633          	snez	a2,a2
    80012018:	00c76633          	or	a2,a4,a2
    8001201c:	00000793          	li	a5,0
    80012020:	fa9ff06f          	j	80011fc8 <__subtf3+0x3d8>
    80012024:	00c7e633          	or	a2,a5,a2
    80012028:	00c03633          	snez	a2,a2
    8001202c:	ff1ff06f          	j	8001201c <__subtf3+0x42c>
    80012030:	0c068c63          	beqz	a3,80012108 <__subtf3+0x518>
    80012034:	040e1463          	bnez	t3,8001207c <__subtf3+0x48c>
    80012038:	00a5e6b3          	or	a3,a1,a0
    8001203c:	02068863          	beqz	a3,8001206c <__subtf3+0x47c>
    80012040:	fff74713          	not	a4,a4
    80012044:	0007071b          	sext.w	a4,a4
    80012048:	02071063          	bnez	a4,80012068 <__subtf3+0x478>
    8001204c:	40a60533          	sub	a0,a2,a0
    80012050:	40b785b3          	sub	a1,a5,a1
    80012054:	00a63633          	sltu	a2,a2,a0
    80012058:	40c585b3          	sub	a1,a1,a2
    8001205c:	00080413          	mv	s0,a6
    80012060:	00030493          	mv	s1,t1
    80012064:	f11ff06f          	j	80011f74 <__subtf3+0x384>
    80012068:	03181463          	bne	a6,a7,80012090 <__subtf3+0x4a0>
    8001206c:	00078593          	mv	a1,a5
    80012070:	00060513          	mv	a0,a2
    80012074:	00080413          	mv	s0,a6
    80012078:	0bc0006f          	j	80012134 <__subtf3+0x544>
    8001207c:	ff1808e3          	beq	a6,a7,8001206c <__subtf3+0x47c>
    80012080:	00100693          	li	a3,1
    80012084:	03369693          	slli	a3,a3,0x33
    80012088:	40e0073b          	negw	a4,a4
    8001208c:	00d5e5b3          	or	a1,a1,a3
    80012090:	07400693          	li	a3,116
    80012094:	06e6c463          	blt	a3,a4,800120fc <__subtf3+0x50c>
    80012098:	03f00693          	li	a3,63
    8001209c:	02e6c663          	blt	a3,a4,800120c8 <__subtf3+0x4d8>
    800120a0:	04000893          	li	a7,64
    800120a4:	40e888bb          	subw	a7,a7,a4
    800120a8:	011596b3          	sll	a3,a1,a7
    800120ac:	00e55e33          	srl	t3,a0,a4
    800120b0:	01151533          	sll	a0,a0,a7
    800120b4:	01c6e6b3          	or	a3,a3,t3
    800120b8:	00a03533          	snez	a0,a0
    800120bc:	00a6e533          	or	a0,a3,a0
    800120c0:	00e5d5b3          	srl	a1,a1,a4
    800120c4:	f89ff06f          	j	8001204c <__subtf3+0x45c>
    800120c8:	fc07069b          	addiw	a3,a4,-64
    800120cc:	04000e13          	li	t3,64
    800120d0:	00d5d6b3          	srl	a3,a1,a3
    800120d4:	00000893          	li	a7,0
    800120d8:	01c70863          	beq	a4,t3,800120e8 <__subtf3+0x4f8>
    800120dc:	08000893          	li	a7,128
    800120e0:	40e8873b          	subw	a4,a7,a4
    800120e4:	00e598b3          	sll	a7,a1,a4
    800120e8:	00a8e533          	or	a0,a7,a0
    800120ec:	00a03533          	snez	a0,a0
    800120f0:	00a6e533          	or	a0,a3,a0
    800120f4:	00000593          	li	a1,0
    800120f8:	f55ff06f          	j	8001204c <__subtf3+0x45c>
    800120fc:	00a5e533          	or	a0,a1,a0
    80012100:	00a03533          	snez	a0,a0
    80012104:	ff1ff06f          	j	800120f4 <__subtf3+0x504>
    80012108:	001e0713          	addi	a4,t3,1
    8001210c:	ffee8e93          	addi	t4,t4,-2
    80012110:	01d77eb3          	and	t4,a4,t4
    80012114:	080e9a63          	bnez	t4,800121a8 <__subtf3+0x5b8>
    80012118:	00a5e6b3          	or	a3,a1,a0
    8001211c:	00c7e733          	or	a4,a5,a2
    80012120:	060e1263          	bnez	t3,80012184 <__subtf3+0x594>
    80012124:	00069c63          	bnez	a3,8001213c <__subtf3+0x54c>
    80012128:	26070663          	beqz	a4,80012394 <__subtf3+0x7a4>
    8001212c:	00078593          	mv	a1,a5
    80012130:	00060513          	mv	a0,a2
    80012134:	00030493          	mv	s1,t1
    80012138:	bc1ff06f          	j	80011cf8 <__subtf3+0x108>
    8001213c:	ba070ee3          	beqz	a4,80011cf8 <__subtf3+0x108>
    80012140:	40c506b3          	sub	a3,a0,a2
    80012144:	00d53833          	sltu	a6,a0,a3
    80012148:	40f58733          	sub	a4,a1,a5
    8001214c:	41070733          	sub	a4,a4,a6
    80012150:	03375813          	srli	a6,a4,0x33
    80012154:	00187813          	andi	a6,a6,1
    80012158:	00080c63          	beqz	a6,80012170 <__subtf3+0x580>
    8001215c:	40a60533          	sub	a0,a2,a0
    80012160:	40b785b3          	sub	a1,a5,a1
    80012164:	00a63633          	sltu	a2,a2,a0
    80012168:	40c585b3          	sub	a1,a1,a2
    8001216c:	fc9ff06f          	j	80012134 <__subtf3+0x544>
    80012170:	00e6e533          	or	a0,a3,a4
    80012174:	22050863          	beqz	a0,800123a4 <__subtf3+0x7b4>
    80012178:	00070593          	mv	a1,a4
    8001217c:	00068513          	mv	a0,a3
    80012180:	b79ff06f          	j	80011cf8 <__subtf3+0x108>
    80012184:	00069e63          	bnez	a3,800121a0 <__subtf3+0x5b0>
    80012188:	22070263          	beqz	a4,800123ac <__subtf3+0x7bc>
    8001218c:	00078593          	mv	a1,a5
    80012190:	00060513          	mv	a0,a2
    80012194:	00030493          	mv	s1,t1
    80012198:	00088413          	mv	s0,a7
    8001219c:	b5dff06f          	j	80011cf8 <__subtf3+0x108>
    800121a0:	fe070ce3          	beqz	a4,80012198 <__subtf3+0x5a8>
    800121a4:	d61ff06f          	j	80011f04 <__subtf3+0x314>
    800121a8:	40c509b3          	sub	s3,a0,a2
    800121ac:	01353733          	sltu	a4,a0,s3
    800121b0:	40f58933          	sub	s2,a1,a5
    800121b4:	40e90933          	sub	s2,s2,a4
    800121b8:	03395713          	srli	a4,s2,0x33
    800121bc:	00177713          	andi	a4,a4,1
    800121c0:	08070863          	beqz	a4,80012250 <__subtf3+0x660>
    800121c4:	40a609b3          	sub	s3,a2,a0
    800121c8:	40b785b3          	sub	a1,a5,a1
    800121cc:	01363633          	sltu	a2,a2,s3
    800121d0:	40c58933          	sub	s2,a1,a2
    800121d4:	00030493          	mv	s1,t1
    800121d8:	08090663          	beqz	s2,80012264 <__subtf3+0x674>
    800121dc:	00090513          	mv	a0,s2
    800121e0:	588000ef          	jal	ra,80012768 <__clzdi2>
    800121e4:	0005051b          	sext.w	a0,a0
    800121e8:	ff45071b          	addiw	a4,a0,-12
    800121ec:	03f00693          	li	a3,63
    800121f0:	00070793          	mv	a5,a4
    800121f4:	08e6c063          	blt	a3,a4,80012274 <__subtf3+0x684>
    800121f8:	04000593          	li	a1,64
    800121fc:	40e585bb          	subw	a1,a1,a4
    80012200:	00e91933          	sll	s2,s2,a4
    80012204:	00b9d5b3          	srl	a1,s3,a1
    80012208:	0125e5b3          	or	a1,a1,s2
    8001220c:	00e99533          	sll	a0,s3,a4
    80012210:	0a874463          	blt	a4,s0,800122b8 <__subtf3+0x6c8>
    80012214:	408787bb          	subw	a5,a5,s0
    80012218:	0017869b          	addiw	a3,a5,1
    8001221c:	03f00713          	li	a4,63
    80012220:	06d74263          	blt	a4,a3,80012284 <__subtf3+0x694>
    80012224:	04000713          	li	a4,64
    80012228:	40d7073b          	subw	a4,a4,a3
    8001222c:	00e597b3          	sll	a5,a1,a4
    80012230:	00d55633          	srl	a2,a0,a3
    80012234:	00e51533          	sll	a0,a0,a4
    80012238:	00c7e7b3          	or	a5,a5,a2
    8001223c:	00a03533          	snez	a0,a0
    80012240:	00a7e533          	or	a0,a5,a0
    80012244:	00d5d5b3          	srl	a1,a1,a3
    80012248:	00000413          	li	s0,0
    8001224c:	aadff06f          	j	80011cf8 <__subtf3+0x108>
    80012250:	0129e533          	or	a0,s3,s2
    80012254:	f80512e3          	bnez	a0,800121d8 <__subtf3+0x5e8>
    80012258:	00000593          	li	a1,0
    8001225c:	00000413          	li	s0,0
    80012260:	13c0006f          	j	8001239c <__subtf3+0x7ac>
    80012264:	00098513          	mv	a0,s3
    80012268:	500000ef          	jal	ra,80012768 <__clzdi2>
    8001226c:	0405051b          	addiw	a0,a0,64
    80012270:	f79ff06f          	j	800121e8 <__subtf3+0x5f8>
    80012274:	fb45059b          	addiw	a1,a0,-76
    80012278:	00b995b3          	sll	a1,s3,a1
    8001227c:	00000513          	li	a0,0
    80012280:	f91ff06f          	j	80012210 <__subtf3+0x620>
    80012284:	fc17879b          	addiw	a5,a5,-63
    80012288:	04000813          	li	a6,64
    8001228c:	00f5d7b3          	srl	a5,a1,a5
    80012290:	00000713          	li	a4,0
    80012294:	01068863          	beq	a3,a6,800122a4 <__subtf3+0x6b4>
    80012298:	08000713          	li	a4,128
    8001229c:	40d7073b          	subw	a4,a4,a3
    800122a0:	00e59733          	sll	a4,a1,a4
    800122a4:	00e56533          	or	a0,a0,a4
    800122a8:	00a03533          	snez	a0,a0
    800122ac:	00a7e533          	or	a0,a5,a0
    800122b0:	00000593          	li	a1,0
    800122b4:	f95ff06f          	j	80012248 <__subtf3+0x658>
    800122b8:	fff00793          	li	a5,-1
    800122bc:	03379793          	slli	a5,a5,0x33
    800122c0:	fff78793          	addi	a5,a5,-1
    800122c4:	40e40433          	sub	s0,s0,a4
    800122c8:	00f5f5b3          	and	a1,a1,a5
    800122cc:	a2dff06f          	j	80011cf8 <__subtf3+0x108>
    800122d0:	00078593          	mv	a1,a5
    800122d4:	00060513          	mv	a0,a2
    800122d8:	a21ff06f          	j	80011cf8 <__subtf3+0x108>
    800122dc:	00078593          	mv	a1,a5
    800122e0:	00060513          	mv	a0,a2
    800122e4:	eb5ff06f          	j	80012198 <__subtf3+0x5a8>
    800122e8:	00070413          	mv	s0,a4
    800122ec:	00000593          	li	a1,0
    800122f0:	00000513          	li	a0,0
    800122f4:	0335d793          	srli	a5,a1,0x33
    800122f8:	0017f793          	andi	a5,a5,1
    800122fc:	02078263          	beqz	a5,80012320 <__subtf3+0x730>
    80012300:	000087b7          	lui	a5,0x8
    80012304:	00140413          	addi	s0,s0,1
    80012308:	fff78793          	addi	a5,a5,-1 # 7fff <_start-0x7fff801d>
    8001230c:	0af40a63          	beq	s0,a5,800123c0 <__subtf3+0x7d0>
    80012310:	fff00793          	li	a5,-1
    80012314:	03379793          	slli	a5,a5,0x33
    80012318:	fff78793          	addi	a5,a5,-1
    8001231c:	00f5f5b3          	and	a1,a1,a5
    80012320:	03d59793          	slli	a5,a1,0x3d
    80012324:	00355513          	srli	a0,a0,0x3
    80012328:	00a7e533          	or	a0,a5,a0
    8001232c:	000087b7          	lui	a5,0x8
    80012330:	fff78793          	addi	a5,a5,-1 # 7fff <_start-0x7fff801d>
    80012334:	0035d593          	srli	a1,a1,0x3
    80012338:	02f41063          	bne	s0,a5,80012358 <__subtf3+0x768>
    8001233c:	00b56533          	or	a0,a0,a1
    80012340:	00000593          	li	a1,0
    80012344:	00050a63          	beqz	a0,80012358 <__subtf3+0x768>
    80012348:	00100593          	li	a1,1
    8001234c:	02f59593          	slli	a1,a1,0x2f
    80012350:	00000513          	li	a0,0
    80012354:	00000493          	li	s1,0
    80012358:	03141793          	slli	a5,s0,0x31
    8001235c:	02813083          	ld	ra,40(sp)
    80012360:	02013403          	ld	s0,32(sp)
    80012364:	00f4949b          	slliw	s1,s1,0xf
    80012368:	0317d793          	srli	a5,a5,0x31
    8001236c:	0097e7b3          	or	a5,a5,s1
    80012370:	01059593          	slli	a1,a1,0x10
    80012374:	03079793          	slli	a5,a5,0x30
    80012378:	0105d593          	srli	a1,a1,0x10
    8001237c:	01813483          	ld	s1,24(sp)
    80012380:	01013903          	ld	s2,16(sp)
    80012384:	00813983          	ld	s3,8(sp)
    80012388:	00f5e5b3          	or	a1,a1,a5
    8001238c:	03010113          	addi	sp,sp,48
    80012390:	00008067          	ret
    80012394:	00000593          	li	a1,0
    80012398:	00000513          	li	a0,0
    8001239c:	00000493          	li	s1,0
    800123a0:	f55ff06f          	j	800122f4 <__subtf3+0x704>
    800123a4:	00000593          	li	a1,0
    800123a8:	ff5ff06f          	j	8001239c <__subtf3+0x7ac>
    800123ac:	00100593          	li	a1,1
    800123b0:	00000513          	li	a0,0
    800123b4:	00000493          	li	s1,0
    800123b8:	03259593          	slli	a1,a1,0x32
    800123bc:	b59ff06f          	j	80011f14 <__subtf3+0x324>
    800123c0:	00000593          	li	a1,0
    800123c4:	00000513          	li	a0,0
    800123c8:	f59ff06f          	j	80012320 <__subtf3+0x730>

00000000800123cc <__fixtfsi>:
    800123cc:	00159793          	slli	a5,a1,0x1
    800123d0:	00004737          	lui	a4,0x4
    800123d4:	0317d793          	srli	a5,a5,0x31
    800123d8:	ffe70613          	addi	a2,a4,-2 # 3ffe <_start-0x7fffc01e>
    800123dc:	03f5d693          	srli	a3,a1,0x3f
    800123e0:	00000513          	li	a0,0
    800123e4:	04f65663          	bge	a2,a5,80012430 <__fixtfsi+0x64>
    800123e8:	01d70713          	addi	a4,a4,29
    800123ec:	00f75a63          	bge	a4,a5,80012400 <__fixtfsi+0x34>
    800123f0:	80000537          	lui	a0,0x80000
    800123f4:	fff54513          	not	a0,a0
    800123f8:	00d5053b          	addw	a0,a0,a3
    800123fc:	00008067          	ret
    80012400:	01059513          	slli	a0,a1,0x10
    80012404:	00100593          	li	a1,1
    80012408:	03059593          	slli	a1,a1,0x30
    8001240c:	01055513          	srli	a0,a0,0x10
    80012410:	00b56533          	or	a0,a0,a1
    80012414:	000045b7          	lui	a1,0x4
    80012418:	02f5859b          	addiw	a1,a1,47
    8001241c:	40f585bb          	subw	a1,a1,a5
    80012420:	00b55533          	srl	a0,a0,a1
    80012424:	0005051b          	sext.w	a0,a0
    80012428:	00068463          	beqz	a3,80012430 <__fixtfsi+0x64>
    8001242c:	40a0053b          	negw	a0,a0
    80012430:	00008067          	ret

0000000080012434 <__floatsitf>:
    80012434:	fe010113          	addi	sp,sp,-32
    80012438:	00113c23          	sd	ra,24(sp)
    8001243c:	00813823          	sd	s0,16(sp)
    80012440:	00913423          	sd	s1,8(sp)
    80012444:	06050463          	beqz	a0,800124ac <__floatsitf+0x78>
    80012448:	0005079b          	sext.w	a5,a0
    8001244c:	03f55493          	srli	s1,a0,0x3f
    80012450:	00055463          	bgez	a0,80012458 <__floatsitf+0x24>
    80012454:	40f007bb          	negw	a5,a5
    80012458:	02079413          	slli	s0,a5,0x20
    8001245c:	02045413          	srli	s0,s0,0x20
    80012460:	00040513          	mv	a0,s0
    80012464:	304000ef          	jal	ra,80012768 <__clzdi2>
    80012468:	000045b7          	lui	a1,0x4
    8001246c:	03e5859b          	addiw	a1,a1,62
    80012470:	ff15079b          	addiw	a5,a0,-15
    80012474:	40a585bb          	subw	a1,a1,a0
    80012478:	00f417b3          	sll	a5,s0,a5
    8001247c:	01813083          	ld	ra,24(sp)
    80012480:	01013403          	ld	s0,16(sp)
    80012484:	00f4949b          	slliw	s1,s1,0xf
    80012488:	0095e5b3          	or	a1,a1,s1
    8001248c:	01079793          	slli	a5,a5,0x10
    80012490:	03059593          	slli	a1,a1,0x30
    80012494:	0107d793          	srli	a5,a5,0x10
    80012498:	00813483          	ld	s1,8(sp)
    8001249c:	00000513          	li	a0,0
    800124a0:	00b7e5b3          	or	a1,a5,a1
    800124a4:	02010113          	addi	sp,sp,32
    800124a8:	00008067          	ret
    800124ac:	00000793          	li	a5,0
    800124b0:	00000593          	li	a1,0
    800124b4:	00000493          	li	s1,0
    800124b8:	fc5ff06f          	j	8001247c <__floatsitf+0x48>

00000000800124bc <__extenddftf2>:
    800124bc:	03455593          	srli	a1,a0,0x34
    800124c0:	7ff5f593          	andi	a1,a1,2047
    800124c4:	fe010113          	addi	sp,sp,-32
    800124c8:	00158793          	addi	a5,a1,1 # 4001 <_start-0x7fffc01b>
    800124cc:	00813823          	sd	s0,16(sp)
    800124d0:	00913423          	sd	s1,8(sp)
    800124d4:	00c51413          	slli	s0,a0,0xc
    800124d8:	00113c23          	sd	ra,24(sp)
    800124dc:	7fe7f793          	andi	a5,a5,2046
    800124e0:	00c45413          	srli	s0,s0,0xc
    800124e4:	03f55493          	srli	s1,a0,0x3f
    800124e8:	04078463          	beqz	a5,80012530 <__extenddftf2+0x74>
    800124ec:	000047b7          	lui	a5,0x4
    800124f0:	c0078793          	addi	a5,a5,-1024 # 3c00 <_start-0x7fffc41c>
    800124f4:	00445713          	srli	a4,s0,0x4
    800124f8:	00f585b3          	add	a1,a1,a5
    800124fc:	03c41413          	slli	s0,s0,0x3c
    80012500:	00f4951b          	slliw	a0,s1,0xf
    80012504:	01813083          	ld	ra,24(sp)
    80012508:	00a5e5b3          	or	a1,a1,a0
    8001250c:	00040513          	mv	a0,s0
    80012510:	01013403          	ld	s0,16(sp)
    80012514:	01071713          	slli	a4,a4,0x10
    80012518:	03059593          	slli	a1,a1,0x30
    8001251c:	01075713          	srli	a4,a4,0x10
    80012520:	00813483          	ld	s1,8(sp)
    80012524:	00b765b3          	or	a1,a4,a1
    80012528:	02010113          	addi	sp,sp,32
    8001252c:	00008067          	ret
    80012530:	04059a63          	bnez	a1,80012584 <__extenddftf2+0xc8>
    80012534:	00000713          	li	a4,0
    80012538:	fc0404e3          	beqz	s0,80012500 <__extenddftf2+0x44>
    8001253c:	00040513          	mv	a0,s0
    80012540:	228000ef          	jal	ra,80012768 <__clzdi2>
    80012544:	0005071b          	sext.w	a4,a0
    80012548:	00e00793          	li	a5,14
    8001254c:	02e7c463          	blt	a5,a4,80012574 <__extenddftf2+0xb8>
    80012550:	00f00713          	li	a4,15
    80012554:	40a7073b          	subw	a4,a4,a0
    80012558:	0315079b          	addiw	a5,a0,49
    8001255c:	00e45733          	srl	a4,s0,a4
    80012560:	00f41433          	sll	s0,s0,a5
    80012564:	000047b7          	lui	a5,0x4
    80012568:	c0c7879b          	addiw	a5,a5,-1012
    8001256c:	40a785bb          	subw	a1,a5,a0
    80012570:	f91ff06f          	j	80012500 <__extenddftf2+0x44>
    80012574:	ff15071b          	addiw	a4,a0,-15
    80012578:	00e41733          	sll	a4,s0,a4
    8001257c:	00000413          	li	s0,0
    80012580:	fe5ff06f          	j	80012564 <__extenddftf2+0xa8>
    80012584:	00000713          	li	a4,0
    80012588:	00040c63          	beqz	s0,800125a0 <__extenddftf2+0xe4>
    8001258c:	00100593          	li	a1,1
    80012590:	00445713          	srli	a4,s0,0x4
    80012594:	02f59593          	slli	a1,a1,0x2f
    80012598:	00b76733          	or	a4,a4,a1
    8001259c:	03c41413          	slli	s0,s0,0x3c
    800125a0:	000085b7          	lui	a1,0x8
    800125a4:	fff58593          	addi	a1,a1,-1 # 7fff <_start-0x7fff801d>
    800125a8:	f59ff06f          	j	80012500 <__extenddftf2+0x44>

00000000800125ac <__trunctfdf2>:
    800125ac:	00008837          	lui	a6,0x8
    800125b0:	fff80793          	addi	a5,a6,-1 # 7fff <_start-0x7fff801d>
    800125b4:	0305d713          	srli	a4,a1,0x30
    800125b8:	00f77733          	and	a4,a4,a5
    800125bc:	03f5d613          	srli	a2,a1,0x3f
    800125c0:	00170793          	addi	a5,a4,1
    800125c4:	01059593          	slli	a1,a1,0x10
    800125c8:	ffe80813          	addi	a6,a6,-2
    800125cc:	00d5d593          	srli	a1,a1,0xd
    800125d0:	03d55693          	srli	a3,a0,0x3d
    800125d4:	0107f833          	and	a6,a5,a6
    800125d8:	00b6e6b3          	or	a3,a3,a1
    800125dc:	00351593          	slli	a1,a0,0x3
    800125e0:	0c080263          	beqz	a6,800126a4 <__trunctfdf2+0xf8>
    800125e4:	ffffc7b7          	lui	a5,0xffffc
    800125e8:	40078793          	addi	a5,a5,1024 # ffffffffffffc400 <t0.2038+0xffffffff7ffbf7b8>
    800125ec:	00f70733          	add	a4,a4,a5
    800125f0:	7fe00793          	li	a5,2046
    800125f4:	0ee7c263          	blt	a5,a4,800126d8 <__trunctfdf2+0x12c>
    800125f8:	08e04863          	bgtz	a4,80012688 <__trunctfdf2+0xdc>
    800125fc:	fcc00793          	li	a5,-52
    80012600:	14f74263          	blt	a4,a5,80012744 <__trunctfdf2+0x198>
    80012604:	00100793          	li	a5,1
    80012608:	03379793          	slli	a5,a5,0x33
    8001260c:	00f6e6b3          	or	a3,a3,a5
    80012610:	03d00793          	li	a5,61
    80012614:	40e787b3          	sub	a5,a5,a4
    80012618:	0007051b          	sext.w	a0,a4
    8001261c:	03f00713          	li	a4,63
    80012620:	02f74c63          	blt	a4,a5,80012658 <__trunctfdf2+0xac>
    80012624:	03d00793          	li	a5,61
    80012628:	0035071b          	addiw	a4,a0,3
    8001262c:	40a787bb          	subw	a5,a5,a0
    80012630:	00f5d7b3          	srl	a5,a1,a5
    80012634:	00e595b3          	sll	a1,a1,a4
    80012638:	00b035b3          	snez	a1,a1
    8001263c:	00b7e7b3          	or	a5,a5,a1
    80012640:	00e696b3          	sll	a3,a3,a4
    80012644:	00f6e7b3          	or	a5,a3,a5
    80012648:	00000713          	li	a4,0
    8001264c:	0077f693          	andi	a3,a5,7
    80012650:	08068863          	beqz	a3,800126e0 <__trunctfdf2+0x134>
    80012654:	0f80006f          	j	8001274c <__trunctfdf2+0x1a0>
    80012658:	ffd00713          	li	a4,-3
    8001265c:	40a7073b          	subw	a4,a4,a0
    80012660:	04000893          	li	a7,64
    80012664:	00e6d733          	srl	a4,a3,a4
    80012668:	00000813          	li	a6,0
    8001266c:	01178663          	beq	a5,a7,80012678 <__trunctfdf2+0xcc>
    80012670:	0435079b          	addiw	a5,a0,67
    80012674:	00f69833          	sll	a6,a3,a5
    80012678:	00b867b3          	or	a5,a6,a1
    8001267c:	00f037b3          	snez	a5,a5
    80012680:	00f767b3          	or	a5,a4,a5
    80012684:	fc5ff06f          	j	80012648 <__trunctfdf2+0x9c>
    80012688:	00751793          	slli	a5,a0,0x7
    8001268c:	00f037b3          	snez	a5,a5
    80012690:	03c5d593          	srli	a1,a1,0x3c
    80012694:	00b7e7b3          	or	a5,a5,a1
    80012698:	00469693          	slli	a3,a3,0x4
    8001269c:	00f6e7b3          	or	a5,a3,a5
    800126a0:	fadff06f          	j	8001264c <__trunctfdf2+0xa0>
    800126a4:	00b6e7b3          	or	a5,a3,a1
    800126a8:	00071663          	bnez	a4,800126b4 <__trunctfdf2+0x108>
    800126ac:	00f037b3          	snez	a5,a5
    800126b0:	f9dff06f          	j	8001264c <__trunctfdf2+0xa0>
    800126b4:	7ff00713          	li	a4,2047
    800126b8:	02078463          	beqz	a5,800126e0 <__trunctfdf2+0x134>
    800126bc:	03c5d593          	srli	a1,a1,0x3c
    800126c0:	00469693          	slli	a3,a3,0x4
    800126c4:	00b6e6b3          	or	a3,a3,a1
    800126c8:	00100793          	li	a5,1
    800126cc:	ff86f693          	andi	a3,a3,-8
    800126d0:	03679793          	slli	a5,a5,0x36
    800126d4:	fc9ff06f          	j	8001269c <__trunctfdf2+0xf0>
    800126d8:	00000793          	li	a5,0
    800126dc:	7ff00713          	li	a4,2047
    800126e0:	0377d693          	srli	a3,a5,0x37
    800126e4:	0016f693          	andi	a3,a3,1
    800126e8:	02068063          	beqz	a3,80012708 <__trunctfdf2+0x15c>
    800126ec:	00170713          	addi	a4,a4,1
    800126f0:	7ff00693          	li	a3,2047
    800126f4:	06d70663          	beq	a4,a3,80012760 <__trunctfdf2+0x1b4>
    800126f8:	fff00693          	li	a3,-1
    800126fc:	03769693          	slli	a3,a3,0x37
    80012700:	fff68693          	addi	a3,a3,-1
    80012704:	00d7f7b3          	and	a5,a5,a3
    80012708:	7ff00693          	li	a3,2047
    8001270c:	0037d793          	srli	a5,a5,0x3
    80012710:	00d71a63          	bne	a4,a3,80012724 <__trunctfdf2+0x178>
    80012714:	00078863          	beqz	a5,80012724 <__trunctfdf2+0x178>
    80012718:	00100793          	li	a5,1
    8001271c:	03379793          	slli	a5,a5,0x33
    80012720:	00000613          	li	a2,0
    80012724:	7ff77713          	andi	a4,a4,2047
    80012728:	00c79793          	slli	a5,a5,0xc
    8001272c:	03471713          	slli	a4,a4,0x34
    80012730:	00c7d793          	srli	a5,a5,0xc
    80012734:	00f767b3          	or	a5,a4,a5
    80012738:	03f61513          	slli	a0,a2,0x3f
    8001273c:	00a7e533          	or	a0,a5,a0
    80012740:	00008067          	ret
    80012744:	00100793          	li	a5,1
    80012748:	00000713          	li	a4,0
    8001274c:	00f7f693          	andi	a3,a5,15
    80012750:	00400593          	li	a1,4
    80012754:	f8b686e3          	beq	a3,a1,800126e0 <__trunctfdf2+0x134>
    80012758:	00478793          	addi	a5,a5,4
    8001275c:	f85ff06f          	j	800126e0 <__trunctfdf2+0x134>
    80012760:	00000793          	li	a5,0
    80012764:	fa5ff06f          	j	80012708 <__trunctfdf2+0x15c>

0000000080012768 <__clzdi2>:
    80012768:	03800793          	li	a5,56
    8001276c:	00f55733          	srl	a4,a0,a5
    80012770:	0ff77713          	andi	a4,a4,255
    80012774:	00071663          	bnez	a4,80012780 <__clzdi2+0x18>
    80012778:	ff878793          	addi	a5,a5,-8
    8001277c:	fe0798e3          	bnez	a5,8001276c <__clzdi2+0x4>
    80012780:	00024737          	lui	a4,0x24
    80012784:	04000693          	li	a3,64
    80012788:	40f686b3          	sub	a3,a3,a5
    8001278c:	00f55533          	srl	a0,a0,a5
    80012790:	c2870793          	addi	a5,a4,-984 # 23c28 <_start-0x7ffdc3f4>
    80012794:	00a78533          	add	a0,a5,a0
    80012798:	00054503          	lbu	a0,0(a0) # ffffffff80000000 <t0.2038+0xfffffffefffc33b8>
    8001279c:	40a6853b          	subw	a0,a3,a0
    800127a0:	00008067          	ret