
main.elf：     文件格式 elf64-littleriscv


Disassembly of section .text:

0000000080000000 <_start-0x1c>:
    80000000:	00004033          	nop
    80000004:	00004033          	nop
    80000008:	00004033          	nop
    8000000c:	00004033          	nop
    80000010:	00004033          	nop
    80000014:	00004033          	nop
    80000018:	00004033          	nop

000000008000001c <_start>:
    8000001c:	00016197          	auipc	gp,0x16
    80000020:	85418193          	addi	gp,gp,-1964 # 80015870 <enormlz+0x6c>
    80000024:	85818513          	addi	a0,gp,-1960 # 80015178 <_edata>
    80000028:	00018617          	auipc	a2,0x18
    8000002c:	98860613          	addi	a2,a2,-1656 # 800179b0 <e113toe.isra.0+0xc30>
    80000030:	40a60633          	sub	a2,a2,a0
    80000034:	00000593          	li	a1,0
    80000038:	28c010ef          	jal	ra,800012c4 <memset>
    8000003c:	0000e517          	auipc	a0,0xe
    80000040:	65850513          	addi	a0,a0,1624 # 8000e694 <atexit>
    80000044:	00050863          	beqz	a0,80000054 <_start+0x38>
    80000048:	00005517          	auipc	a0,0x5
    8000004c:	9e050513          	addi	a0,a0,-1568 # 80004a28 <__libc_fini_array>
    80000050:	6440e0ef          	jal	ra,8000e694 <atexit>
    80000054:	0b8010ef          	jal	ra,8000110c <__libc_init_array>
    80000058:	00012503          	lw	a0,0(sp)
    8000005c:	00810593          	addi	a1,sp,8
    80000060:	00000613          	li	a2,0
    80000064:	56c000ef          	jal	ra,800005d0 <main>
    80000068:	0740106f          	j	800010dc <exit>
    8000006c:	8d81c703          	lbu	a4,-1832(gp) # 800151f8 <errno+0x10>
    80000070:	04071463          	bnez	a4,800000b8 <_start+0x9c>
    80000074:	ff010113          	addi	sp,sp,-16
    80000078:	00813023          	sd	s0,0(sp)
    8000007c:	00078413          	mv	s0,a5
    80000080:	000007b7          	lui	a5,0x0
    80000084:	00113423          	sd	ra,8(sp)
    80000088:	00078793          	mv	a5,a5
    8000008c:	00078a63          	beqz	a5,800000a0 <_start+0x84>
    80000090:	00024537          	lui	a0,0x24
    80000094:	00050513          	mv	a0,a0
    80000098:	00000097          	auipc	ra,0x0
    8000009c:	000000e7          	jalr	zero # 0 <_start-0x8000001c>
    800000a0:	00100793          	li	a5,1
    800000a4:	00813083          	ld	ra,8(sp)
    800000a8:	8cf18c23          	sb	a5,-1832(gp) # 800151f8 <errno+0x10>
    800000ac:	00013403          	ld	s0,0(sp)
    800000b0:	01010113          	addi	sp,sp,16
    800000b4:	00008067          	ret
    800000b8:	00008067          	ret
    800000bc:	000007b7          	lui	a5,0x0
    800000c0:	00078793          	mv	a5,a5
    800000c4:	00078c63          	beqz	a5,800000dc <_start+0xc0>
    800000c8:	00024537          	lui	a0,0x24
    800000cc:	8e018593          	addi	a1,gp,-1824 # 80015200 <errno+0x18>
    800000d0:	00050513          	mv	a0,a0
    800000d4:	00000317          	auipc	t1,0x0
    800000d8:	00000067          	jr	zero # 0 <_start-0x8000001c>
    800000dc:	00008067          	ret

00000000800000e0 <Proc_6>:
    800000e0:	fe010113          	addi	sp,sp,-32
    800000e4:	00113c23          	sd	ra,24(sp)
    800000e8:	00813823          	sd	s0,16(sp)
    800000ec:	02010413          	addi	s0,sp,32
    800000f0:	00050793          	mv	a5,a0
    800000f4:	feb43023          	sd	a1,-32(s0)
    800000f8:	fef42623          	sw	a5,-20(s0)
    800000fc:	fe043783          	ld	a5,-32(s0)
    80000100:	fec42703          	lw	a4,-20(s0)
    80000104:	00e7a023          	sw	a4,0(a5) # 0 <_start-0x8000001c>
    80000108:	fec42783          	lw	a5,-20(s0)
    8000010c:	00078513          	mv	a0,a5
    80000110:	43c000ef          	jal	ra,8000054c <Func_3>
    80000114:	00050793          	mv	a5,a0
    80000118:	00079863          	bnez	a5,80000128 <Proc_6+0x48>
    8000011c:	fe043783          	ld	a5,-32(s0)
    80000120:	00300713          	li	a4,3
    80000124:	00e7a023          	sw	a4,0(a5)
    80000128:	fec42783          	lw	a5,-20(s0)
    8000012c:	0007871b          	sext.w	a4,a5
    80000130:	00400793          	li	a5,4
    80000134:	06e7ee63          	bltu	a5,a4,800001b0 <Proc_6+0xd0>
    80000138:	fec46783          	lwu	a5,-20(s0)
    8000013c:	00279713          	slli	a4,a5,0x2
    80000140:	000237b7          	lui	a5,0x23
    80000144:	86078793          	addi	a5,a5,-1952 # 22860 <_start-0x7ffdd7bc>
    80000148:	00f707b3          	add	a5,a4,a5
    8000014c:	0007a783          	lw	a5,0(a5)
    80000150:	00078067          	jr	a5
    80000154:	fe043783          	ld	a5,-32(s0)
    80000158:	0007a023          	sw	zero,0(a5)
    8000015c:	0540006f          	j	800001b0 <Proc_6+0xd0>
    80000160:	8681a783          	lw	a5,-1944(gp) # 80015188 <Int_Glob>
    80000164:	00078713          	mv	a4,a5
    80000168:	06400793          	li	a5,100
    8000016c:	00e7d863          	bge	a5,a4,8000017c <Proc_6+0x9c>
    80000170:	fe043783          	ld	a5,-32(s0)
    80000174:	0007a023          	sw	zero,0(a5)
    80000178:	0380006f          	j	800001b0 <Proc_6+0xd0>
    8000017c:	fe043783          	ld	a5,-32(s0)
    80000180:	00300713          	li	a4,3
    80000184:	00e7a023          	sw	a4,0(a5)
    80000188:	0280006f          	j	800001b0 <Proc_6+0xd0>
    8000018c:	fe043783          	ld	a5,-32(s0)
    80000190:	00100713          	li	a4,1
    80000194:	00e7a023          	sw	a4,0(a5)
    80000198:	0180006f          	j	800001b0 <Proc_6+0xd0>
    8000019c:	fe043783          	ld	a5,-32(s0)
    800001a0:	00200713          	li	a4,2
    800001a4:	00e7a023          	sw	a4,0(a5)
    800001a8:	0080006f          	j	800001b0 <Proc_6+0xd0>
    800001ac:	00000013          	nop
    800001b0:	00000013          	nop
    800001b4:	00078513          	mv	a0,a5
    800001b8:	01813083          	ld	ra,24(sp)
    800001bc:	01013403          	ld	s0,16(sp)
    800001c0:	02010113          	addi	sp,sp,32
    800001c4:	00008067          	ret

00000000800001c8 <Proc_7>:
    800001c8:	fd010113          	addi	sp,sp,-48
    800001cc:	02813423          	sd	s0,40(sp)
    800001d0:	03010413          	addi	s0,sp,48
    800001d4:	00050793          	mv	a5,a0
    800001d8:	00058713          	mv	a4,a1
    800001dc:	fcc43823          	sd	a2,-48(s0)
    800001e0:	fcf42e23          	sw	a5,-36(s0)
    800001e4:	00070793          	mv	a5,a4
    800001e8:	fcf42c23          	sw	a5,-40(s0)
    800001ec:	fdc42783          	lw	a5,-36(s0)
    800001f0:	0027879b          	addiw	a5,a5,2
    800001f4:	fef42623          	sw	a5,-20(s0)
    800001f8:	fd842703          	lw	a4,-40(s0)
    800001fc:	fec42783          	lw	a5,-20(s0)
    80000200:	00f707bb          	addw	a5,a4,a5
    80000204:	0007871b          	sext.w	a4,a5
    80000208:	fd043783          	ld	a5,-48(s0)
    8000020c:	00e7a023          	sw	a4,0(a5)
    80000210:	00000013          	nop
    80000214:	00078513          	mv	a0,a5
    80000218:	02813403          	ld	s0,40(sp)
    8000021c:	03010113          	addi	sp,sp,48
    80000220:	00008067          	ret

0000000080000224 <Proc_8>:
    80000224:	fc010113          	addi	sp,sp,-64
    80000228:	02813c23          	sd	s0,56(sp)
    8000022c:	04010413          	addi	s0,sp,64
    80000230:	fca43c23          	sd	a0,-40(s0)
    80000234:	fcb43823          	sd	a1,-48(s0)
    80000238:	00060793          	mv	a5,a2
    8000023c:	00068713          	mv	a4,a3
    80000240:	fcf42623          	sw	a5,-52(s0)
    80000244:	00070793          	mv	a5,a4
    80000248:	fcf42423          	sw	a5,-56(s0)
    8000024c:	fcc42783          	lw	a5,-52(s0)
    80000250:	0057879b          	addiw	a5,a5,5
    80000254:	fef42423          	sw	a5,-24(s0)
    80000258:	fe842783          	lw	a5,-24(s0)
    8000025c:	00279793          	slli	a5,a5,0x2
    80000260:	fd843703          	ld	a4,-40(s0)
    80000264:	00f707b3          	add	a5,a4,a5
    80000268:	fc842703          	lw	a4,-56(s0)
    8000026c:	00e7a023          	sw	a4,0(a5)
    80000270:	fe842783          	lw	a5,-24(s0)
    80000274:	00279793          	slli	a5,a5,0x2
    80000278:	fd843703          	ld	a4,-40(s0)
    8000027c:	00f70733          	add	a4,a4,a5
    80000280:	fe842783          	lw	a5,-24(s0)
    80000284:	00178793          	addi	a5,a5,1
    80000288:	00279793          	slli	a5,a5,0x2
    8000028c:	fd843683          	ld	a3,-40(s0)
    80000290:	00f687b3          	add	a5,a3,a5
    80000294:	00072703          	lw	a4,0(a4)
    80000298:	00e7a023          	sw	a4,0(a5)
    8000029c:	fe842783          	lw	a5,-24(s0)
    800002a0:	01e78793          	addi	a5,a5,30
    800002a4:	00279793          	slli	a5,a5,0x2
    800002a8:	fd843703          	ld	a4,-40(s0)
    800002ac:	00f707b3          	add	a5,a4,a5
    800002b0:	fe842703          	lw	a4,-24(s0)
    800002b4:	00e7a023          	sw	a4,0(a5)
    800002b8:	fe842783          	lw	a5,-24(s0)
    800002bc:	fef42623          	sw	a5,-20(s0)
    800002c0:	0380006f          	j	800002f8 <Proc_8+0xd4>
    800002c4:	fe842703          	lw	a4,-24(s0)
    800002c8:	0c800793          	li	a5,200
    800002cc:	02f707b3          	mul	a5,a4,a5
    800002d0:	fd043703          	ld	a4,-48(s0)
    800002d4:	00f70733          	add	a4,a4,a5
    800002d8:	fec42783          	lw	a5,-20(s0)
    800002dc:	00279793          	slli	a5,a5,0x2
    800002e0:	00f707b3          	add	a5,a4,a5
    800002e4:	fe842703          	lw	a4,-24(s0)
    800002e8:	00e7a023          	sw	a4,0(a5)
    800002ec:	fec42783          	lw	a5,-20(s0)
    800002f0:	0017879b          	addiw	a5,a5,1
    800002f4:	fef42623          	sw	a5,-20(s0)
    800002f8:	fe842783          	lw	a5,-24(s0)
    800002fc:	0017879b          	addiw	a5,a5,1
    80000300:	0007871b          	sext.w	a4,a5
    80000304:	fec42783          	lw	a5,-20(s0)
    80000308:	0007879b          	sext.w	a5,a5
    8000030c:	faf75ce3          	bge	a4,a5,800002c4 <Proc_8+0xa0>
    80000310:	fe842703          	lw	a4,-24(s0)
    80000314:	0c800793          	li	a5,200
    80000318:	02f707b3          	mul	a5,a4,a5
    8000031c:	fd043703          	ld	a4,-48(s0)
    80000320:	00f70733          	add	a4,a4,a5
    80000324:	fe842783          	lw	a5,-24(s0)
    80000328:	fff7879b          	addiw	a5,a5,-1
    8000032c:	0007879b          	sext.w	a5,a5
    80000330:	00279793          	slli	a5,a5,0x2
    80000334:	00f707b3          	add	a5,a4,a5
    80000338:	0007a703          	lw	a4,0(a5)
    8000033c:	fe842683          	lw	a3,-24(s0)
    80000340:	0c800793          	li	a5,200
    80000344:	02f687b3          	mul	a5,a3,a5
    80000348:	fd043683          	ld	a3,-48(s0)
    8000034c:	00f686b3          	add	a3,a3,a5
    80000350:	fe842783          	lw	a5,-24(s0)
    80000354:	fff7879b          	addiw	a5,a5,-1
    80000358:	0007879b          	sext.w	a5,a5
    8000035c:	0017071b          	addiw	a4,a4,1
    80000360:	0007071b          	sext.w	a4,a4
    80000364:	00279793          	slli	a5,a5,0x2
    80000368:	00f687b3          	add	a5,a3,a5
    8000036c:	00e7a023          	sw	a4,0(a5)
    80000370:	fe842783          	lw	a5,-24(s0)
    80000374:	00279793          	slli	a5,a5,0x2
    80000378:	fd843703          	ld	a4,-40(s0)
    8000037c:	00f707b3          	add	a5,a4,a5
    80000380:	fe842683          	lw	a3,-24(s0)
    80000384:	0c800713          	li	a4,200
    80000388:	02e686b3          	mul	a3,a3,a4
    8000038c:	00001737          	lui	a4,0x1
    80000390:	fa070713          	addi	a4,a4,-96 # fa0 <_start-0x7ffff07c>
    80000394:	00e68733          	add	a4,a3,a4
    80000398:	fd043683          	ld	a3,-48(s0)
    8000039c:	00e686b3          	add	a3,a3,a4
    800003a0:	0007a703          	lw	a4,0(a5)
    800003a4:	fe842783          	lw	a5,-24(s0)
    800003a8:	00279793          	slli	a5,a5,0x2
    800003ac:	00f687b3          	add	a5,a3,a5
    800003b0:	00e7a023          	sw	a4,0(a5)
    800003b4:	00500713          	li	a4,5
    800003b8:	86e1a423          	sw	a4,-1944(gp) # 80015188 <Int_Glob>
    800003bc:	00000013          	nop
    800003c0:	00078513          	mv	a0,a5
    800003c4:	03813403          	ld	s0,56(sp)
    800003c8:	04010113          	addi	sp,sp,64
    800003cc:	00008067          	ret

00000000800003d0 <Func_1>:
    800003d0:	fd010113          	addi	sp,sp,-48
    800003d4:	02813423          	sd	s0,40(sp)
    800003d8:	03010413          	addi	s0,sp,48
    800003dc:	00050793          	mv	a5,a0
    800003e0:	00058713          	mv	a4,a1
    800003e4:	fcf40e23          	sb	a5,-36(s0)
    800003e8:	00070793          	mv	a5,a4
    800003ec:	fcf40c23          	sb	a5,-40(s0)
    800003f0:	fdc44783          	lbu	a5,-36(s0)
    800003f4:	fef407a3          	sb	a5,-17(s0)
    800003f8:	fef44783          	lbu	a5,-17(s0)
    800003fc:	fef40723          	sb	a5,-18(s0)
    80000400:	fee44703          	lbu	a4,-18(s0)
    80000404:	fd844783          	lbu	a5,-40(s0)
    80000408:	0ff77713          	andi	a4,a4,255
    8000040c:	0ff7f793          	andi	a5,a5,255
    80000410:	00f70663          	beq	a4,a5,8000041c <Func_1+0x4c>
    80000414:	00000793          	li	a5,0
    80000418:	0100006f          	j	80000428 <Func_1+0x58>
    8000041c:	fef44703          	lbu	a4,-17(s0)
    80000420:	86e18823          	sb	a4,-1936(gp) # 80015190 <Ch_1_Glob>
    80000424:	00100793          	li	a5,1
    80000428:	00078513          	mv	a0,a5
    8000042c:	02813403          	ld	s0,40(sp)
    80000430:	03010113          	addi	sp,sp,48
    80000434:	00008067          	ret

0000000080000438 <Func_2>:
    80000438:	fd010113          	addi	sp,sp,-48
    8000043c:	02113423          	sd	ra,40(sp)
    80000440:	02813023          	sd	s0,32(sp)
    80000444:	03010413          	addi	s0,sp,48
    80000448:	fca43c23          	sd	a0,-40(s0)
    8000044c:	fcb43823          	sd	a1,-48(s0)
    80000450:	00200793          	li	a5,2
    80000454:	fef42623          	sw	a5,-20(s0)
    80000458:	05c0006f          	j	800004b4 <Func_2+0x7c>
    8000045c:	fec42783          	lw	a5,-20(s0)
    80000460:	fd843703          	ld	a4,-40(s0)
    80000464:	00f707b3          	add	a5,a4,a5
    80000468:	0007c783          	lbu	a5,0(a5)
    8000046c:	0007869b          	sext.w	a3,a5
    80000470:	fec42783          	lw	a5,-20(s0)
    80000474:	00178793          	addi	a5,a5,1
    80000478:	fd043703          	ld	a4,-48(s0)
    8000047c:	00f707b3          	add	a5,a4,a5
    80000480:	0007c783          	lbu	a5,0(a5)
    80000484:	0007879b          	sext.w	a5,a5
    80000488:	00078593          	mv	a1,a5
    8000048c:	00068513          	mv	a0,a3
    80000490:	f41ff0ef          	jal	ra,800003d0 <Func_1>
    80000494:	00050793          	mv	a5,a0
    80000498:	0007879b          	sext.w	a5,a5
    8000049c:	00079c63          	bnez	a5,800004b4 <Func_2+0x7c>
    800004a0:	04100793          	li	a5,65
    800004a4:	fef405a3          	sb	a5,-21(s0)
    800004a8:	fec42783          	lw	a5,-20(s0)
    800004ac:	0017879b          	addiw	a5,a5,1
    800004b0:	fef42623          	sw	a5,-20(s0)
    800004b4:	fec42783          	lw	a5,-20(s0)
    800004b8:	0007871b          	sext.w	a4,a5
    800004bc:	00200793          	li	a5,2
    800004c0:	f8e7dee3          	bge	a5,a4,8000045c <Func_2+0x24>
    800004c4:	feb44783          	lbu	a5,-21(s0)
    800004c8:	0ff7f713          	andi	a4,a5,255
    800004cc:	05600793          	li	a5,86
    800004d0:	00e7fe63          	bgeu	a5,a4,800004ec <Func_2+0xb4>
    800004d4:	feb44783          	lbu	a5,-21(s0)
    800004d8:	0ff7f713          	andi	a4,a5,255
    800004dc:	05900793          	li	a5,89
    800004e0:	00e7e663          	bltu	a5,a4,800004ec <Func_2+0xb4>
    800004e4:	00700793          	li	a5,7
    800004e8:	fef42623          	sw	a5,-20(s0)
    800004ec:	feb44783          	lbu	a5,-21(s0)
    800004f0:	0ff7f713          	andi	a4,a5,255
    800004f4:	05200793          	li	a5,82
    800004f8:	00f71663          	bne	a4,a5,80000504 <Func_2+0xcc>
    800004fc:	00100793          	li	a5,1
    80000500:	0380006f          	j	80000538 <Func_2+0x100>
    80000504:	fd043583          	ld	a1,-48(s0)
    80000508:	fd843503          	ld	a0,-40(s0)
    8000050c:	154010ef          	jal	ra,80001660 <strcmp>
    80000510:	00050793          	mv	a5,a0
    80000514:	02f05063          	blez	a5,80000534 <Func_2+0xfc>
    80000518:	fec42783          	lw	a5,-20(s0)
    8000051c:	0077879b          	addiw	a5,a5,7
    80000520:	fef42623          	sw	a5,-20(s0)
    80000524:	fec42703          	lw	a4,-20(s0)
    80000528:	86e1a423          	sw	a4,-1944(gp) # 80015188 <Int_Glob>
    8000052c:	00100793          	li	a5,1
    80000530:	0080006f          	j	80000538 <Func_2+0x100>
    80000534:	00000793          	li	a5,0
    80000538:	00078513          	mv	a0,a5
    8000053c:	02813083          	ld	ra,40(sp)
    80000540:	02013403          	ld	s0,32(sp)
    80000544:	03010113          	addi	sp,sp,48
    80000548:	00008067          	ret

000000008000054c <Func_3>:
    8000054c:	fd010113          	addi	sp,sp,-48
    80000550:	02813423          	sd	s0,40(sp)
    80000554:	03010413          	addi	s0,sp,48
    80000558:	00050793          	mv	a5,a0
    8000055c:	fcf42e23          	sw	a5,-36(s0)
    80000560:	fdc42783          	lw	a5,-36(s0)
    80000564:	fef42623          	sw	a5,-20(s0)
    80000568:	fec42783          	lw	a5,-20(s0)
    8000056c:	0007871b          	sext.w	a4,a5
    80000570:	00200793          	li	a5,2
    80000574:	00f71663          	bne	a4,a5,80000580 <Func_3+0x34>
    80000578:	00100793          	li	a5,1
    8000057c:	0080006f          	j	80000584 <Func_3+0x38>
    80000580:	00000793          	li	a5,0
    80000584:	00078513          	mv	a0,a5
    80000588:	02813403          	ld	s0,40(sp)
    8000058c:	03010113          	addi	sp,sp,48
    80000590:	00008067          	ret

0000000080000594 <debug_printf>:
    80000594:	fa010113          	addi	sp,sp,-96
    80000598:	00813c23          	sd	s0,24(sp)
    8000059c:	02010413          	addi	s0,sp,32
    800005a0:	fea43423          	sd	a0,-24(s0)
    800005a4:	00b43423          	sd	a1,8(s0)
    800005a8:	00c43823          	sd	a2,16(s0)
    800005ac:	00d43c23          	sd	a3,24(s0)
    800005b0:	02e43023          	sd	a4,32(s0)
    800005b4:	02f43423          	sd	a5,40(s0)
    800005b8:	03043823          	sd	a6,48(s0)
    800005bc:	03143c23          	sd	a7,56(s0)
    800005c0:	00000013          	nop
    800005c4:	01813403          	ld	s0,24(sp)
    800005c8:	06010113          	addi	sp,sp,96
    800005cc:	00008067          	ret

00000000800005d0 <main>:
    800005d0:	f8010113          	addi	sp,sp,-128
    800005d4:	06113c23          	sd	ra,120(sp)
    800005d8:	06813823          	sd	s0,112(sp)
    800005dc:	08010413          	addi	s0,sp,128
    800005e0:	00050793          	mv	a5,a0
    800005e4:	f8b43023          	sd	a1,-128(s0)
    800005e8:	f8f42623          	sw	a5,-116(s0)
    800005ec:	3e800793          	li	a5,1000
    800005f0:	fef42023          	sw	a5,-32(s0)
    800005f4:	fc010113          	addi	sp,sp,-64
    800005f8:	00010793          	mv	a5,sp
    800005fc:	00f78793          	addi	a5,a5,15
    80000600:	0047d793          	srli	a5,a5,0x4
    80000604:	00479793          	slli	a5,a5,0x4
    80000608:	00078713          	mv	a4,a5
    8000060c:	86e1b023          	sd	a4,-1952(gp) # 80015180 <Next_Ptr_Glob>
    80000610:	fc010113          	addi	sp,sp,-64
    80000614:	00010793          	mv	a5,sp
    80000618:	00f78793          	addi	a5,a5,15
    8000061c:	0047d793          	srli	a5,a5,0x4
    80000620:	00479793          	slli	a5,a5,0x4
    80000624:	00078713          	mv	a4,a5
    80000628:	84e1bc23          	sd	a4,-1960(gp) # 80015178 <_edata>
    8000062c:	8581b783          	ld	a5,-1960(gp) # 80015178 <_edata>
    80000630:	8601b703          	ld	a4,-1952(gp) # 80015180 <Next_Ptr_Glob>
    80000634:	00e7b023          	sd	a4,0(a5)
    80000638:	8581b783          	ld	a5,-1960(gp) # 80015178 <_edata>
    8000063c:	0007a423          	sw	zero,8(a5)
    80000640:	8581b783          	ld	a5,-1960(gp) # 80015178 <_edata>
    80000644:	00200713          	li	a4,2
    80000648:	00e7a623          	sw	a4,12(a5)
    8000064c:	8581b783          	ld	a5,-1960(gp) # 80015178 <_edata>
    80000650:	02800713          	li	a4,40
    80000654:	00e7a823          	sw	a4,16(a5)
    80000658:	8581b783          	ld	a5,-1960(gp) # 80015178 <_edata>
    8000065c:	01478713          	addi	a4,a5,20
    80000660:	000237b7          	lui	a5,0x23
    80000664:	87878793          	addi	a5,a5,-1928 # 22878 <_start-0x7ffdd7a4>
    80000668:	00078693          	mv	a3,a5
    8000066c:	01f00793          	li	a5,31
    80000670:	00078613          	mv	a2,a5
    80000674:	00068593          	mv	a1,a3
    80000678:	00070513          	mv	a0,a4
    8000067c:	32d000ef          	jal	ra,800011a8 <memcpy>
    80000680:	000237b7          	lui	a5,0x23
    80000684:	89878793          	addi	a5,a5,-1896 # 22898 <_start-0x7ffdd784>
    80000688:	0007b603          	ld	a2,0(a5)
    8000068c:	0087b683          	ld	a3,8(a5)
    80000690:	0107b703          	ld	a4,16(a5)
    80000694:	fac43823          	sd	a2,-80(s0)
    80000698:	fad43c23          	sd	a3,-72(s0)
    8000069c:	fce43023          	sd	a4,-64(s0)
    800006a0:	0187a703          	lw	a4,24(a5)
    800006a4:	fce42423          	sw	a4,-56(s0)
    800006a8:	01c7d703          	lhu	a4,28(a5)
    800006ac:	fce41623          	sh	a4,-52(s0)
    800006b0:	01e7c783          	lbu	a5,30(a5)
    800006b4:	fcf40723          	sb	a5,-50(s0)
    800006b8:	000257b7          	lui	a5,0x25
    800006bc:	31878793          	addi	a5,a5,792 # 25318 <_start-0x7ffdad04>
    800006c0:	00a00713          	li	a4,10
    800006c4:	64e7ae23          	sw	a4,1628(a5)
    800006c8:	000237b7          	lui	a5,0x23
    800006cc:	8b878513          	addi	a0,a5,-1864 # 228b8 <_start-0x7ffdd764>
    800006d0:	ec5ff0ef          	jal	ra,80000594 <debug_printf>
    800006d4:	000237b7          	lui	a5,0x23
    800006d8:	8c078593          	addi	a1,a5,-1856 # 228c0 <_start-0x7ffdd75c>
    800006dc:	000237b7          	lui	a5,0x23
    800006e0:	8d078513          	addi	a0,a5,-1840 # 228d0 <_start-0x7ffdd74c>
    800006e4:	eb1ff0ef          	jal	ra,80000594 <debug_printf>
    800006e8:	8741a783          	lw	a5,-1932(gp) # 80015194 <Reg>
    800006ec:	00078a63          	beqz	a5,80000700 <main+0x130>
    800006f0:	000237b7          	lui	a5,0x23
    800006f4:	8f878513          	addi	a0,a5,-1800 # 228f8 <_start-0x7ffdd724>
    800006f8:	e9dff0ef          	jal	ra,80000594 <debug_printf>
    800006fc:	0100006f          	j	8000070c <main+0x13c>
    80000700:	000237b7          	lui	a5,0x23
    80000704:	92878513          	addi	a0,a5,-1752 # 22928 <_start-0x7ffdd6f4>
    80000708:	e8dff0ef          	jal	ra,80000594 <debug_printf>
    8000070c:	03c00613          	li	a2,60
    80000710:	000237b7          	lui	a5,0x23
    80000714:	95878593          	addi	a1,a5,-1704 # 22958 <_start-0x7ffdd6c4>
    80000718:	000237b7          	lui	a5,0x23
    8000071c:	96078513          	addi	a0,a5,-1696 # 22960 <_start-0x7ffdd6bc>
    80000720:	e75ff0ef          	jal	ra,80000594 <debug_printf>
    80000724:	000237b7          	lui	a5,0x23
    80000728:	8b878513          	addi	a0,a5,-1864 # 228b8 <_start-0x7ffdd764>
    8000072c:	e69ff0ef          	jal	ra,80000594 <debug_printf>
    80000730:	8601ac23          	sw	zero,-1928(gp) # 80015198 <Done>
    80000734:	2e00006f          	j	80000a14 <main+0x444>
    80000738:	fe042783          	lw	a5,-32(s0)
    8000073c:	00078593          	mv	a1,a5
    80000740:	000237b7          	lui	a5,0x23
    80000744:	97878513          	addi	a0,a5,-1672 # 22978 <_start-0x7ffdd6a4>
    80000748:	e4dff0ef          	jal	ra,80000594 <debug_printf>
    8000074c:	91018513          	addi	a0,gp,-1776 # 80015230 <time_info>
    80000750:	108010ef          	jal	ra,80001858 <times>
    80000754:	91018793          	addi	a5,gp,-1776 # 80015230 <time_info>
    80000758:	0007b783          	ld	a5,0(a5)
    8000075c:	00078713          	mv	a4,a5
    80000760:	88e1b023          	sd	a4,-1920(gp) # 800151a0 <Begin_Time>
    80000764:	00100793          	li	a5,1
    80000768:	fef42223          	sw	a5,-28(s0)
    8000076c:	2280006f          	j	80000994 <main+0x3c4>
    80000770:	141000ef          	jal	ra,800010b0 <Proc_5>
    80000774:	0e5000ef          	jal	ra,80001058 <Proc_4>
    80000778:	00200793          	li	a5,2
    8000077c:	fcf42e23          	sw	a5,-36(s0)
    80000780:	00300793          	li	a5,3
    80000784:	fef42623          	sw	a5,-20(s0)
    80000788:	000237b7          	lui	a5,0x23
    8000078c:	9a078793          	addi	a5,a5,-1632 # 229a0 <_start-0x7ffdd67c>
    80000790:	0007b603          	ld	a2,0(a5)
    80000794:	0087b683          	ld	a3,8(a5)
    80000798:	0107b703          	ld	a4,16(a5)
    8000079c:	f8c43823          	sd	a2,-112(s0)
    800007a0:	f8d43c23          	sd	a3,-104(s0)
    800007a4:	fae43023          	sd	a4,-96(s0)
    800007a8:	0187a703          	lw	a4,24(a5)
    800007ac:	fae42423          	sw	a4,-88(s0)
    800007b0:	01c7d703          	lhu	a4,28(a5)
    800007b4:	fae41623          	sh	a4,-84(s0)
    800007b8:	01e7c783          	lbu	a5,30(a5)
    800007bc:	faf40723          	sb	a5,-82(s0)
    800007c0:	00100793          	li	a5,1
    800007c4:	fcf42a23          	sw	a5,-44(s0)
    800007c8:	f9040713          	addi	a4,s0,-112
    800007cc:	fb040793          	addi	a5,s0,-80
    800007d0:	00070593          	mv	a1,a4
    800007d4:	00078513          	mv	a0,a5
    800007d8:	c61ff0ef          	jal	ra,80000438 <Func_2>
    800007dc:	00050793          	mv	a5,a0
    800007e0:	0017b793          	seqz	a5,a5
    800007e4:	0ff7f793          	andi	a5,a5,255
    800007e8:	0007871b          	sext.w	a4,a5
    800007ec:	86e1a623          	sw	a4,-1940(gp) # 8001518c <Bool_Glob>
    800007f0:	0580006f          	j	80000848 <main+0x278>
    800007f4:	fdc42783          	lw	a5,-36(s0)
    800007f8:	00078713          	mv	a4,a5
    800007fc:	00070793          	mv	a5,a4
    80000800:	0027979b          	slliw	a5,a5,0x2
    80000804:	00e787bb          	addw	a5,a5,a4
    80000808:	0007871b          	sext.w	a4,a5
    8000080c:	fec42783          	lw	a5,-20(s0)
    80000810:	40f707bb          	subw	a5,a4,a5
    80000814:	0007879b          	sext.w	a5,a5
    80000818:	fcf42c23          	sw	a5,-40(s0)
    8000081c:	fdc42783          	lw	a5,-36(s0)
    80000820:	fd840693          	addi	a3,s0,-40
    80000824:	fec42703          	lw	a4,-20(s0)
    80000828:	00068613          	mv	a2,a3
    8000082c:	00070593          	mv	a1,a4
    80000830:	00078513          	mv	a0,a5
    80000834:	995ff0ef          	jal	ra,800001c8 <Proc_7>
    80000838:	fdc42783          	lw	a5,-36(s0)
    8000083c:	0017879b          	addiw	a5,a5,1
    80000840:	0007879b          	sext.w	a5,a5
    80000844:	fcf42e23          	sw	a5,-36(s0)
    80000848:	fdc42703          	lw	a4,-36(s0)
    8000084c:	fec42783          	lw	a5,-20(s0)
    80000850:	0007879b          	sext.w	a5,a5
    80000854:	faf740e3          	blt	a4,a5,800007f4 <main+0x224>
    80000858:	fdc42783          	lw	a5,-36(s0)
    8000085c:	fd842703          	lw	a4,-40(s0)
    80000860:	00070693          	mv	a3,a4
    80000864:	00078613          	mv	a2,a5
    80000868:	000257b7          	lui	a5,0x25
    8000086c:	31878593          	addi	a1,a5,792 # 25318 <_start-0x7ffdad04>
    80000870:	93018513          	addi	a0,gp,-1744 # 80015250 <Arr_1_Glob>
    80000874:	9b1ff0ef          	jal	ra,80000224 <Proc_8>
    80000878:	8581b783          	ld	a5,-1960(gp) # 80015178 <_edata>
    8000087c:	00078513          	mv	a0,a5
    80000880:	5a0000ef          	jal	ra,80000e20 <Proc_1>
    80000884:	04100793          	li	a5,65
    80000888:	fef405a3          	sb	a5,-21(s0)
    8000088c:	08c0006f          	j	80000918 <main+0x348>
    80000890:	feb44783          	lbu	a5,-21(s0)
    80000894:	0007879b          	sext.w	a5,a5
    80000898:	04300593          	li	a1,67
    8000089c:	00078513          	mv	a0,a5
    800008a0:	b31ff0ef          	jal	ra,800003d0 <Func_1>
    800008a4:	00050793          	mv	a5,a0
    800008a8:	0007871b          	sext.w	a4,a5
    800008ac:	fd442783          	lw	a5,-44(s0)
    800008b0:	04f71e63          	bne	a4,a5,8000090c <main+0x33c>
    800008b4:	fd440793          	addi	a5,s0,-44
    800008b8:	00078593          	mv	a1,a5
    800008bc:	00000513          	li	a0,0
    800008c0:	821ff0ef          	jal	ra,800000e0 <Proc_6>
    800008c4:	000237b7          	lui	a5,0x23
    800008c8:	9c078793          	addi	a5,a5,-1600 # 229c0 <_start-0x7ffdd65c>
    800008cc:	0007b603          	ld	a2,0(a5)
    800008d0:	0087b683          	ld	a3,8(a5)
    800008d4:	0107b703          	ld	a4,16(a5)
    800008d8:	f8c43823          	sd	a2,-112(s0)
    800008dc:	f8d43c23          	sd	a3,-104(s0)
    800008e0:	fae43023          	sd	a4,-96(s0)
    800008e4:	0187a703          	lw	a4,24(a5)
    800008e8:	fae42423          	sw	a4,-88(s0)
    800008ec:	01c7d703          	lhu	a4,28(a5)
    800008f0:	fae41623          	sh	a4,-84(s0)
    800008f4:	01e7c783          	lbu	a5,30(a5)
    800008f8:	faf40723          	sb	a5,-82(s0)
    800008fc:	fe442783          	lw	a5,-28(s0)
    80000900:	fef42623          	sw	a5,-20(s0)
    80000904:	fe442703          	lw	a4,-28(s0)
    80000908:	86e1a423          	sw	a4,-1944(gp) # 80015188 <Int_Glob>
    8000090c:	feb44783          	lbu	a5,-21(s0)
    80000910:	0017879b          	addiw	a5,a5,1
    80000914:	fef405a3          	sb	a5,-21(s0)
    80000918:	8711c703          	lbu	a4,-1935(gp) # 80015191 <Ch_2_Glob>
    8000091c:	feb44783          	lbu	a5,-21(s0)
    80000920:	0ff7f793          	andi	a5,a5,255
    80000924:	f6f776e3          	bgeu	a4,a5,80000890 <main+0x2c0>
    80000928:	fdc42783          	lw	a5,-36(s0)
    8000092c:	fec42703          	lw	a4,-20(s0)
    80000930:	02f707bb          	mulw	a5,a4,a5
    80000934:	fef42623          	sw	a5,-20(s0)
    80000938:	fd842783          	lw	a5,-40(s0)
    8000093c:	fec42703          	lw	a4,-20(s0)
    80000940:	02f747bb          	divw	a5,a4,a5
    80000944:	0007879b          	sext.w	a5,a5
    80000948:	fcf42e23          	sw	a5,-36(s0)
    8000094c:	fd842783          	lw	a5,-40(s0)
    80000950:	fec42703          	lw	a4,-20(s0)
    80000954:	40f707bb          	subw	a5,a4,a5
    80000958:	0007879b          	sext.w	a5,a5
    8000095c:	00078713          	mv	a4,a5
    80000960:	00070793          	mv	a5,a4
    80000964:	0037979b          	slliw	a5,a5,0x3
    80000968:	40e787bb          	subw	a5,a5,a4
    8000096c:	0007871b          	sext.w	a4,a5
    80000970:	fdc42783          	lw	a5,-36(s0)
    80000974:	40f707bb          	subw	a5,a4,a5
    80000978:	fef42623          	sw	a5,-20(s0)
    8000097c:	fdc40793          	addi	a5,s0,-36
    80000980:	00078513          	mv	a0,a5
    80000984:	5fc000ef          	jal	ra,80000f80 <Proc_2>
    80000988:	fe442783          	lw	a5,-28(s0)
    8000098c:	0017879b          	addiw	a5,a5,1
    80000990:	fef42223          	sw	a5,-28(s0)
    80000994:	fe442703          	lw	a4,-28(s0)
    80000998:	fe042783          	lw	a5,-32(s0)
    8000099c:	0007071b          	sext.w	a4,a4
    800009a0:	0007879b          	sext.w	a5,a5
    800009a4:	dce7d6e3          	bge	a5,a4,80000770 <main+0x1a0>
    800009a8:	91018513          	addi	a0,gp,-1776 # 80015230 <time_info>
    800009ac:	6ad000ef          	jal	ra,80001858 <times>
    800009b0:	91018793          	addi	a5,gp,-1776 # 80015230 <time_info>
    800009b4:	0007b783          	ld	a5,0(a5)
    800009b8:	00078713          	mv	a4,a5
    800009bc:	88e1b423          	sd	a4,-1912(gp) # 800151a8 <End_Time>
    800009c0:	8881b703          	ld	a4,-1912(gp) # 800151a8 <End_Time>
    800009c4:	8801b783          	ld	a5,-1920(gp) # 800151a0 <Begin_Time>
    800009c8:	40f70733          	sub	a4,a4,a5
    800009cc:	88e1b823          	sd	a4,-1904(gp) # 800151b0 <User_Time>
    800009d0:	8901b703          	ld	a4,-1904(gp) # 800151b0 <User_Time>
    800009d4:	07700793          	li	a5,119
    800009d8:	02e7ca63          	blt	a5,a4,80000a0c <main+0x43c>
    800009dc:	000237b7          	lui	a5,0x23
    800009e0:	9e078513          	addi	a0,a5,-1568 # 229e0 <_start-0x7ffdd63c>
    800009e4:	471000ef          	jal	ra,80001654 <puts>
    800009e8:	fe042703          	lw	a4,-32(s0)
    800009ec:	00070793          	mv	a5,a4
    800009f0:	0027979b          	slliw	a5,a5,0x2
    800009f4:	00e787bb          	addw	a5,a5,a4
    800009f8:	0017979b          	slliw	a5,a5,0x1
    800009fc:	fef42023          	sw	a5,-32(s0)
    80000a00:	00a00513          	li	a0,10
    80000a04:	231000ef          	jal	ra,80001434 <putchar>
    80000a08:	00c0006f          	j	80000a14 <main+0x444>
    80000a0c:	00100713          	li	a4,1
    80000a10:	86e1ac23          	sw	a4,-1928(gp) # 80015198 <Done>
    80000a14:	8781a783          	lw	a5,-1928(gp) # 80015198 <Done>
    80000a18:	d20780e3          	beqz	a5,80000738 <main+0x168>
    80000a1c:	000237b7          	lui	a5,0x23
    80000a20:	a1878513          	addi	a0,a5,-1512 # 22a18 <_start-0x7ffdd604>
    80000a24:	b71ff0ef          	jal	ra,80000594 <debug_printf>
    80000a28:	000237b7          	lui	a5,0x23
    80000a2c:	8b878513          	addi	a0,a5,-1864 # 228b8 <_start-0x7ffdd764>
    80000a30:	b65ff0ef          	jal	ra,80000594 <debug_printf>
    80000a34:	8681a783          	lw	a5,-1944(gp) # 80015188 <Int_Glob>
    80000a38:	00078593          	mv	a1,a5
    80000a3c:	000237b7          	lui	a5,0x23
    80000a40:	a5078513          	addi	a0,a5,-1456 # 22a50 <_start-0x7ffdd5cc>
    80000a44:	b51ff0ef          	jal	ra,80000594 <debug_printf>
    80000a48:	00500593          	li	a1,5
    80000a4c:	000237b7          	lui	a5,0x23
    80000a50:	a7078513          	addi	a0,a5,-1424 # 22a70 <_start-0x7ffdd5ac>
    80000a54:	b41ff0ef          	jal	ra,80000594 <debug_printf>
    80000a58:	86c1a783          	lw	a5,-1940(gp) # 8001518c <Bool_Glob>
    80000a5c:	00078593          	mv	a1,a5
    80000a60:	000237b7          	lui	a5,0x23
    80000a64:	a9078513          	addi	a0,a5,-1392 # 22a90 <_start-0x7ffdd58c>
    80000a68:	b2dff0ef          	jal	ra,80000594 <debug_printf>
    80000a6c:	00100593          	li	a1,1
    80000a70:	000237b7          	lui	a5,0x23
    80000a74:	a7078513          	addi	a0,a5,-1424 # 22a70 <_start-0x7ffdd5ac>
    80000a78:	b1dff0ef          	jal	ra,80000594 <debug_printf>
    80000a7c:	8701c783          	lbu	a5,-1936(gp) # 80015190 <Ch_1_Glob>
    80000a80:	0007879b          	sext.w	a5,a5
    80000a84:	00078593          	mv	a1,a5
    80000a88:	000237b7          	lui	a5,0x23
    80000a8c:	ab078513          	addi	a0,a5,-1360 # 22ab0 <_start-0x7ffdd56c>
    80000a90:	b05ff0ef          	jal	ra,80000594 <debug_printf>
    80000a94:	04100593          	li	a1,65
    80000a98:	000237b7          	lui	a5,0x23
    80000a9c:	ad078513          	addi	a0,a5,-1328 # 22ad0 <_start-0x7ffdd54c>
    80000aa0:	af5ff0ef          	jal	ra,80000594 <debug_printf>
    80000aa4:	8711c783          	lbu	a5,-1935(gp) # 80015191 <Ch_2_Glob>
    80000aa8:	0007879b          	sext.w	a5,a5
    80000aac:	00078593          	mv	a1,a5
    80000ab0:	000237b7          	lui	a5,0x23
    80000ab4:	af078513          	addi	a0,a5,-1296 # 22af0 <_start-0x7ffdd52c>
    80000ab8:	addff0ef          	jal	ra,80000594 <debug_printf>
    80000abc:	04200593          	li	a1,66
    80000ac0:	000237b7          	lui	a5,0x23
    80000ac4:	ad078513          	addi	a0,a5,-1328 # 22ad0 <_start-0x7ffdd54c>
    80000ac8:	acdff0ef          	jal	ra,80000594 <debug_printf>
    80000acc:	93018793          	addi	a5,gp,-1744 # 80015250 <Arr_1_Glob>
    80000ad0:	0207a783          	lw	a5,32(a5)
    80000ad4:	00078593          	mv	a1,a5
    80000ad8:	000237b7          	lui	a5,0x23
    80000adc:	b1078513          	addi	a0,a5,-1264 # 22b10 <_start-0x7ffdd50c>
    80000ae0:	ab5ff0ef          	jal	ra,80000594 <debug_printf>
    80000ae4:	00700593          	li	a1,7
    80000ae8:	000237b7          	lui	a5,0x23
    80000aec:	a7078513          	addi	a0,a5,-1424 # 22a70 <_start-0x7ffdd5ac>
    80000af0:	aa5ff0ef          	jal	ra,80000594 <debug_printf>
    80000af4:	000257b7          	lui	a5,0x25
    80000af8:	31878793          	addi	a5,a5,792 # 25318 <_start-0x7ffdad04>
    80000afc:	65c7a783          	lw	a5,1628(a5)
    80000b00:	00078593          	mv	a1,a5
    80000b04:	000237b7          	lui	a5,0x23
    80000b08:	b3078513          	addi	a0,a5,-1232 # 22b30 <_start-0x7ffdd4ec>
    80000b0c:	a89ff0ef          	jal	ra,80000594 <debug_printf>
    80000b10:	000237b7          	lui	a5,0x23
    80000b14:	b5078513          	addi	a0,a5,-1200 # 22b50 <_start-0x7ffdd4cc>
    80000b18:	a7dff0ef          	jal	ra,80000594 <debug_printf>
    80000b1c:	000237b7          	lui	a5,0x23
    80000b20:	b8078513          	addi	a0,a5,-1152 # 22b80 <_start-0x7ffdd49c>
    80000b24:	a71ff0ef          	jal	ra,80000594 <debug_printf>
    80000b28:	8581b783          	ld	a5,-1960(gp) # 80015178 <_edata>
    80000b2c:	0007b783          	ld	a5,0(a5)
    80000b30:	00078593          	mv	a1,a5
    80000b34:	000237b7          	lui	a5,0x23
    80000b38:	b9078513          	addi	a0,a5,-1136 # 22b90 <_start-0x7ffdd48c>
    80000b3c:	a59ff0ef          	jal	ra,80000594 <debug_printf>
    80000b40:	000237b7          	lui	a5,0x23
    80000b44:	bb078513          	addi	a0,a5,-1104 # 22bb0 <_start-0x7ffdd46c>
    80000b48:	a4dff0ef          	jal	ra,80000594 <debug_printf>
    80000b4c:	8581b783          	ld	a5,-1960(gp) # 80015178 <_edata>
    80000b50:	0087a783          	lw	a5,8(a5)
    80000b54:	00078593          	mv	a1,a5
    80000b58:	000237b7          	lui	a5,0x23
    80000b5c:	be878513          	addi	a0,a5,-1048 # 22be8 <_start-0x7ffdd434>
    80000b60:	a35ff0ef          	jal	ra,80000594 <debug_printf>
    80000b64:	00000593          	li	a1,0
    80000b68:	000237b7          	lui	a5,0x23
    80000b6c:	a7078513          	addi	a0,a5,-1424 # 22a70 <_start-0x7ffdd5ac>
    80000b70:	a25ff0ef          	jal	ra,80000594 <debug_printf>
    80000b74:	8581b783          	ld	a5,-1960(gp) # 80015178 <_edata>
    80000b78:	00c7a783          	lw	a5,12(a5)
    80000b7c:	00078593          	mv	a1,a5
    80000b80:	000237b7          	lui	a5,0x23
    80000b84:	c0878513          	addi	a0,a5,-1016 # 22c08 <_start-0x7ffdd414>
    80000b88:	a0dff0ef          	jal	ra,80000594 <debug_printf>
    80000b8c:	00200593          	li	a1,2
    80000b90:	000237b7          	lui	a5,0x23
    80000b94:	a7078513          	addi	a0,a5,-1424 # 22a70 <_start-0x7ffdd5ac>
    80000b98:	9fdff0ef          	jal	ra,80000594 <debug_printf>
    80000b9c:	8581b783          	ld	a5,-1960(gp) # 80015178 <_edata>
    80000ba0:	0107a783          	lw	a5,16(a5)
    80000ba4:	00078593          	mv	a1,a5
    80000ba8:	000237b7          	lui	a5,0x23
    80000bac:	c2878513          	addi	a0,a5,-984 # 22c28 <_start-0x7ffdd3f4>
    80000bb0:	9e5ff0ef          	jal	ra,80000594 <debug_printf>
    80000bb4:	01100593          	li	a1,17
    80000bb8:	000237b7          	lui	a5,0x23
    80000bbc:	a7078513          	addi	a0,a5,-1424 # 22a70 <_start-0x7ffdd5ac>
    80000bc0:	9d5ff0ef          	jal	ra,80000594 <debug_printf>
    80000bc4:	8581b783          	ld	a5,-1960(gp) # 80015178 <_edata>
    80000bc8:	01478793          	addi	a5,a5,20
    80000bcc:	00078593          	mv	a1,a5
    80000bd0:	000237b7          	lui	a5,0x23
    80000bd4:	c4878513          	addi	a0,a5,-952 # 22c48 <_start-0x7ffdd3d4>
    80000bd8:	9bdff0ef          	jal	ra,80000594 <debug_printf>
    80000bdc:	000237b7          	lui	a5,0x23
    80000be0:	c6878513          	addi	a0,a5,-920 # 22c68 <_start-0x7ffdd3b4>
    80000be4:	9b1ff0ef          	jal	ra,80000594 <debug_printf>
    80000be8:	000237b7          	lui	a5,0x23
    80000bec:	ca078513          	addi	a0,a5,-864 # 22ca0 <_start-0x7ffdd37c>
    80000bf0:	9a5ff0ef          	jal	ra,80000594 <debug_printf>
    80000bf4:	8601b783          	ld	a5,-1952(gp) # 80015180 <Next_Ptr_Glob>
    80000bf8:	0007b783          	ld	a5,0(a5)
    80000bfc:	00078593          	mv	a1,a5
    80000c00:	000237b7          	lui	a5,0x23
    80000c04:	b9078513          	addi	a0,a5,-1136 # 22b90 <_start-0x7ffdd48c>
    80000c08:	98dff0ef          	jal	ra,80000594 <debug_printf>
    80000c0c:	000237b7          	lui	a5,0x23
    80000c10:	cb878513          	addi	a0,a5,-840 # 22cb8 <_start-0x7ffdd364>
    80000c14:	981ff0ef          	jal	ra,80000594 <debug_printf>
    80000c18:	8601b783          	ld	a5,-1952(gp) # 80015180 <Next_Ptr_Glob>
    80000c1c:	0087a783          	lw	a5,8(a5)
    80000c20:	00078593          	mv	a1,a5
    80000c24:	000237b7          	lui	a5,0x23
    80000c28:	be878513          	addi	a0,a5,-1048 # 22be8 <_start-0x7ffdd434>
    80000c2c:	969ff0ef          	jal	ra,80000594 <debug_printf>
    80000c30:	00000593          	li	a1,0
    80000c34:	000237b7          	lui	a5,0x23
    80000c38:	a7078513          	addi	a0,a5,-1424 # 22a70 <_start-0x7ffdd5ac>
    80000c3c:	959ff0ef          	jal	ra,80000594 <debug_printf>
    80000c40:	8601b783          	ld	a5,-1952(gp) # 80015180 <Next_Ptr_Glob>
    80000c44:	00c7a783          	lw	a5,12(a5)
    80000c48:	00078593          	mv	a1,a5
    80000c4c:	000237b7          	lui	a5,0x23
    80000c50:	c0878513          	addi	a0,a5,-1016 # 22c08 <_start-0x7ffdd414>
    80000c54:	941ff0ef          	jal	ra,80000594 <debug_printf>
    80000c58:	00100593          	li	a1,1
    80000c5c:	000237b7          	lui	a5,0x23
    80000c60:	a7078513          	addi	a0,a5,-1424 # 22a70 <_start-0x7ffdd5ac>
    80000c64:	931ff0ef          	jal	ra,80000594 <debug_printf>
    80000c68:	8601b783          	ld	a5,-1952(gp) # 80015180 <Next_Ptr_Glob>
    80000c6c:	0107a783          	lw	a5,16(a5)
    80000c70:	00078593          	mv	a1,a5
    80000c74:	000237b7          	lui	a5,0x23
    80000c78:	c2878513          	addi	a0,a5,-984 # 22c28 <_start-0x7ffdd3f4>
    80000c7c:	919ff0ef          	jal	ra,80000594 <debug_printf>
    80000c80:	01200593          	li	a1,18
    80000c84:	000237b7          	lui	a5,0x23
    80000c88:	a7078513          	addi	a0,a5,-1424 # 22a70 <_start-0x7ffdd5ac>
    80000c8c:	909ff0ef          	jal	ra,80000594 <debug_printf>
    80000c90:	8601b783          	ld	a5,-1952(gp) # 80015180 <Next_Ptr_Glob>
    80000c94:	01478793          	addi	a5,a5,20
    80000c98:	00078593          	mv	a1,a5
    80000c9c:	000237b7          	lui	a5,0x23
    80000ca0:	c4878513          	addi	a0,a5,-952 # 22c48 <_start-0x7ffdd3d4>
    80000ca4:	8f1ff0ef          	jal	ra,80000594 <debug_printf>
    80000ca8:	000237b7          	lui	a5,0x23
    80000cac:	c6878513          	addi	a0,a5,-920 # 22c68 <_start-0x7ffdd3b4>
    80000cb0:	8e5ff0ef          	jal	ra,80000594 <debug_printf>
    80000cb4:	fdc42783          	lw	a5,-36(s0)
    80000cb8:	00078593          	mv	a1,a5
    80000cbc:	000237b7          	lui	a5,0x23
    80000cc0:	cf878513          	addi	a0,a5,-776 # 22cf8 <_start-0x7ffdd324>
    80000cc4:	8d1ff0ef          	jal	ra,80000594 <debug_printf>
    80000cc8:	00500593          	li	a1,5
    80000ccc:	000237b7          	lui	a5,0x23
    80000cd0:	a7078513          	addi	a0,a5,-1424 # 22a70 <_start-0x7ffdd5ac>
    80000cd4:	8c1ff0ef          	jal	ra,80000594 <debug_printf>
    80000cd8:	fec42783          	lw	a5,-20(s0)
    80000cdc:	00078593          	mv	a1,a5
    80000ce0:	000237b7          	lui	a5,0x23
    80000ce4:	d1878513          	addi	a0,a5,-744 # 22d18 <_start-0x7ffdd304>
    80000ce8:	8adff0ef          	jal	ra,80000594 <debug_printf>
    80000cec:	00d00593          	li	a1,13
    80000cf0:	000237b7          	lui	a5,0x23
    80000cf4:	a7078513          	addi	a0,a5,-1424 # 22a70 <_start-0x7ffdd5ac>
    80000cf8:	89dff0ef          	jal	ra,80000594 <debug_printf>
    80000cfc:	fd842783          	lw	a5,-40(s0)
    80000d00:	00078593          	mv	a1,a5
    80000d04:	000237b7          	lui	a5,0x23
    80000d08:	d3878513          	addi	a0,a5,-712 # 22d38 <_start-0x7ffdd2e4>
    80000d0c:	889ff0ef          	jal	ra,80000594 <debug_printf>
    80000d10:	00700593          	li	a1,7
    80000d14:	000237b7          	lui	a5,0x23
    80000d18:	a7078513          	addi	a0,a5,-1424 # 22a70 <_start-0x7ffdd5ac>
    80000d1c:	879ff0ef          	jal	ra,80000594 <debug_printf>
    80000d20:	fd442783          	lw	a5,-44(s0)
    80000d24:	00078593          	mv	a1,a5
    80000d28:	000237b7          	lui	a5,0x23
    80000d2c:	d5878513          	addi	a0,a5,-680 # 22d58 <_start-0x7ffdd2c4>
    80000d30:	865ff0ef          	jal	ra,80000594 <debug_printf>
    80000d34:	00100593          	li	a1,1
    80000d38:	000237b7          	lui	a5,0x23
    80000d3c:	a7078513          	addi	a0,a5,-1424 # 22a70 <_start-0x7ffdd5ac>
    80000d40:	855ff0ef          	jal	ra,80000594 <debug_printf>
    80000d44:	fb040793          	addi	a5,s0,-80
    80000d48:	00078593          	mv	a1,a5
    80000d4c:	000237b7          	lui	a5,0x23
    80000d50:	d7878513          	addi	a0,a5,-648 # 22d78 <_start-0x7ffdd2a4>
    80000d54:	841ff0ef          	jal	ra,80000594 <debug_printf>
    80000d58:	000237b7          	lui	a5,0x23
    80000d5c:	d9878513          	addi	a0,a5,-616 # 22d98 <_start-0x7ffdd284>
    80000d60:	835ff0ef          	jal	ra,80000594 <debug_printf>
    80000d64:	f9040793          	addi	a5,s0,-112
    80000d68:	00078593          	mv	a1,a5
    80000d6c:	000237b7          	lui	a5,0x23
    80000d70:	dd078513          	addi	a0,a5,-560 # 22dd0 <_start-0x7ffdd24c>
    80000d74:	821ff0ef          	jal	ra,80000594 <debug_printf>
    80000d78:	000237b7          	lui	a5,0x23
    80000d7c:	df078513          	addi	a0,a5,-528 # 22df0 <_start-0x7ffdd22c>
    80000d80:	815ff0ef          	jal	ra,80000594 <debug_printf>
    80000d84:	000237b7          	lui	a5,0x23
    80000d88:	8b878513          	addi	a0,a5,-1864 # 228b8 <_start-0x7ffdd764>
    80000d8c:	809ff0ef          	jal	ra,80000594 <debug_printf>
    80000d90:	8901b703          	ld	a4,-1904(gp) # 800151b0 <User_Time>
    80000d94:	fe042783          	lw	a5,-32(s0)
    80000d98:	02f74733          	div	a4,a4,a5
    80000d9c:	000f47b7          	lui	a5,0xf4
    80000da0:	24078793          	addi	a5,a5,576 # f4240 <_start-0x7ff0bddc>
    80000da4:	02f70733          	mul	a4,a4,a5
    80000da8:	03c00793          	li	a5,60
    80000dac:	02f74733          	div	a4,a4,a5
    80000db0:	88e1bc23          	sd	a4,-1896(gp) # 800151b8 <Microseconds>
    80000db4:	fe042703          	lw	a4,-32(s0)
    80000db8:	00070793          	mv	a5,a4
    80000dbc:	0047979b          	slliw	a5,a5,0x4
    80000dc0:	40e787bb          	subw	a5,a5,a4
    80000dc4:	0027979b          	slliw	a5,a5,0x2
    80000dc8:	0007879b          	sext.w	a5,a5
    80000dcc:	00078713          	mv	a4,a5
    80000dd0:	8901b783          	ld	a5,-1904(gp) # 800151b0 <User_Time>
    80000dd4:	02f74733          	div	a4,a4,a5
    80000dd8:	8ae1b023          	sd	a4,-1888(gp) # 800151c0 <Dhrystones_Per_Second>
    80000ddc:	8981b783          	ld	a5,-1896(gp) # 800151b8 <Microseconds>
    80000de0:	00078593          	mv	a1,a5
    80000de4:	000237b7          	lui	a5,0x23
    80000de8:	e2878513          	addi	a0,a5,-472 # 22e28 <_start-0x7ffdd1f4>
    80000dec:	5f4000ef          	jal	ra,800013e0 <printf>
    80000df0:	8a01b783          	ld	a5,-1888(gp) # 800151c0 <Dhrystones_Per_Second>
    80000df4:	00078593          	mv	a1,a5
    80000df8:	000237b7          	lui	a5,0x23
    80000dfc:	e6078513          	addi	a0,a5,-416 # 22e60 <_start-0x7ffdd1bc>
    80000e00:	5e0000ef          	jal	ra,800013e0 <printf>
    80000e04:	00000793          	li	a5,0
    80000e08:	00078513          	mv	a0,a5
    80000e0c:	f8040113          	addi	sp,s0,-128
    80000e10:	07813083          	ld	ra,120(sp)
    80000e14:	07013403          	ld	s0,112(sp)
    80000e18:	08010113          	addi	sp,sp,128
    80000e1c:	00008067          	ret

0000000080000e20 <Proc_1>:
    80000e20:	fd010113          	addi	sp,sp,-48
    80000e24:	02113423          	sd	ra,40(sp)
    80000e28:	02813023          	sd	s0,32(sp)
    80000e2c:	03010413          	addi	s0,sp,48
    80000e30:	fca43c23          	sd	a0,-40(s0)
    80000e34:	fd843783          	ld	a5,-40(s0)
    80000e38:	0007b783          	ld	a5,0(a5)
    80000e3c:	fef43423          	sd	a5,-24(s0)
    80000e40:	8581b703          	ld	a4,-1960(gp) # 80015178 <_edata>
    80000e44:	fd843783          	ld	a5,-40(s0)
    80000e48:	0007b783          	ld	a5,0(a5)
    80000e4c:	00073883          	ld	a7,0(a4)
    80000e50:	00873803          	ld	a6,8(a4)
    80000e54:	01073503          	ld	a0,16(a4)
    80000e58:	01873583          	ld	a1,24(a4)
    80000e5c:	02073603          	ld	a2,32(a4)
    80000e60:	02873683          	ld	a3,40(a4)
    80000e64:	03073703          	ld	a4,48(a4)
    80000e68:	0117b023          	sd	a7,0(a5)
    80000e6c:	0107b423          	sd	a6,8(a5)
    80000e70:	00a7b823          	sd	a0,16(a5)
    80000e74:	00b7bc23          	sd	a1,24(a5)
    80000e78:	02c7b023          	sd	a2,32(a5)
    80000e7c:	02d7b423          	sd	a3,40(a5)
    80000e80:	02e7b823          	sd	a4,48(a5)
    80000e84:	fd843783          	ld	a5,-40(s0)
    80000e88:	00500713          	li	a4,5
    80000e8c:	00e7a823          	sw	a4,16(a5)
    80000e90:	fd843783          	ld	a5,-40(s0)
    80000e94:	0107a703          	lw	a4,16(a5)
    80000e98:	fe843783          	ld	a5,-24(s0)
    80000e9c:	00e7a823          	sw	a4,16(a5)
    80000ea0:	fd843783          	ld	a5,-40(s0)
    80000ea4:	0007b703          	ld	a4,0(a5)
    80000ea8:	fe843783          	ld	a5,-24(s0)
    80000eac:	00e7b023          	sd	a4,0(a5)
    80000eb0:	fe843783          	ld	a5,-24(s0)
    80000eb4:	00078513          	mv	a0,a5
    80000eb8:	140000ef          	jal	ra,80000ff8 <Proc_3>
    80000ebc:	fe843783          	ld	a5,-24(s0)
    80000ec0:	0087a783          	lw	a5,8(a5)
    80000ec4:	06079063          	bnez	a5,80000f24 <Proc_1+0x104>
    80000ec8:	fe843783          	ld	a5,-24(s0)
    80000ecc:	00600713          	li	a4,6
    80000ed0:	00e7a823          	sw	a4,16(a5)
    80000ed4:	fd843783          	ld	a5,-40(s0)
    80000ed8:	00c7a703          	lw	a4,12(a5)
    80000edc:	fe843783          	ld	a5,-24(s0)
    80000ee0:	00c78793          	addi	a5,a5,12
    80000ee4:	00078593          	mv	a1,a5
    80000ee8:	00070513          	mv	a0,a4
    80000eec:	9f4ff0ef          	jal	ra,800000e0 <Proc_6>
    80000ef0:	8581b783          	ld	a5,-1960(gp) # 80015178 <_edata>
    80000ef4:	0007b703          	ld	a4,0(a5)
    80000ef8:	fe843783          	ld	a5,-24(s0)
    80000efc:	00e7b023          	sd	a4,0(a5)
    80000f00:	fe843783          	ld	a5,-24(s0)
    80000f04:	0107a703          	lw	a4,16(a5)
    80000f08:	fe843783          	ld	a5,-24(s0)
    80000f0c:	01078793          	addi	a5,a5,16
    80000f10:	00078613          	mv	a2,a5
    80000f14:	00a00593          	li	a1,10
    80000f18:	00070513          	mv	a0,a4
    80000f1c:	aacff0ef          	jal	ra,800001c8 <Proc_7>
    80000f20:	0480006f          	j	80000f68 <Proc_1+0x148>
    80000f24:	fd843783          	ld	a5,-40(s0)
    80000f28:	0007b703          	ld	a4,0(a5)
    80000f2c:	fd843783          	ld	a5,-40(s0)
    80000f30:	00073883          	ld	a7,0(a4)
    80000f34:	00873803          	ld	a6,8(a4)
    80000f38:	01073503          	ld	a0,16(a4)
    80000f3c:	01873583          	ld	a1,24(a4)
    80000f40:	02073603          	ld	a2,32(a4)
    80000f44:	02873683          	ld	a3,40(a4)
    80000f48:	03073703          	ld	a4,48(a4)
    80000f4c:	0117b023          	sd	a7,0(a5)
    80000f50:	0107b423          	sd	a6,8(a5)
    80000f54:	00a7b823          	sd	a0,16(a5)
    80000f58:	00b7bc23          	sd	a1,24(a5)
    80000f5c:	02c7b023          	sd	a2,32(a5)
    80000f60:	02d7b423          	sd	a3,40(a5)
    80000f64:	02e7b823          	sd	a4,48(a5)
    80000f68:	00000013          	nop
    80000f6c:	00078513          	mv	a0,a5
    80000f70:	02813083          	ld	ra,40(sp)
    80000f74:	02013403          	ld	s0,32(sp)
    80000f78:	03010113          	addi	sp,sp,48
    80000f7c:	00008067          	ret

0000000080000f80 <Proc_2>:
    80000f80:	fd010113          	addi	sp,sp,-48
    80000f84:	02813423          	sd	s0,40(sp)
    80000f88:	03010413          	addi	s0,sp,48
    80000f8c:	fca43c23          	sd	a0,-40(s0)
    80000f90:	fd843783          	ld	a5,-40(s0)
    80000f94:	0007a783          	lw	a5,0(a5)
    80000f98:	00a7879b          	addiw	a5,a5,10
    80000f9c:	fef42623          	sw	a5,-20(s0)
    80000fa0:	8701c783          	lbu	a5,-1936(gp) # 80015190 <Ch_1_Glob>
    80000fa4:	00078713          	mv	a4,a5
    80000fa8:	04100793          	li	a5,65
    80000fac:	02f71663          	bne	a4,a5,80000fd8 <Proc_2+0x58>
    80000fb0:	fec42783          	lw	a5,-20(s0)
    80000fb4:	fff7879b          	addiw	a5,a5,-1
    80000fb8:	fef42623          	sw	a5,-20(s0)
    80000fbc:	8681a783          	lw	a5,-1944(gp) # 80015188 <Int_Glob>
    80000fc0:	fec42703          	lw	a4,-20(s0)
    80000fc4:	40f707bb          	subw	a5,a4,a5
    80000fc8:	0007871b          	sext.w	a4,a5
    80000fcc:	fd843783          	ld	a5,-40(s0)
    80000fd0:	00e7a023          	sw	a4,0(a5)
    80000fd4:	fe042423          	sw	zero,-24(s0)
    80000fd8:	fe842783          	lw	a5,-24(s0)
    80000fdc:	0007879b          	sext.w	a5,a5
    80000fe0:	fc0790e3          	bnez	a5,80000fa0 <Proc_2+0x20>
    80000fe4:	00000013          	nop
    80000fe8:	00078513          	mv	a0,a5
    80000fec:	02813403          	ld	s0,40(sp)
    80000ff0:	03010113          	addi	sp,sp,48
    80000ff4:	00008067          	ret

0000000080000ff8 <Proc_3>:
    80000ff8:	fe010113          	addi	sp,sp,-32
    80000ffc:	00113c23          	sd	ra,24(sp)
    80001000:	00813823          	sd	s0,16(sp)
    80001004:	02010413          	addi	s0,sp,32
    80001008:	fea43423          	sd	a0,-24(s0)
    8000100c:	8581b783          	ld	a5,-1960(gp) # 80015178 <_edata>
    80001010:	00078a63          	beqz	a5,80001024 <Proc_3+0x2c>
    80001014:	8581b783          	ld	a5,-1960(gp) # 80015178 <_edata>
    80001018:	0007b703          	ld	a4,0(a5)
    8000101c:	fe843783          	ld	a5,-24(s0)
    80001020:	00e7b023          	sd	a4,0(a5)
    80001024:	8681a703          	lw	a4,-1944(gp) # 80015188 <Int_Glob>
    80001028:	8581b783          	ld	a5,-1960(gp) # 80015178 <_edata>
    8000102c:	01078793          	addi	a5,a5,16
    80001030:	00078613          	mv	a2,a5
    80001034:	00070593          	mv	a1,a4
    80001038:	00a00513          	li	a0,10
    8000103c:	98cff0ef          	jal	ra,800001c8 <Proc_7>
    80001040:	00000013          	nop
    80001044:	00078513          	mv	a0,a5
    80001048:	01813083          	ld	ra,24(sp)
    8000104c:	01013403          	ld	s0,16(sp)
    80001050:	02010113          	addi	sp,sp,32
    80001054:	00008067          	ret

0000000080001058 <Proc_4>:
    80001058:	fe010113          	addi	sp,sp,-32
    8000105c:	00813c23          	sd	s0,24(sp)
    80001060:	02010413          	addi	s0,sp,32
    80001064:	8701c783          	lbu	a5,-1936(gp) # 80015190 <Ch_1_Glob>
    80001068:	0007871b          	sext.w	a4,a5
    8000106c:	04100793          	li	a5,65
    80001070:	40f707b3          	sub	a5,a4,a5
    80001074:	0017b793          	seqz	a5,a5
    80001078:	0ff7f793          	andi	a5,a5,255
    8000107c:	fef42623          	sw	a5,-20(s0)
    80001080:	86c1a703          	lw	a4,-1940(gp) # 8001518c <Bool_Glob>
    80001084:	fec42783          	lw	a5,-20(s0)
    80001088:	00f767b3          	or	a5,a4,a5
    8000108c:	0007871b          	sext.w	a4,a5
    80001090:	86e1a623          	sw	a4,-1940(gp) # 8001518c <Bool_Glob>
    80001094:	04200713          	li	a4,66
    80001098:	86e188a3          	sb	a4,-1935(gp) # 80015191 <Ch_2_Glob>
    8000109c:	00000013          	nop
    800010a0:	00078513          	mv	a0,a5
    800010a4:	01813403          	ld	s0,24(sp)
    800010a8:	02010113          	addi	sp,sp,32
    800010ac:	00008067          	ret

00000000800010b0 <Proc_5>:
    800010b0:	ff010113          	addi	sp,sp,-16
    800010b4:	00813423          	sd	s0,8(sp)
    800010b8:	01010413          	addi	s0,sp,16
    800010bc:	04100713          	li	a4,65
    800010c0:	86e18823          	sb	a4,-1936(gp) # 80015190 <Ch_1_Glob>
    800010c4:	8601a623          	sw	zero,-1940(gp) # 8001518c <Bool_Glob>
    800010c8:	00000013          	nop
    800010cc:	00078513          	mv	a0,a5
    800010d0:	00813403          	ld	s0,8(sp)
    800010d4:	01010113          	addi	sp,sp,16
    800010d8:	00008067          	ret

00000000800010dc <exit>:
    800010dc:	ff010113          	addi	sp,sp,-16
    800010e0:	00000593          	li	a1,0
    800010e4:	00813023          	sd	s0,0(sp)
    800010e8:	00113423          	sd	ra,8(sp)
    800010ec:	00050413          	mv	s0,a0
    800010f0:	140030ef          	jal	ra,80004230 <__call_exitprocs>
    800010f4:	8301b503          	ld	a0,-2000(gp) # 80015150 <_global_impure_ptr>
    800010f8:	05853783          	ld	a5,88(a0) # 24058 <_start-0x7ffdbfc4>
    800010fc:	00078463          	beqz	a5,80001104 <exit+0x28>
    80001100:	000780e7          	jalr	a5
    80001104:	00040513          	mv	a0,s0
    80001108:	7ac0f0ef          	jal	ra,800108b4 <_exit>

000000008000110c <__libc_init_array>:
    8000110c:	fe010113          	addi	sp,sp,-32
    80001110:	00813823          	sd	s0,16(sp)
    80001114:	01213023          	sd	s2,0(sp)
    80001118:	00024437          	lui	s0,0x24
    8000111c:	00024937          	lui	s2,0x24
    80001120:	00440793          	addi	a5,s0,4 # 24004 <_start-0x7ffdc018>
    80001124:	00490913          	addi	s2,s2,4 # 24004 <_start-0x7ffdc018>
    80001128:	40f90933          	sub	s2,s2,a5
    8000112c:	00113c23          	sd	ra,24(sp)
    80001130:	00913423          	sd	s1,8(sp)
    80001134:	40395913          	srai	s2,s2,0x3
    80001138:	02090063          	beqz	s2,80001158 <__libc_init_array+0x4c>
    8000113c:	00440413          	addi	s0,s0,4
    80001140:	00000493          	li	s1,0
    80001144:	00043783          	ld	a5,0(s0)
    80001148:	00148493          	addi	s1,s1,1
    8000114c:	00840413          	addi	s0,s0,8
    80001150:	000780e7          	jalr	a5
    80001154:	fe9918e3          	bne	s2,s1,80001144 <__libc_init_array+0x38>
    80001158:	00024437          	lui	s0,0x24
    8000115c:	00024937          	lui	s2,0x24
    80001160:	00840793          	addi	a5,s0,8 # 24008 <_start-0x7ffdc014>
    80001164:	01890913          	addi	s2,s2,24 # 24018 <_start-0x7ffdc004>
    80001168:	40f90933          	sub	s2,s2,a5
    8000116c:	40395913          	srai	s2,s2,0x3
    80001170:	02090063          	beqz	s2,80001190 <__libc_init_array+0x84>
    80001174:	00840413          	addi	s0,s0,8
    80001178:	00000493          	li	s1,0
    8000117c:	00043783          	ld	a5,0(s0)
    80001180:	00148493          	addi	s1,s1,1
    80001184:	00840413          	addi	s0,s0,8
    80001188:	000780e7          	jalr	a5
    8000118c:	fe9918e3          	bne	s2,s1,8000117c <__libc_init_array+0x70>
    80001190:	01813083          	ld	ra,24(sp)
    80001194:	01013403          	ld	s0,16(sp)
    80001198:	00813483          	ld	s1,8(sp)
    8000119c:	00013903          	ld	s2,0(sp)
    800011a0:	02010113          	addi	sp,sp,32
    800011a4:	00008067          	ret

00000000800011a8 <memcpy>:
    800011a8:	00a5c7b3          	xor	a5,a1,a0
    800011ac:	0077f793          	andi	a5,a5,7
    800011b0:	00c508b3          	add	a7,a0,a2
    800011b4:	06079263          	bnez	a5,80001218 <memcpy+0x70>
    800011b8:	00700793          	li	a5,7
    800011bc:	04c7fe63          	bgeu	a5,a2,80001218 <memcpy+0x70>
    800011c0:	00757793          	andi	a5,a0,7
    800011c4:	00050713          	mv	a4,a0
    800011c8:	06079863          	bnez	a5,80001238 <memcpy+0x90>
    800011cc:	ff88f613          	andi	a2,a7,-8
    800011d0:	fc060793          	addi	a5,a2,-64
    800011d4:	08f76c63          	bltu	a4,a5,8000126c <memcpy+0xc4>
    800011d8:	02c77c63          	bgeu	a4,a2,80001210 <memcpy+0x68>
    800011dc:	00058693          	mv	a3,a1
    800011e0:	00070793          	mv	a5,a4
    800011e4:	0006b803          	ld	a6,0(a3)
    800011e8:	00878793          	addi	a5,a5,8
    800011ec:	00868693          	addi	a3,a3,8
    800011f0:	ff07bc23          	sd	a6,-8(a5)
    800011f4:	fec7e8e3          	bltu	a5,a2,800011e4 <memcpy+0x3c>
    800011f8:	fff60793          	addi	a5,a2,-1
    800011fc:	40e787b3          	sub	a5,a5,a4
    80001200:	ff87f793          	andi	a5,a5,-8
    80001204:	00878793          	addi	a5,a5,8
    80001208:	00f70733          	add	a4,a4,a5
    8000120c:	00f585b3          	add	a1,a1,a5
    80001210:	01176863          	bltu	a4,a7,80001220 <memcpy+0x78>
    80001214:	00008067          	ret
    80001218:	00050713          	mv	a4,a0
    8000121c:	ff157ce3          	bgeu	a0,a7,80001214 <memcpy+0x6c>
    80001220:	0005c783          	lbu	a5,0(a1)
    80001224:	00170713          	addi	a4,a4,1
    80001228:	00158593          	addi	a1,a1,1
    8000122c:	fef70fa3          	sb	a5,-1(a4)
    80001230:	ff1768e3          	bltu	a4,a7,80001220 <memcpy+0x78>
    80001234:	00008067          	ret
    80001238:	0005c683          	lbu	a3,0(a1)
    8000123c:	00170713          	addi	a4,a4,1
    80001240:	00777793          	andi	a5,a4,7
    80001244:	fed70fa3          	sb	a3,-1(a4)
    80001248:	00158593          	addi	a1,a1,1
    8000124c:	f80780e3          	beqz	a5,800011cc <memcpy+0x24>
    80001250:	0005c683          	lbu	a3,0(a1)
    80001254:	00170713          	addi	a4,a4,1
    80001258:	00777793          	andi	a5,a4,7
    8000125c:	fed70fa3          	sb	a3,-1(a4)
    80001260:	00158593          	addi	a1,a1,1
    80001264:	fc079ae3          	bnez	a5,80001238 <memcpy+0x90>
    80001268:	f65ff06f          	j	800011cc <memcpy+0x24>
    8000126c:	0085b683          	ld	a3,8(a1)
    80001270:	0005b283          	ld	t0,0(a1)
    80001274:	0105bf83          	ld	t6,16(a1)
    80001278:	0185bf03          	ld	t5,24(a1)
    8000127c:	0205be83          	ld	t4,32(a1)
    80001280:	0285be03          	ld	t3,40(a1)
    80001284:	0305b303          	ld	t1,48(a1)
    80001288:	0385b803          	ld	a6,56(a1)
    8000128c:	00d73423          	sd	a3,8(a4)
    80001290:	0405b683          	ld	a3,64(a1)
    80001294:	00573023          	sd	t0,0(a4)
    80001298:	01f73823          	sd	t6,16(a4)
    8000129c:	01e73c23          	sd	t5,24(a4)
    800012a0:	03d73023          	sd	t4,32(a4)
    800012a4:	03c73423          	sd	t3,40(a4)
    800012a8:	02673823          	sd	t1,48(a4)
    800012ac:	03073c23          	sd	a6,56(a4)
    800012b0:	04d73023          	sd	a3,64(a4)
    800012b4:	04870713          	addi	a4,a4,72
    800012b8:	04858593          	addi	a1,a1,72
    800012bc:	faf768e3          	bltu	a4,a5,8000126c <memcpy+0xc4>
    800012c0:	f19ff06f          	j	800011d8 <memcpy+0x30>

00000000800012c4 <memset>:
    800012c4:	00f00313          	li	t1,15
    800012c8:	00050713          	mv	a4,a0
    800012cc:	02c37a63          	bgeu	t1,a2,80001300 <memset+0x3c>
    800012d0:	00f77793          	andi	a5,a4,15
    800012d4:	0a079063          	bnez	a5,80001374 <memset+0xb0>
    800012d8:	06059e63          	bnez	a1,80001354 <memset+0x90>
    800012dc:	ff067693          	andi	a3,a2,-16
    800012e0:	00f67613          	andi	a2,a2,15
    800012e4:	00e686b3          	add	a3,a3,a4
    800012e8:	00b73023          	sd	a1,0(a4)
    800012ec:	00b73423          	sd	a1,8(a4)
    800012f0:	01070713          	addi	a4,a4,16
    800012f4:	fed76ae3          	bltu	a4,a3,800012e8 <memset+0x24>
    800012f8:	00061463          	bnez	a2,80001300 <memset+0x3c>
    800012fc:	00008067          	ret
    80001300:	40c306b3          	sub	a3,t1,a2
    80001304:	00269693          	slli	a3,a3,0x2
    80001308:	00000297          	auipc	t0,0x0
    8000130c:	005686b3          	add	a3,a3,t0
    80001310:	00c68067          	jr	12(a3)
    80001314:	00b70723          	sb	a1,14(a4)
    80001318:	00b706a3          	sb	a1,13(a4)
    8000131c:	00b70623          	sb	a1,12(a4)
    80001320:	00b705a3          	sb	a1,11(a4)
    80001324:	00b70523          	sb	a1,10(a4)
    80001328:	00b704a3          	sb	a1,9(a4)
    8000132c:	00b70423          	sb	a1,8(a4)
    80001330:	00b703a3          	sb	a1,7(a4)
    80001334:	00b70323          	sb	a1,6(a4)
    80001338:	00b702a3          	sb	a1,5(a4)
    8000133c:	00b70223          	sb	a1,4(a4)
    80001340:	00b701a3          	sb	a1,3(a4)
    80001344:	00b70123          	sb	a1,2(a4)
    80001348:	00b700a3          	sb	a1,1(a4)
    8000134c:	00b70023          	sb	a1,0(a4)
    80001350:	00008067          	ret
    80001354:	0ff5f593          	andi	a1,a1,255
    80001358:	00859693          	slli	a3,a1,0x8
    8000135c:	00d5e5b3          	or	a1,a1,a3
    80001360:	01059693          	slli	a3,a1,0x10
    80001364:	00d5e5b3          	or	a1,a1,a3
    80001368:	02059693          	slli	a3,a1,0x20
    8000136c:	00d5e5b3          	or	a1,a1,a3
    80001370:	f6dff06f          	j	800012dc <memset+0x18>
    80001374:	00279693          	slli	a3,a5,0x2
    80001378:	00000297          	auipc	t0,0x0
    8000137c:	005686b3          	add	a3,a3,t0
    80001380:	00008293          	mv	t0,ra
    80001384:	f98680e7          	jalr	-104(a3)
    80001388:	00028093          	mv	ra,t0
    8000138c:	ff078793          	addi	a5,a5,-16
    80001390:	40f70733          	sub	a4,a4,a5
    80001394:	00f60633          	add	a2,a2,a5
    80001398:	f6c374e3          	bgeu	t1,a2,80001300 <memset+0x3c>
    8000139c:	f3dff06f          	j	800012d8 <memset+0x14>

00000000800013a0 <_printf_r>:
    800013a0:	fb010113          	addi	sp,sp,-80
    800013a4:	02c13023          	sd	a2,32(sp)
    800013a8:	02d13423          	sd	a3,40(sp)
    800013ac:	02e13823          	sd	a4,48(sp)
    800013b0:	02f13c23          	sd	a5,56(sp)
    800013b4:	05013023          	sd	a6,64(sp)
    800013b8:	05113423          	sd	a7,72(sp)
    800013bc:	00058613          	mv	a2,a1
    800013c0:	01053583          	ld	a1,16(a0)
    800013c4:	02010693          	addi	a3,sp,32
    800013c8:	00113c23          	sd	ra,24(sp)
    800013cc:	00d13423          	sd	a3,8(sp)
    800013d0:	4b0000ef          	jal	ra,80001880 <_vfprintf_r>
    800013d4:	01813083          	ld	ra,24(sp)
    800013d8:	05010113          	addi	sp,sp,80
    800013dc:	00008067          	ret

00000000800013e0 <printf>:
    800013e0:	8401b303          	ld	t1,-1984(gp) # 80015160 <_impure_ptr>
    800013e4:	fa010113          	addi	sp,sp,-96
    800013e8:	02c13823          	sd	a2,48(sp)
    800013ec:	02d13c23          	sd	a3,56(sp)
    800013f0:	02b13423          	sd	a1,40(sp)
    800013f4:	04e13023          	sd	a4,64(sp)
    800013f8:	04f13423          	sd	a5,72(sp)
    800013fc:	05013823          	sd	a6,80(sp)
    80001400:	05113c23          	sd	a7,88(sp)
    80001404:	01033583          	ld	a1,16(t1) # 800000e4 <Proc_6+0x4>
    80001408:	02810693          	addi	a3,sp,40
    8000140c:	00050613          	mv	a2,a0
    80001410:	00030513          	mv	a0,t1
    80001414:	00113c23          	sd	ra,24(sp)
    80001418:	00d13423          	sd	a3,8(sp)
    8000141c:	464000ef          	jal	ra,80001880 <_vfprintf_r>
    80001420:	01813083          	ld	ra,24(sp)
    80001424:	06010113          	addi	sp,sp,96
    80001428:	00008067          	ret

000000008000142c <_putchar_r>:
    8000142c:	01053603          	ld	a2,16(a0)
    80001430:	0180006f          	j	80001448 <_putc_r>

0000000080001434 <putchar>:
    80001434:	8401b783          	ld	a5,-1984(gp) # 80015160 <_impure_ptr>
    80001438:	00050593          	mv	a1,a0
    8000143c:	0107b603          	ld	a2,16(a5)
    80001440:	00078513          	mv	a0,a5
    80001444:	0040006f          	j	80001448 <_putc_r>

0000000080001448 <_putc_r>:
    80001448:	fe010113          	addi	sp,sp,-32
    8000144c:	01213823          	sd	s2,16(sp)
    80001450:	00113c23          	sd	ra,24(sp)
    80001454:	00050913          	mv	s2,a0
    80001458:	00050663          	beqz	a0,80001464 <_putc_r+0x1c>
    8000145c:	05052783          	lw	a5,80(a0)
    80001460:	04078663          	beqz	a5,800014ac <_putc_r+0x64>
    80001464:	00c62783          	lw	a5,12(a2)
    80001468:	fff7871b          	addiw	a4,a5,-1
    8000146c:	00e62623          	sw	a4,12(a2)
    80001470:	00075c63          	bgez	a4,80001488 <_putc_r+0x40>
    80001474:	02862783          	lw	a5,40(a2)
    80001478:	04f74663          	blt	a4,a5,800014c4 <_putc_r+0x7c>
    8000147c:	0ff5f793          	andi	a5,a1,255
    80001480:	00a00713          	li	a4,10
    80001484:	04e78063          	beq	a5,a4,800014c4 <_putc_r+0x7c>
    80001488:	00063783          	ld	a5,0(a2)
    8000148c:	0ff5f513          	andi	a0,a1,255
    80001490:	00178713          	addi	a4,a5,1
    80001494:	00e63023          	sd	a4,0(a2)
    80001498:	00b78023          	sb	a1,0(a5)
    8000149c:	01813083          	ld	ra,24(sp)
    800014a0:	01013903          	ld	s2,16(sp)
    800014a4:	02010113          	addi	sp,sp,32
    800014a8:	00008067          	ret
    800014ac:	00c13423          	sd	a2,8(sp)
    800014b0:	00b13023          	sd	a1,0(sp)
    800014b4:	534030ef          	jal	ra,800049e8 <__sinit>
    800014b8:	00813603          	ld	a2,8(sp)
    800014bc:	00013583          	ld	a1,0(sp)
    800014c0:	fa5ff06f          	j	80001464 <_putc_r+0x1c>
    800014c4:	01813083          	ld	ra,24(sp)
    800014c8:	00090513          	mv	a0,s2
    800014cc:	01013903          	ld	s2,16(sp)
    800014d0:	02010113          	addi	sp,sp,32
    800014d4:	2590206f          	j	80003f2c <__swbuf_r>

00000000800014d8 <putc>:
    800014d8:	fe010113          	addi	sp,sp,-32
    800014dc:	01213023          	sd	s2,0(sp)
    800014e0:	8401b903          	ld	s2,-1984(gp) # 80015160 <_impure_ptr>
    800014e4:	00813823          	sd	s0,16(sp)
    800014e8:	00913423          	sd	s1,8(sp)
    800014ec:	00113c23          	sd	ra,24(sp)
    800014f0:	00050493          	mv	s1,a0
    800014f4:	00058413          	mv	s0,a1
    800014f8:	00090663          	beqz	s2,80001504 <putc+0x2c>
    800014fc:	05092783          	lw	a5,80(s2)
    80001500:	04078a63          	beqz	a5,80001554 <putc+0x7c>
    80001504:	00c42783          	lw	a5,12(s0)
    80001508:	fff7871b          	addiw	a4,a5,-1
    8000150c:	00e42623          	sw	a4,12(s0)
    80001510:	00075c63          	bgez	a4,80001528 <putc+0x50>
    80001514:	02842783          	lw	a5,40(s0)
    80001518:	04f74463          	blt	a4,a5,80001560 <putc+0x88>
    8000151c:	0ff4f793          	andi	a5,s1,255
    80001520:	00a00713          	li	a4,10
    80001524:	02e78e63          	beq	a5,a4,80001560 <putc+0x88>
    80001528:	00043783          	ld	a5,0(s0)
    8000152c:	0ff4f513          	andi	a0,s1,255
    80001530:	00178713          	addi	a4,a5,1
    80001534:	00e43023          	sd	a4,0(s0)
    80001538:	00978023          	sb	s1,0(a5)
    8000153c:	01813083          	ld	ra,24(sp)
    80001540:	01013403          	ld	s0,16(sp)
    80001544:	00813483          	ld	s1,8(sp)
    80001548:	00013903          	ld	s2,0(sp)
    8000154c:	02010113          	addi	sp,sp,32
    80001550:	00008067          	ret
    80001554:	00090513          	mv	a0,s2
    80001558:	490030ef          	jal	ra,800049e8 <__sinit>
    8000155c:	fa9ff06f          	j	80001504 <putc+0x2c>
    80001560:	00040613          	mv	a2,s0
    80001564:	01013403          	ld	s0,16(sp)
    80001568:	01813083          	ld	ra,24(sp)
    8000156c:	00048593          	mv	a1,s1
    80001570:	00090513          	mv	a0,s2
    80001574:	00813483          	ld	s1,8(sp)
    80001578:	00013903          	ld	s2,0(sp)
    8000157c:	02010113          	addi	sp,sp,32
    80001580:	1ad0206f          	j	80003f2c <__swbuf_r>

0000000080001584 <_puts_r>:
    80001584:	f9010113          	addi	sp,sp,-112
    80001588:	06813023          	sd	s0,96(sp)
    8000158c:	00050413          	mv	s0,a0
    80001590:	00058513          	mv	a0,a1
    80001594:	04913c23          	sd	s1,88(sp)
    80001598:	06113423          	sd	ra,104(sp)
    8000159c:	00058493          	mv	s1,a1
    800015a0:	1ec000ef          	jal	ra,8000178c <strlen>
    800015a4:	000237b7          	lui	a5,0x23
    800015a8:	e9878793          	addi	a5,a5,-360 # 22e98 <_start-0x7ffdd184>
    800015ac:	04f13023          	sd	a5,64(sp)
    800015b0:	00100793          	li	a5,1
    800015b4:	04f13423          	sd	a5,72(sp)
    800015b8:	05042703          	lw	a4,80(s0)
    800015bc:	03010793          	addi	a5,sp,48
    800015c0:	00150693          	addi	a3,a0,1
    800015c4:	00f13c23          	sd	a5,24(sp)
    800015c8:	00200793          	li	a5,2
    800015cc:	02913823          	sd	s1,48(sp)
    800015d0:	02a13c23          	sd	a0,56(sp)
    800015d4:	02d13423          	sd	a3,40(sp)
    800015d8:	02f12023          	sw	a5,32(sp)
    800015dc:	01043583          	ld	a1,16(s0)
    800015e0:	04070c63          	beqz	a4,80001638 <_puts_r+0xb4>
    800015e4:	01059783          	lh	a5,16(a1)
    800015e8:	03279713          	slli	a4,a5,0x32
    800015ec:	02074263          	bltz	a4,80001610 <_puts_r+0x8c>
    800015f0:	0ac5a703          	lw	a4,172(a1)
    800015f4:	000026b7          	lui	a3,0x2
    800015f8:	00d7e7b3          	or	a5,a5,a3
    800015fc:	ffffe6b7          	lui	a3,0xffffe
    80001600:	fff68693          	addi	a3,a3,-1 # ffffffffffffdfff <t0.2038+0xffffffff7ffc13b7>
    80001604:	00d77733          	and	a4,a4,a3
    80001608:	00f59823          	sh	a5,16(a1)
    8000160c:	0ae5a623          	sw	a4,172(a1)
    80001610:	01810613          	addi	a2,sp,24
    80001614:	00040513          	mv	a0,s0
    80001618:	0d1030ef          	jal	ra,80004ee8 <__sfvwrite_r>
    8000161c:	02051863          	bnez	a0,8000164c <_puts_r+0xc8>
    80001620:	00a00513          	li	a0,10
    80001624:	06813083          	ld	ra,104(sp)
    80001628:	06013403          	ld	s0,96(sp)
    8000162c:	05813483          	ld	s1,88(sp)
    80001630:	07010113          	addi	sp,sp,112
    80001634:	00008067          	ret
    80001638:	00040513          	mv	a0,s0
    8000163c:	00b13423          	sd	a1,8(sp)
    80001640:	3a8030ef          	jal	ra,800049e8 <__sinit>
    80001644:	00813583          	ld	a1,8(sp)
    80001648:	f9dff06f          	j	800015e4 <_puts_r+0x60>
    8000164c:	fff00513          	li	a0,-1
    80001650:	fd5ff06f          	j	80001624 <_puts_r+0xa0>

0000000080001654 <puts>:
    80001654:	00050593          	mv	a1,a0
    80001658:	8401b503          	ld	a0,-1984(gp) # 80015160 <_impure_ptr>
    8000165c:	f29ff06f          	j	80001584 <_puts_r>

0000000080001660 <strcmp>:
    80001660:	00b56733          	or	a4,a0,a1
    80001664:	fff00393          	li	t2,-1
    80001668:	00777713          	andi	a4,a4,7
    8000166c:	0c071c63          	bnez	a4,80001744 <strcmp+0xe4>
    80001670:	00014797          	auipc	a5,0x14
    80001674:	a007b783          	ld	a5,-1536(a5) # 80015070 <__malloc_av_+0x760>
    80001678:	00053603          	ld	a2,0(a0)
    8000167c:	0005b683          	ld	a3,0(a1)
    80001680:	00f672b3          	and	t0,a2,a5
    80001684:	00f66333          	or	t1,a2,a5
    80001688:	00f282b3          	add	t0,t0,a5
    8000168c:	0062e2b3          	or	t0,t0,t1
    80001690:	0c729e63          	bne	t0,t2,8000176c <strcmp+0x10c>
    80001694:	04d61663          	bne	a2,a3,800016e0 <strcmp+0x80>
    80001698:	00853603          	ld	a2,8(a0)
    8000169c:	0085b683          	ld	a3,8(a1)
    800016a0:	00f672b3          	and	t0,a2,a5
    800016a4:	00f66333          	or	t1,a2,a5
    800016a8:	00f282b3          	add	t0,t0,a5
    800016ac:	0062e2b3          	or	t0,t0,t1
    800016b0:	0a729a63          	bne	t0,t2,80001764 <strcmp+0x104>
    800016b4:	02d61663          	bne	a2,a3,800016e0 <strcmp+0x80>
    800016b8:	01053603          	ld	a2,16(a0)
    800016bc:	0105b683          	ld	a3,16(a1)
    800016c0:	00f672b3          	and	t0,a2,a5
    800016c4:	00f66333          	or	t1,a2,a5
    800016c8:	00f282b3          	add	t0,t0,a5
    800016cc:	0062e2b3          	or	t0,t0,t1
    800016d0:	0a729463          	bne	t0,t2,80001778 <strcmp+0x118>
    800016d4:	01850513          	addi	a0,a0,24
    800016d8:	01858593          	addi	a1,a1,24
    800016dc:	f8d60ee3          	beq	a2,a3,80001678 <strcmp+0x18>
    800016e0:	03061713          	slli	a4,a2,0x30
    800016e4:	03069793          	slli	a5,a3,0x30
    800016e8:	02f71a63          	bne	a4,a5,8000171c <strcmp+0xbc>
    800016ec:	02061713          	slli	a4,a2,0x20
    800016f0:	02069793          	slli	a5,a3,0x20
    800016f4:	02f71463          	bne	a4,a5,8000171c <strcmp+0xbc>
    800016f8:	01061713          	slli	a4,a2,0x10
    800016fc:	01069793          	slli	a5,a3,0x10
    80001700:	00f71e63          	bne	a4,a5,8000171c <strcmp+0xbc>
    80001704:	03065713          	srli	a4,a2,0x30
    80001708:	0306d793          	srli	a5,a3,0x30
    8000170c:	40f70533          	sub	a0,a4,a5
    80001710:	0ff57593          	andi	a1,a0,255
    80001714:	02059063          	bnez	a1,80001734 <strcmp+0xd4>
    80001718:	00008067          	ret
    8000171c:	03075713          	srli	a4,a4,0x30
    80001720:	0307d793          	srli	a5,a5,0x30
    80001724:	40f70533          	sub	a0,a4,a5
    80001728:	0ff57593          	andi	a1,a0,255
    8000172c:	00059463          	bnez	a1,80001734 <strcmp+0xd4>
    80001730:	00008067          	ret
    80001734:	0ff77713          	andi	a4,a4,255
    80001738:	0ff7f793          	andi	a5,a5,255
    8000173c:	40f70533          	sub	a0,a4,a5
    80001740:	00008067          	ret
    80001744:	00054603          	lbu	a2,0(a0)
    80001748:	0005c683          	lbu	a3,0(a1)
    8000174c:	00150513          	addi	a0,a0,1
    80001750:	00158593          	addi	a1,a1,1
    80001754:	00d61463          	bne	a2,a3,8000175c <strcmp+0xfc>
    80001758:	fe0616e3          	bnez	a2,80001744 <strcmp+0xe4>
    8000175c:	40d60533          	sub	a0,a2,a3
    80001760:	00008067          	ret
    80001764:	00850513          	addi	a0,a0,8
    80001768:	00858593          	addi	a1,a1,8
    8000176c:	fcd61ce3          	bne	a2,a3,80001744 <strcmp+0xe4>
    80001770:	00000513          	li	a0,0
    80001774:	00008067          	ret
    80001778:	01050513          	addi	a0,a0,16
    8000177c:	01058593          	addi	a1,a1,16
    80001780:	fcd612e3          	bne	a2,a3,80001744 <strcmp+0xe4>
    80001784:	00000513          	li	a0,0
    80001788:	00008067          	ret

000000008000178c <strlen>:
    8000178c:	00757793          	andi	a5,a0,7
    80001790:	00050713          	mv	a4,a0
    80001794:	06079c63          	bnez	a5,8000180c <strlen+0x80>
    80001798:	000257b7          	lui	a5,0x25
    8000179c:	1207b683          	ld	a3,288(a5) # 25120 <_start-0x7ffdaefc>
    800017a0:	fff00593          	li	a1,-1
    800017a4:	00073603          	ld	a2,0(a4)
    800017a8:	00870713          	addi	a4,a4,8
    800017ac:	00d677b3          	and	a5,a2,a3
    800017b0:	00d787b3          	add	a5,a5,a3
    800017b4:	00c7e7b3          	or	a5,a5,a2
    800017b8:	00d7e7b3          	or	a5,a5,a3
    800017bc:	feb784e3          	beq	a5,a1,800017a4 <strlen+0x18>
    800017c0:	ff874683          	lbu	a3,-8(a4)
    800017c4:	40a707b3          	sub	a5,a4,a0
    800017c8:	06068463          	beqz	a3,80001830 <strlen+0xa4>
    800017cc:	ff974683          	lbu	a3,-7(a4)
    800017d0:	04068c63          	beqz	a3,80001828 <strlen+0x9c>
    800017d4:	ffa74683          	lbu	a3,-6(a4)
    800017d8:	06068463          	beqz	a3,80001840 <strlen+0xb4>
    800017dc:	ffb74683          	lbu	a3,-5(a4)
    800017e0:	04068c63          	beqz	a3,80001838 <strlen+0xac>
    800017e4:	ffc74683          	lbu	a3,-4(a4)
    800017e8:	ffd74603          	lbu	a2,-3(a4)
    800017ec:	ffe74503          	lbu	a0,-2(a4)
    800017f0:	04068c63          	beqz	a3,80001848 <strlen+0xbc>
    800017f4:	04060e63          	beqz	a2,80001850 <strlen+0xc4>
    800017f8:	00a03533          	snez	a0,a0
    800017fc:	00f50533          	add	a0,a0,a5
    80001800:	ffe50513          	addi	a0,a0,-2
    80001804:	00008067          	ret
    80001808:	f80688e3          	beqz	a3,80001798 <strlen+0xc>
    8000180c:	00074783          	lbu	a5,0(a4)
    80001810:	00170713          	addi	a4,a4,1
    80001814:	00777693          	andi	a3,a4,7
    80001818:	fe0798e3          	bnez	a5,80001808 <strlen+0x7c>
    8000181c:	40a70733          	sub	a4,a4,a0
    80001820:	fff70513          	addi	a0,a4,-1
    80001824:	00008067          	ret
    80001828:	ff978513          	addi	a0,a5,-7
    8000182c:	00008067          	ret
    80001830:	ff878513          	addi	a0,a5,-8
    80001834:	00008067          	ret
    80001838:	ffb78513          	addi	a0,a5,-5
    8000183c:	00008067          	ret
    80001840:	ffa78513          	addi	a0,a5,-6
    80001844:	00008067          	ret
    80001848:	ffc78513          	addi	a0,a5,-4
    8000184c:	00008067          	ret
    80001850:	ffd78513          	addi	a0,a5,-3
    80001854:	00008067          	ret

0000000080001858 <times>:
    80001858:	00050593          	mv	a1,a0
    8000185c:	8401b503          	ld	a0,-1984(gp) # 80015160 <_impure_ptr>
    80001860:	0040006f          	j	80001864 <_times_r>

0000000080001864 <_times_r>:
    80001864:	ff010113          	addi	sp,sp,-16
    80001868:	00058513          	mv	a0,a1
    8000186c:	00113423          	sd	ra,8(sp)
    80001870:	2a40f0ef          	jal	ra,80010b14 <_times>
    80001874:	00813083          	ld	ra,8(sp)
    80001878:	01010113          	addi	sp,sp,16
    8000187c:	00008067          	ret

0000000080001880 <_vfprintf_r>:
    80001880:	d8010113          	addi	sp,sp,-640
    80001884:	26113c23          	sd	ra,632(sp)
    80001888:	25613023          	sd	s6,576(sp)
    8000188c:	23713c23          	sd	s7,568(sp)
    80001890:	23813823          	sd	s8,560(sp)
    80001894:	00058b93          	mv	s7,a1
    80001898:	00060b13          	mv	s6,a2
    8000189c:	00d13423          	sd	a3,8(sp)
    800018a0:	26813823          	sd	s0,624(sp)
    800018a4:	26913423          	sd	s1,616(sp)
    800018a8:	27213023          	sd	s2,608(sp)
    800018ac:	25313c23          	sd	s3,600(sp)
    800018b0:	25413823          	sd	s4,592(sp)
    800018b4:	25513423          	sd	s5,584(sp)
    800018b8:	23913423          	sd	s9,552(sp)
    800018bc:	23a13023          	sd	s10,544(sp)
    800018c0:	21b13c23          	sd	s11,536(sp)
    800018c4:	00050c13          	mv	s8,a0
    800018c8:	039060ef          	jal	ra,80008100 <_localeconv_r>
    800018cc:	00053783          	ld	a5,0(a0)
    800018d0:	00078513          	mv	a0,a5
    800018d4:	04f13023          	sd	a5,64(sp)
    800018d8:	eb5ff0ef          	jal	ra,8000178c <strlen>
    800018dc:	02a13c23          	sd	a0,56(sp)
    800018e0:	10013023          	sd	zero,256(sp)
    800018e4:	10013423          	sd	zero,264(sp)
    800018e8:	000c0663          	beqz	s8,800018f4 <_vfprintf_r+0x74>
    800018ec:	050c2783          	lw	a5,80(s8)
    800018f0:	7c078663          	beqz	a5,800020bc <_vfprintf_r+0x83c>
    800018f4:	010b9703          	lh	a4,16(s7)
    800018f8:	000026b7          	lui	a3,0x2
    800018fc:	03071793          	slli	a5,a4,0x30
    80001900:	0307d793          	srli	a5,a5,0x30
    80001904:	00d7f633          	and	a2,a5,a3
    80001908:	02061863          	bnez	a2,80001938 <_vfprintf_r+0xb8>
    8000190c:	0acba603          	lw	a2,172(s7)
    80001910:	00d767b3          	or	a5,a4,a3
    80001914:	0107979b          	slliw	a5,a5,0x10
    80001918:	ffffe737          	lui	a4,0xffffe
    8000191c:	4107d79b          	sraiw	a5,a5,0x10
    80001920:	fff70713          	addi	a4,a4,-1 # ffffffffffffdfff <t0.2038+0xffffffff7ffc13b7>
    80001924:	00e67733          	and	a4,a2,a4
    80001928:	00fb9823          	sh	a5,16(s7)
    8000192c:	03079793          	slli	a5,a5,0x30
    80001930:	0aeba623          	sw	a4,172(s7)
    80001934:	0307d793          	srli	a5,a5,0x30
    80001938:	0087f713          	andi	a4,a5,8
    8000193c:	32070a63          	beqz	a4,80001c70 <_vfprintf_r+0x3f0>
    80001940:	018bb703          	ld	a4,24(s7)
    80001944:	32070663          	beqz	a4,80001c70 <_vfprintf_r+0x3f0>
    80001948:	01a7f793          	andi	a5,a5,26
    8000194c:	00a00713          	li	a4,10
    80001950:	34e78263          	beq	a5,a4,80001c94 <_vfprintf_r+0x414>
    80001954:	000237b7          	lui	a5,0x23
    80001958:	0b87b783          	ld	a5,184(a5) # 230b8 <_start-0x7ffdcf64>
    8000195c:	000b0d13          	mv	s10,s6
    80001960:	12013023          	sd	zero,288(sp)
    80001964:	08f13423          	sd	a5,136(sp)
    80001968:	000237b7          	lui	a5,0x23
    8000196c:	0987b783          	ld	a5,152(a5) # 23098 <_start-0x7ffdcf84>
    80001970:	10012c23          	sw	zero,280(sp)
    80001974:	02013023          	sd	zero,32(sp)
    80001978:	08f13023          	sd	a5,128(sp)
    8000197c:	000237b7          	lui	a5,0x23
    80001980:	0a87b783          	ld	a5,168(a5) # 230a8 <_start-0x7ffdcf74>
    80001984:	04013423          	sd	zero,72(sp)
    80001988:	04013823          	sd	zero,80(sp)
    8000198c:	08f13823          	sd	a5,144(sp)
    80001990:	19010793          	addi	a5,sp,400
    80001994:	10f13823          	sd	a5,272(sp)
    80001998:	00078313          	mv	t1,a5
    8000199c:	000d4783          	lbu	a5,0(s10)
    800019a0:	06013023          	sd	zero,96(sp)
    800019a4:	06013c23          	sd	zero,120(sp)
    800019a8:	04013c23          	sd	zero,88(sp)
    800019ac:	00013023          	sd	zero,0(sp)
    800019b0:	24078a63          	beqz	a5,80001c04 <_vfprintf_r+0x384>
    800019b4:	000d0413          	mv	s0,s10
    800019b8:	02500713          	li	a4,37
    800019bc:	2ee78e63          	beq	a5,a4,80001cb8 <_vfprintf_r+0x438>
    800019c0:	00144783          	lbu	a5,1(s0)
    800019c4:	00140413          	addi	s0,s0,1
    800019c8:	fe079ae3          	bnez	a5,800019bc <_vfprintf_r+0x13c>
    800019cc:	41a404bb          	subw	s1,s0,s10
    800019d0:	22048a63          	beqz	s1,80001c04 <_vfprintf_r+0x384>
    800019d4:	12013703          	ld	a4,288(sp)
    800019d8:	11812783          	lw	a5,280(sp)
    800019dc:	01a33023          	sd	s10,0(t1)
    800019e0:	00970733          	add	a4,a4,s1
    800019e4:	0017879b          	addiw	a5,a5,1
    800019e8:	00933423          	sd	s1,8(t1)
    800019ec:	12e13023          	sd	a4,288(sp)
    800019f0:	10f12c23          	sw	a5,280(sp)
    800019f4:	0007871b          	sext.w	a4,a5
    800019f8:	00700793          	li	a5,7
    800019fc:	01030313          	addi	t1,t1,16
    80001a00:	2ce7c463          	blt	a5,a4,80001cc8 <_vfprintf_r+0x448>
    80001a04:	00013703          	ld	a4,0(sp)
    80001a08:	00044783          	lbu	a5,0(s0)
    80001a0c:	0097073b          	addw	a4,a4,s1
    80001a10:	00e13023          	sd	a4,0(sp)
    80001a14:	1e078863          	beqz	a5,80001c04 <_vfprintf_r+0x384>
    80001a18:	000237b7          	lui	a5,0x23
    80001a1c:	00144e83          	lbu	t4,1(s0)
    80001a20:	0c010fa3          	sb	zero,223(sp)
    80001a24:	00140413          	addi	s0,s0,1
    80001a28:	fff00a93          	li	s5,-1
    80001a2c:	00000913          	li	s2,0
    80001a30:	00000493          	li	s1,0
    80001a34:	05a00993          	li	s3,90
    80001a38:	f0078a13          	addi	s4,a5,-256 # 22f00 <_start-0x7ffdd11c>
    80001a3c:	00900b13          	li	s6,9
    80001a40:	00030c93          	mv	s9,t1
    80001a44:	00140413          	addi	s0,s0,1
    80001a48:	000e8d9b          	sext.w	s11,t4
    80001a4c:	02a00693          	li	a3,42
    80001a50:	fe0d879b          	addiw	a5,s11,-32
    80001a54:	0007871b          	sext.w	a4,a5
    80001a58:	04e9e863          	bltu	s3,a4,80001aa8 <_vfprintf_r+0x228>
    80001a5c:	02079793          	slli	a5,a5,0x20
    80001a60:	01e7d793          	srli	a5,a5,0x1e
    80001a64:	014787b3          	add	a5,a5,s4
    80001a68:	0007a783          	lw	a5,0(a5)
    80001a6c:	00078067          	jr	a5
    80001a70:	00000913          	li	s2,0
    80001a74:	00044703          	lbu	a4,0(s0)
    80001a78:	0029179b          	slliw	a5,s2,0x2
    80001a7c:	0127893b          	addw	s2,a5,s2
    80001a80:	fd0d8d9b          	addiw	s11,s11,-48
    80001a84:	0019191b          	slliw	s2,s2,0x1
    80001a88:	fd07079b          	addiw	a5,a4,-48
    80001a8c:	012d893b          	addw	s2,s11,s2
    80001a90:	00140413          	addi	s0,s0,1
    80001a94:	00070d9b          	sext.w	s11,a4
    80001a98:	fcfb7ee3          	bgeu	s6,a5,80001a74 <_vfprintf_r+0x1f4>
    80001a9c:	fe0d879b          	addiw	a5,s11,-32
    80001aa0:	0007871b          	sext.w	a4,a5
    80001aa4:	fae9fce3          	bgeu	s3,a4,80001a5c <_vfprintf_r+0x1dc>
    80001aa8:	000c8313          	mv	t1,s9
    80001aac:	140d8c63          	beqz	s11,80001c04 <_vfprintf_r+0x384>
    80001ab0:	13b10423          	sb	s11,296(sp)
    80001ab4:	0c010fa3          	sb	zero,223(sp)
    80001ab8:	00100993          	li	s3,1
    80001abc:	00100a13          	li	s4,1
    80001ac0:	12810d13          	addi	s10,sp,296
    80001ac4:	00013823          	sd	zero,16(sp)
    80001ac8:	00000a93          	li	s5,0
    80001acc:	02013823          	sd	zero,48(sp)
    80001ad0:	02013423          	sd	zero,40(sp)
    80001ad4:	00013c23          	sd	zero,24(sp)
    80001ad8:	0024fc93          	andi	s9,s1,2
    80001adc:	000c8463          	beqz	s9,80001ae4 <_vfprintf_r+0x264>
    80001ae0:	0029899b          	addiw	s3,s3,2
    80001ae4:	0844fb13          	andi	s6,s1,132
    80001ae8:	12013783          	ld	a5,288(sp)
    80001aec:	000b1663          	bnez	s6,80001af8 <_vfprintf_r+0x278>
    80001af0:	413906bb          	subw	a3,s2,s3
    80001af4:	4ed046e3          	bgtz	a3,800027e0 <_vfprintf_r+0xf60>
    80001af8:	0df14703          	lbu	a4,223(sp)
    80001afc:	02070c63          	beqz	a4,80001b34 <_vfprintf_r+0x2b4>
    80001b00:	11812703          	lw	a4,280(sp)
    80001b04:	0df10693          	addi	a3,sp,223
    80001b08:	00d33023          	sd	a3,0(t1)
    80001b0c:	0017071b          	addiw	a4,a4,1
    80001b10:	00100693          	li	a3,1
    80001b14:	00178793          	addi	a5,a5,1
    80001b18:	00d33423          	sd	a3,8(t1)
    80001b1c:	10e12c23          	sw	a4,280(sp)
    80001b20:	0007069b          	sext.w	a3,a4
    80001b24:	12f13023          	sd	a5,288(sp)
    80001b28:	00700713          	li	a4,7
    80001b2c:	01030313          	addi	t1,t1,16
    80001b30:	44d74e63          	blt	a4,a3,80001f8c <_vfprintf_r+0x70c>
    80001b34:	020c8c63          	beqz	s9,80001b6c <_vfprintf_r+0x2ec>
    80001b38:	11812703          	lw	a4,280(sp)
    80001b3c:	0e010693          	addi	a3,sp,224
    80001b40:	00d33023          	sd	a3,0(t1)
    80001b44:	0017071b          	addiw	a4,a4,1
    80001b48:	00200693          	li	a3,2
    80001b4c:	00278793          	addi	a5,a5,2
    80001b50:	00d33423          	sd	a3,8(t1)
    80001b54:	10e12c23          	sw	a4,280(sp)
    80001b58:	0007069b          	sext.w	a3,a4
    80001b5c:	12f13023          	sd	a5,288(sp)
    80001b60:	00700713          	li	a4,7
    80001b64:	01030313          	addi	t1,t1,16
    80001b68:	58d748e3          	blt	a4,a3,800028f8 <_vfprintf_r+0x1078>
    80001b6c:	08000713          	li	a4,128
    80001b70:	2ceb06e3          	beq	s6,a4,8000263c <_vfprintf_r+0xdbc>
    80001b74:	414a8abb          	subw	s5,s5,s4
    80001b78:	395044e3          	bgtz	s5,80002700 <_vfprintf_r+0xe80>
    80001b7c:	1004f713          	andi	a4,s1,256
    80001b80:	18071ee3          	bnez	a4,8000251c <_vfprintf_r+0xc9c>
    80001b84:	11812703          	lw	a4,280(sp)
    80001b88:	014787b3          	add	a5,a5,s4
    80001b8c:	01a33023          	sd	s10,0(t1)
    80001b90:	0017069b          	addiw	a3,a4,1
    80001b94:	00068713          	mv	a4,a3
    80001b98:	01433423          	sd	s4,8(t1)
    80001b9c:	10e12c23          	sw	a4,280(sp)
    80001ba0:	12f13023          	sd	a5,288(sp)
    80001ba4:	00700713          	li	a4,7
    80001ba8:	4ed74a63          	blt	a4,a3,8000209c <_vfprintf_r+0x81c>
    80001bac:	01030313          	addi	t1,t1,16
    80001bb0:	0044f493          	andi	s1,s1,4
    80001bb4:	00048663          	beqz	s1,80001bc0 <_vfprintf_r+0x340>
    80001bb8:	413904bb          	subw	s1,s2,s3
    80001bbc:	54904ee3          	bgtz	s1,80002918 <_vfprintf_r+0x1098>
    80001bc0:	00090713          	mv	a4,s2
    80001bc4:	01395463          	bge	s2,s3,80001bcc <_vfprintf_r+0x34c>
    80001bc8:	00098713          	mv	a4,s3
    80001bcc:	00013683          	ld	a3,0(sp)
    80001bd0:	00d7073b          	addw	a4,a4,a3
    80001bd4:	00e13023          	sd	a4,0(sp)
    80001bd8:	3e0790e3          	bnez	a5,800027b8 <_vfprintf_r+0xf38>
    80001bdc:	01013783          	ld	a5,16(sp)
    80001be0:	10012c23          	sw	zero,280(sp)
    80001be4:	00078863          	beqz	a5,80001bf4 <_vfprintf_r+0x374>
    80001be8:	01013583          	ld	a1,16(sp)
    80001bec:	000c0513          	mv	a0,s8
    80001bf0:	7d1020ef          	jal	ra,80004bc0 <_free_r>
    80001bf4:	19010313          	addi	t1,sp,400
    80001bf8:	00040d13          	mv	s10,s0
    80001bfc:	000d4783          	lbu	a5,0(s10)
    80001c00:	da079ae3          	bnez	a5,800019b4 <_vfprintf_r+0x134>
    80001c04:	12013783          	ld	a5,288(sp)
    80001c08:	00078463          	beqz	a5,80001c10 <_vfprintf_r+0x390>
    80001c0c:	1050106f          	j	80003510 <_vfprintf_r+0x1c90>
    80001c10:	010bd783          	lhu	a5,16(s7)
    80001c14:	0407f793          	andi	a5,a5,64
    80001c18:	00078463          	beqz	a5,80001c20 <_vfprintf_r+0x3a0>
    80001c1c:	64d0106f          	j	80003a68 <_vfprintf_r+0x21e8>
    80001c20:	27813083          	ld	ra,632(sp)
    80001c24:	27013403          	ld	s0,624(sp)
    80001c28:	00013503          	ld	a0,0(sp)
    80001c2c:	26813483          	ld	s1,616(sp)
    80001c30:	26013903          	ld	s2,608(sp)
    80001c34:	25813983          	ld	s3,600(sp)
    80001c38:	25013a03          	ld	s4,592(sp)
    80001c3c:	24813a83          	ld	s5,584(sp)
    80001c40:	24013b03          	ld	s6,576(sp)
    80001c44:	23813b83          	ld	s7,568(sp)
    80001c48:	23013c03          	ld	s8,560(sp)
    80001c4c:	22813c83          	ld	s9,552(sp)
    80001c50:	22013d03          	ld	s10,544(sp)
    80001c54:	21813d83          	ld	s11,536(sp)
    80001c58:	28010113          	addi	sp,sp,640
    80001c5c:	00008067          	ret
    80001c60:	0104e493          	ori	s1,s1,16
    80001c64:	00044e83          	lbu	t4,0(s0)
    80001c68:	0004849b          	sext.w	s1,s1
    80001c6c:	dd9ff06f          	j	80001a44 <_vfprintf_r+0x1c4>
    80001c70:	000b8593          	mv	a1,s7
    80001c74:	000c0513          	mv	a0,s8
    80001c78:	450020ef          	jal	ra,800040c8 <__swsetup_r>
    80001c7c:	00050463          	beqz	a0,80001c84 <_vfprintf_r+0x404>
    80001c80:	5e90106f          	j	80003a68 <_vfprintf_r+0x21e8>
    80001c84:	010bd783          	lhu	a5,16(s7)
    80001c88:	00a00713          	li	a4,10
    80001c8c:	01a7f793          	andi	a5,a5,26
    80001c90:	cce792e3          	bne	a5,a4,80001954 <_vfprintf_r+0xd4>
    80001c94:	012b9783          	lh	a5,18(s7)
    80001c98:	ca07cee3          	bltz	a5,80001954 <_vfprintf_r+0xd4>
    80001c9c:	00813683          	ld	a3,8(sp)
    80001ca0:	000b0613          	mv	a2,s6
    80001ca4:	000b8593          	mv	a1,s7
    80001ca8:	000c0513          	mv	a0,s8
    80001cac:	1c0020ef          	jal	ra,80003e6c <vfprintf+0x18>
    80001cb0:	00a13023          	sd	a0,0(sp)
    80001cb4:	f6dff06f          	j	80001c20 <_vfprintf_r+0x3a0>
    80001cb8:	41a404bb          	subw	s1,s0,s10
    80001cbc:	d0049ce3          	bnez	s1,800019d4 <_vfprintf_r+0x154>
    80001cc0:	00044783          	lbu	a5,0(s0)
    80001cc4:	d51ff06f          	j	80001a14 <_vfprintf_r+0x194>
    80001cc8:	11010613          	addi	a2,sp,272
    80001ccc:	000b8593          	mv	a1,s7
    80001cd0:	000c0513          	mv	a0,s8
    80001cd4:	5c80b0ef          	jal	ra,8000d29c <__sprint_r>
    80001cd8:	f2051ce3          	bnez	a0,80001c10 <_vfprintf_r+0x390>
    80001cdc:	19010313          	addi	t1,sp,400
    80001ce0:	d25ff06f          	j	80001a04 <_vfprintf_r+0x184>
    80001ce4:	0084f793          	andi	a5,s1,8
    80001ce8:	000c8313          	mv	t1,s9
    80001cec:	00078463          	beqz	a5,80001cf4 <_vfprintf_r+0x474>
    80001cf0:	7e10006f          	j	80002cd0 <_vfprintf_r+0x1450>
    80001cf4:	00813783          	ld	a5,8(sp)
    80001cf8:	01913823          	sd	s9,16(sp)
    80001cfc:	0007b503          	ld	a0,0(a5)
    80001d00:	00878c93          	addi	s9,a5,8
    80001d04:	01913423          	sd	s9,8(sp)
    80001d08:	7b4100ef          	jal	ra,800124bc <__extenddftf2>
    80001d0c:	01013303          	ld	t1,16(sp)
    80001d10:	10a13023          	sd	a0,256(sp)
    80001d14:	10b13423          	sd	a1,264(sp)
    80001d18:	10010513          	addi	a0,sp,256
    80001d1c:	00613823          	sd	t1,16(sp)
    80001d20:	370060ef          	jal	ra,80008090 <_ldcheck>
    80001d24:	0ea12423          	sw	a0,232(sp)
    80001d28:	00200793          	li	a5,2
    80001d2c:	01013303          	ld	t1,16(sp)
    80001d30:	00f51463          	bne	a0,a5,80001d38 <_vfprintf_r+0x4b8>
    80001d34:	3340106f          	j	80003068 <_vfprintf_r+0x17e8>
    80001d38:	00100793          	li	a5,1
    80001d3c:	00f51463          	bne	a0,a5,80001d44 <_vfprintf_r+0x4c4>
    80001d40:	4800106f          	j	800031c0 <_vfprintf_r+0x1940>
    80001d44:	06100793          	li	a5,97
    80001d48:	00fd9463          	bne	s11,a5,80001d50 <_vfprintf_r+0x4d0>
    80001d4c:	5e10106f          	j	80003b2c <_vfprintf_r+0x22ac>
    80001d50:	04100793          	li	a5,65
    80001d54:	00fd9463          	bne	s11,a5,80001d5c <_vfprintf_r+0x4dc>
    80001d58:	7f40106f          	j	8000354c <_vfprintf_r+0x1ccc>
    80001d5c:	fdfdf713          	andi	a4,s11,-33
    80001d60:	fff00793          	li	a5,-1
    80001d64:	02e13423          	sd	a4,40(sp)
    80001d68:	00fa9463          	bne	s5,a5,80001d70 <_vfprintf_r+0x4f0>
    80001d6c:	6b90106f          	j	80003c24 <_vfprintf_r+0x23a4>
    80001d70:	04700793          	li	a5,71
    80001d74:	00f71463          	bne	a4,a5,80001d7c <_vfprintf_r+0x4fc>
    80001d78:	69d0106f          	j	80003c14 <_vfprintf_r+0x2394>
    80001d7c:	10813a03          	ld	s4,264(sp)
    80001d80:	1004e793          	ori	a5,s1,256
    80001d84:	02913823          	sd	s1,48(sp)
    80001d88:	10013b03          	ld	s6,256(sp)
    80001d8c:	0007879b          	sext.w	a5,a5
    80001d90:	000a5463          	bgez	s4,80001d98 <_vfprintf_r+0x518>
    80001d94:	2b10106f          	j	80003844 <_vfprintf_r+0x1fc4>
    80001d98:	06013423          	sd	zero,104(sp)
    80001d9c:	00078493          	mv	s1,a5
    80001da0:	00013823          	sd	zero,16(sp)
    80001da4:	02813703          	ld	a4,40(sp)
    80001da8:	04600793          	li	a5,70
    80001dac:	00f71463          	bne	a4,a5,80001db4 <_vfprintf_r+0x534>
    80001db0:	2dd0106f          	j	8000388c <_vfprintf_r+0x200c>
    80001db4:	04500793          	li	a5,69
    80001db8:	00613c23          	sd	t1,24(sp)
    80001dbc:	00f71463          	bne	a4,a5,80001dc4 <_vfprintf_r+0x544>
    80001dc0:	58d0106f          	j	80003b4c <_vfprintf_r+0x22cc>
    80001dc4:	0e810793          	addi	a5,sp,232
    80001dc8:	000a8713          	mv	a4,s5
    80001dcc:	0f810893          	addi	a7,sp,248
    80001dd0:	0ec10813          	addi	a6,sp,236
    80001dd4:	00200693          	li	a3,2
    80001dd8:	000b0593          	mv	a1,s6
    80001ddc:	000a0613          	mv	a2,s4
    80001de0:	000c0513          	mv	a0,s8
    80001de4:	060050ef          	jal	ra,80006e44 <_ldtoa_r>
    80001de8:	02813703          	ld	a4,40(sp)
    80001dec:	04700793          	li	a5,71
    80001df0:	01813303          	ld	t1,24(sp)
    80001df4:	00050d13          	mv	s10,a0
    80001df8:	00f70463          	beq	a4,a5,80001e00 <_vfprintf_r+0x580>
    80001dfc:	03c0206f          	j	80003e38 <_vfprintf_r+0x25b8>
    80001e00:	03013783          	ld	a5,48(sp)
    80001e04:	0017f793          	andi	a5,a5,1
    80001e08:	00078463          	beqz	a5,80001e10 <_vfprintf_r+0x590>
    80001e0c:	5390106f          	j	80003b44 <_vfprintf_r+0x22c4>
    80001e10:	0f813683          	ld	a3,248(sp)
    80001e14:	41a687bb          	subw	a5,a3,s10
    80001e18:	02f13023          	sd	a5,32(sp)
    80001e1c:	0e812703          	lw	a4,232(sp)
    80001e20:	04700793          	li	a5,71
    80001e24:	00e13c23          	sd	a4,24(sp)
    80001e28:	02813703          	ld	a4,40(sp)
    80001e2c:	00f71463          	bne	a4,a5,80001e34 <_vfprintf_r+0x5b4>
    80001e30:	1810106f          	j	800037b0 <_vfprintf_r+0x1f30>
    80001e34:	02813703          	ld	a4,40(sp)
    80001e38:	04600793          	li	a5,70
    80001e3c:	00f71463          	bne	a4,a5,80001e44 <_vfprintf_r+0x5c4>
    80001e40:	3810106f          	j	800039c0 <_vfprintf_r+0x2140>
    80001e44:	01813783          	ld	a5,24(sp)
    80001e48:	02813583          	ld	a1,40(sp)
    80001e4c:	04100613          	li	a2,65
    80001e50:	fff7879b          	addiw	a5,a5,-1
    80001e54:	0ef12423          	sw	a5,232(sp)
    80001e58:	0ffdf713          	andi	a4,s11,255
    80001e5c:	00000693          	li	a3,0
    80001e60:	00c59863          	bne	a1,a2,80001e70 <_vfprintf_r+0x5f0>
    80001e64:	00f7071b          	addiw	a4,a4,15
    80001e68:	0ff77713          	andi	a4,a4,255
    80001e6c:	00100693          	li	a3,1
    80001e70:	0ee10823          	sb	a4,240(sp)
    80001e74:	02b00713          	li	a4,43
    80001e78:	0007da63          	bgez	a5,80001e8c <_vfprintf_r+0x60c>
    80001e7c:	01813703          	ld	a4,24(sp)
    80001e80:	00100793          	li	a5,1
    80001e84:	40e787bb          	subw	a5,a5,a4
    80001e88:	02d00713          	li	a4,45
    80001e8c:	0ee108a3          	sb	a4,241(sp)
    80001e90:	00900713          	li	a4,9
    80001e94:	00f74463          	blt	a4,a5,80001e9c <_vfprintf_r+0x61c>
    80001e98:	5cd0106f          	j	80003c64 <_vfprintf_r+0x23e4>
    80001e9c:	0ff10513          	addi	a0,sp,255
    80001ea0:	00050593          	mv	a1,a0
    80001ea4:	00a00693          	li	a3,10
    80001ea8:	06300e13          	li	t3,99
    80001eac:	02d7e73b          	remw	a4,a5,a3
    80001eb0:	00058613          	mv	a2,a1
    80001eb4:	00078813          	mv	a6,a5
    80001eb8:	fff58593          	addi	a1,a1,-1
    80001ebc:	0307071b          	addiw	a4,a4,48
    80001ec0:	fee60fa3          	sb	a4,-1(a2)
    80001ec4:	02d7c7bb          	divw	a5,a5,a3
    80001ec8:	ff0e42e3          	blt	t3,a6,80001eac <_vfprintf_r+0x62c>
    80001ecc:	0307879b          	addiw	a5,a5,48
    80001ed0:	0ff7f693          	andi	a3,a5,255
    80001ed4:	fed58fa3          	sb	a3,-1(a1)
    80001ed8:	ffe60793          	addi	a5,a2,-2
    80001edc:	00a7e463          	bltu	a5,a0,80001ee4 <_vfprintf_r+0x664>
    80001ee0:	7410106f          	j	80003e20 <_vfprintf_r+0x25a0>
    80001ee4:	0f210713          	addi	a4,sp,242
    80001ee8:	0080006f          	j	80001ef0 <_vfprintf_r+0x670>
    80001eec:	0007c683          	lbu	a3,0(a5)
    80001ef0:	00d70023          	sb	a3,0(a4)
    80001ef4:	00178793          	addi	a5,a5,1
    80001ef8:	00170713          	addi	a4,a4,1
    80001efc:	fea798e3          	bne	a5,a0,80001eec <_vfprintf_r+0x66c>
    80001f00:	10110793          	addi	a5,sp,257
    80001f04:	0f210713          	addi	a4,sp,242
    80001f08:	40c787b3          	sub	a5,a5,a2
    80001f0c:	00f707b3          	add	a5,a4,a5
    80001f10:	0f010713          	addi	a4,sp,240
    80001f14:	40e787bb          	subw	a5,a5,a4
    80001f18:	04f13823          	sd	a5,80(sp)
    80001f1c:	05013783          	ld	a5,80(sp)
    80001f20:	02013683          	ld	a3,32(sp)
    80001f24:	00100713          	li	a4,1
    80001f28:	00f68a3b          	addw	s4,a3,a5
    80001f2c:	000a0793          	mv	a5,s4
    80001f30:	00d74463          	blt	a4,a3,80001f38 <_vfprintf_r+0x6b8>
    80001f34:	6650106f          	j	80003d98 <_vfprintf_r+0x2518>
    80001f38:	03813703          	ld	a4,56(sp)
    80001f3c:	00e78a3b          	addw	s4,a5,a4
    80001f40:	03013783          	ld	a5,48(sp)
    80001f44:	fffa4993          	not	s3,s4
    80001f48:	43f9d993          	srai	s3,s3,0x3f
    80001f4c:	bff7f493          	andi	s1,a5,-1025
    80001f50:	0004849b          	sext.w	s1,s1
    80001f54:	013a79b3          	and	s3,s4,s3
    80001f58:	1004e493          	ori	s1,s1,256
    80001f5c:	0009899b          	sext.w	s3,s3
    80001f60:	02013823          	sd	zero,48(sp)
    80001f64:	02013423          	sd	zero,40(sp)
    80001f68:	00013c23          	sd	zero,24(sp)
    80001f6c:	06813783          	ld	a5,104(sp)
    80001f70:	00079463          	bnez	a5,80001f78 <_vfprintf_r+0x6f8>
    80001f74:	05d0106f          	j	800037d0 <_vfprintf_r+0x1f50>
    80001f78:	02d00793          	li	a5,45
    80001f7c:	0cf10fa3          	sb	a5,223(sp)
    80001f80:	00000a93          	li	s5,0
    80001f84:	0019899b          	addiw	s3,s3,1
    80001f88:	b51ff06f          	j	80001ad8 <_vfprintf_r+0x258>
    80001f8c:	11010613          	addi	a2,sp,272
    80001f90:	000b8593          	mv	a1,s7
    80001f94:	000c0513          	mv	a0,s8
    80001f98:	3040b0ef          	jal	ra,8000d29c <__sprint_r>
    80001f9c:	020518e3          	bnez	a0,800027cc <_vfprintf_r+0xf4c>
    80001fa0:	12013783          	ld	a5,288(sp)
    80001fa4:	19010313          	addi	t1,sp,400
    80001fa8:	b8dff06f          	j	80001b34 <_vfprintf_r+0x2b4>
    80001fac:	11812583          	lw	a1,280(sp)
    80001fb0:	00178a93          	addi	s5,a5,1
    80001fb4:	02013783          	ld	a5,32(sp)
    80001fb8:	0015871b          	addiw	a4,a1,1
    80001fbc:	00100613          	li	a2,1
    80001fc0:	01a33023          	sd	s10,0(t1)
    80001fc4:	00070693          	mv	a3,a4
    80001fc8:	01030a13          	addi	s4,t1,16
    80001fcc:	38f650e3          	bge	a2,a5,80002b4c <_vfprintf_r+0x12cc>
    80001fd0:	00100613          	li	a2,1
    80001fd4:	10d12c23          	sw	a3,280(sp)
    80001fd8:	00c33423          	sd	a2,8(t1)
    80001fdc:	13513023          	sd	s5,288(sp)
    80001fe0:	00700693          	li	a3,7
    80001fe4:	6ee6c4e3          	blt	a3,a4,80002ecc <_vfprintf_r+0x164c>
    80001fe8:	03813783          	ld	a5,56(sp)
    80001fec:	04013683          	ld	a3,64(sp)
    80001ff0:	00170b1b          	addiw	s6,a4,1
    80001ff4:	00fa8ab3          	add	s5,s5,a5
    80001ff8:	00da3023          	sd	a3,0(s4)
    80001ffc:	00fa3423          	sd	a5,8(s4)
    80002000:	13513023          	sd	s5,288(sp)
    80002004:	11612c23          	sw	s6,280(sp)
    80002008:	00700713          	li	a4,7
    8000200c:	010a0a13          	addi	s4,s4,16
    80002010:	6f6740e3          	blt	a4,s6,80002ef0 <_vfprintf_r+0x1670>
    80002014:	10013503          	ld	a0,256(sp)
    80002018:	10813583          	ld	a1,264(sp)
    8000201c:	001b0e1b          	addiw	t3,s6,1
    80002020:	00000693          	li	a3,0
    80002024:	00000613          	li	a2,0
    80002028:	01c12c23          	sw	t3,24(sp)
    8000202c:	3000f0ef          	jal	ra,8001132c <__eqtf2>
    80002030:	01812e03          	lw	t3,24(sp)
    80002034:	02013783          	ld	a5,32(sp)
    80002038:	010a0313          	addi	t1,s4,16
    8000203c:	000e069b          	sext.w	a3,t3
    80002040:	fff78d9b          	addiw	s11,a5,-1
    80002044:	320508e3          	beqz	a0,80002b74 <_vfprintf_r+0x12f4>
    80002048:	001d0813          	addi	a6,s10,1
    8000204c:	01ba8ab3          	add	s5,s5,s11
    80002050:	010a3023          	sd	a6,0(s4)
    80002054:	01ba3423          	sd	s11,8(s4)
    80002058:	13513023          	sd	s5,288(sp)
    8000205c:	11c12c23          	sw	t3,280(sp)
    80002060:	00700713          	li	a4,7
    80002064:	4cd74ae3          	blt	a4,a3,80002d38 <_vfprintf_r+0x14b8>
    80002068:	020a0713          	addi	a4,s4,32
    8000206c:	002b069b          	addiw	a3,s6,2
    80002070:	00030a13          	mv	s4,t1
    80002074:	00070313          	mv	t1,a4
    80002078:	05013603          	ld	a2,80(sp)
    8000207c:	0f010713          	addi	a4,sp,240
    80002080:	00ea3023          	sd	a4,0(s4)
    80002084:	015607b3          	add	a5,a2,s5
    80002088:	00ca3423          	sd	a2,8(s4)
    8000208c:	12f13023          	sd	a5,288(sp)
    80002090:	10d12c23          	sw	a3,280(sp)
    80002094:	00700713          	li	a4,7
    80002098:	b0d75ce3          	bge	a4,a3,80001bb0 <_vfprintf_r+0x330>
    8000209c:	11010613          	addi	a2,sp,272
    800020a0:	000b8593          	mv	a1,s7
    800020a4:	000c0513          	mv	a0,s8
    800020a8:	1f40b0ef          	jal	ra,8000d29c <__sprint_r>
    800020ac:	72051063          	bnez	a0,800027cc <_vfprintf_r+0xf4c>
    800020b0:	12013783          	ld	a5,288(sp)
    800020b4:	19010313          	addi	t1,sp,400
    800020b8:	af9ff06f          	j	80001bb0 <_vfprintf_r+0x330>
    800020bc:	000c0513          	mv	a0,s8
    800020c0:	129020ef          	jal	ra,800049e8 <__sinit>
    800020c4:	831ff06f          	j	800018f4 <_vfprintf_r+0x74>
    800020c8:	00813703          	ld	a4,8(sp)
    800020cc:	000c8313          	mv	t1,s9
    800020d0:	0c010fa3          	sb	zero,223(sp)
    800020d4:	00072783          	lw	a5,0(a4)
    800020d8:	00870713          	addi	a4,a4,8
    800020dc:	00e13423          	sd	a4,8(sp)
    800020e0:	12f10423          	sb	a5,296(sp)
    800020e4:	00100993          	li	s3,1
    800020e8:	00100a13          	li	s4,1
    800020ec:	12810d13          	addi	s10,sp,296
    800020f0:	9d5ff06f          	j	80001ac4 <_vfprintf_r+0x244>
    800020f4:	00813783          	ld	a5,8(sp)
    800020f8:	0c010fa3          	sb	zero,223(sp)
    800020fc:	000c8313          	mv	t1,s9
    80002100:	0007bd03          	ld	s10,0(a5)
    80002104:	00878c93          	addi	s9,a5,8
    80002108:	520d02e3          	beqz	s10,80002e2c <_vfprintf_r+0x15ac>
    8000210c:	fff00793          	li	a5,-1
    80002110:	00fa9463          	bne	s5,a5,80002118 <_vfprintf_r+0x898>
    80002114:	0140106f          	j	80003128 <_vfprintf_r+0x18a8>
    80002118:	000a8613          	mv	a2,s5
    8000211c:	00000593          	li	a1,0
    80002120:	000d0513          	mv	a0,s10
    80002124:	00613423          	sd	t1,8(sp)
    80002128:	3d9060ef          	jal	ra,80008d00 <memchr>
    8000212c:	00a13823          	sd	a0,16(sp)
    80002130:	00813303          	ld	t1,8(sp)
    80002134:	00051463          	bnez	a0,8000213c <_vfprintf_r+0x8bc>
    80002138:	0510106f          	j	80003988 <_vfprintf_r+0x2108>
    8000213c:	01013783          	ld	a5,16(sp)
    80002140:	01913423          	sd	s9,8(sp)
    80002144:	00013823          	sd	zero,16(sp)
    80002148:	41a78a3b          	subw	s4,a5,s10
    8000214c:	0df14783          	lbu	a5,223(sp)
    80002150:	fffa4993          	not	s3,s4
    80002154:	43f9d993          	srai	s3,s3,0x3f
    80002158:	02013823          	sd	zero,48(sp)
    8000215c:	02013423          	sd	zero,40(sp)
    80002160:	00013c23          	sd	zero,24(sp)
    80002164:	0149f9b3          	and	s3,s3,s4
    80002168:	00000a93          	li	s5,0
    8000216c:	960786e3          	beqz	a5,80001ad8 <_vfprintf_r+0x258>
    80002170:	0019899b          	addiw	s3,s3,1
    80002174:	965ff06f          	j	80001ad8 <_vfprintf_r+0x258>
    80002178:	0104e493          	ori	s1,s1,16
    8000217c:	000c8313          	mv	t1,s9
    80002180:	0004849b          	sext.w	s1,s1
    80002184:	00813683          	ld	a3,8(sp)
    80002188:	0204f793          	andi	a5,s1,32
    8000218c:	00868713          	addi	a4,a3,8 # 2008 <_start-0x7fffe014>
    80002190:	280784e3          	beqz	a5,80002c18 <_vfprintf_r+0x1398>
    80002194:	0006b983          	ld	s3,0(a3)
    80002198:	bff4f493          	andi	s1,s1,-1025
    8000219c:	00048b1b          	sext.w	s6,s1
    800021a0:	00e13423          	sd	a4,8(sp)
    800021a4:	00000793          	li	a5,0
    800021a8:	0c010fa3          	sb	zero,223(sp)
    800021ac:	fff00713          	li	a4,-1
    800021b0:	2cea8263          	beq	s5,a4,80002474 <_vfprintf_r+0xbf4>
    800021b4:	f7fb7493          	andi	s1,s6,-129
    800021b8:	0004849b          	sext.w	s1,s1
    800021bc:	2a099a63          	bnez	s3,80002470 <_vfprintf_r+0xbf0>
    800021c0:	300a9863          	bnez	s5,800024d0 <_vfprintf_r+0xc50>
    800021c4:	28079e63          	bnez	a5,80002460 <_vfprintf_r+0xbe0>
    800021c8:	001b7a13          	andi	s4,s6,1
    800021cc:	18c10d13          	addi	s10,sp,396
    800021d0:	2c0a10e3          	bnez	s4,80002c90 <_vfprintf_r+0x1410>
    800021d4:	0df14783          	lbu	a5,223(sp)
    800021d8:	000a099b          	sext.w	s3,s4
    800021dc:	015a5463          	bge	s4,s5,800021e4 <_vfprintf_r+0x964>
    800021e0:	000a899b          	sext.w	s3,s5
    800021e4:	00013823          	sd	zero,16(sp)
    800021e8:	02013823          	sd	zero,48(sp)
    800021ec:	02013423          	sd	zero,40(sp)
    800021f0:	00013c23          	sd	zero,24(sp)
    800021f4:	f6079ee3          	bnez	a5,80002170 <_vfprintf_r+0x8f0>
    800021f8:	8e1ff06f          	j	80001ad8 <_vfprintf_r+0x258>
    800021fc:	00044e83          	lbu	t4,0(s0)
    80002200:	06800793          	li	a5,104
    80002204:	3cfe82e3          	beq	t4,a5,80002dc8 <_vfprintf_r+0x1548>
    80002208:	0404e493          	ori	s1,s1,64
    8000220c:	0004849b          	sext.w	s1,s1
    80002210:	835ff06f          	j	80001a44 <_vfprintf_r+0x1c4>
    80002214:	00813683          	ld	a3,8(sp)
    80002218:	0204f793          	andi	a5,s1,32
    8000221c:	000c8313          	mv	t1,s9
    80002220:	0006b703          	ld	a4,0(a3)
    80002224:	00868693          	addi	a3,a3,8
    80002228:	00d13423          	sd	a3,8(sp)
    8000222c:	26079ae3          	bnez	a5,80002ca0 <_vfprintf_r+0x1420>
    80002230:	0104f793          	andi	a5,s1,16
    80002234:	260796e3          	bnez	a5,80002ca0 <_vfprintf_r+0x1420>
    80002238:	0404f793          	andi	a5,s1,64
    8000223c:	00078463          	beqz	a5,80002244 <_vfprintf_r+0x9c4>
    80002240:	2780106f          	j	800034b8 <_vfprintf_r+0x1c38>
    80002244:	2004f493          	andi	s1,s1,512
    80002248:	00013783          	ld	a5,0(sp)
    8000224c:	00049463          	bnez	s1,80002254 <_vfprintf_r+0x9d4>
    80002250:	1b90106f          	j	80003c08 <_vfprintf_r+0x2388>
    80002254:	00f70023          	sb	a5,0(a4)
    80002258:	00040d13          	mv	s10,s0
    8000225c:	9a1ff06f          	j	80001bfc <_vfprintf_r+0x37c>
    80002260:	00044e83          	lbu	t4,0(s0)
    80002264:	06c00793          	li	a5,108
    80002268:	36fe8ae3          	beq	t4,a5,80002ddc <_vfprintf_r+0x155c>
    8000226c:	0104e493          	ori	s1,s1,16
    80002270:	0004849b          	sext.w	s1,s1
    80002274:	fd0ff06f          	j	80001a44 <_vfprintf_r+0x1c4>
    80002278:	0204e493          	ori	s1,s1,32
    8000227c:	00044e83          	lbu	t4,0(s0)
    80002280:	0004849b          	sext.w	s1,s1
    80002284:	fc0ff06f          	j	80001a44 <_vfprintf_r+0x1c4>
    80002288:	00813703          	ld	a4,8(sp)
    8000228c:	03000793          	li	a5,48
    80002290:	0ef10023          	sb	a5,224(sp)
    80002294:	07800793          	li	a5,120
    80002298:	0ef100a3          	sb	a5,225(sp)
    8000229c:	00870793          	addi	a5,a4,8
    800022a0:	00f13423          	sd	a5,8(sp)
    800022a4:	000237b7          	lui	a5,0x23
    800022a8:	ed878793          	addi	a5,a5,-296 # 22ed8 <_start-0x7ffdd144>
    800022ac:	0024e493          	ori	s1,s1,2
    800022b0:	04f13423          	sd	a5,72(sp)
    800022b4:	00073983          	ld	s3,0(a4)
    800022b8:	000c8313          	mv	t1,s9
    800022bc:	00048b1b          	sext.w	s6,s1
    800022c0:	00200793          	li	a5,2
    800022c4:	07800d93          	li	s11,120
    800022c8:	ee1ff06f          	j	800021a8 <_vfprintf_r+0x928>
    800022cc:	0104e493          	ori	s1,s1,16
    800022d0:	000c8313          	mv	t1,s9
    800022d4:	00048b1b          	sext.w	s6,s1
    800022d8:	00813683          	ld	a3,8(sp)
    800022dc:	020b7793          	andi	a5,s6,32
    800022e0:	00868713          	addi	a4,a3,8
    800022e4:	100784e3          	beqz	a5,80002bec <_vfprintf_r+0x136c>
    800022e8:	0006b983          	ld	s3,0(a3)
    800022ec:	00100793          	li	a5,1
    800022f0:	00e13423          	sd	a4,8(sp)
    800022f4:	eb5ff06f          	j	800021a8 <_vfprintf_r+0x928>
    800022f8:	0084e493          	ori	s1,s1,8
    800022fc:	00044e83          	lbu	t4,0(s0)
    80002300:	0004849b          	sext.w	s1,s1
    80002304:	f40ff06f          	j	80001a44 <_vfprintf_r+0x1c4>
    80002308:	0804e493          	ori	s1,s1,128
    8000230c:	00044e83          	lbu	t4,0(s0)
    80002310:	0004849b          	sext.w	s1,s1
    80002314:	f30ff06f          	j	80001a44 <_vfprintf_r+0x1c4>
    80002318:	00044d83          	lbu	s11,0(s0)
    8000231c:	00140793          	addi	a5,s0,1
    80002320:	00dd9463          	bne	s11,a3,80002328 <_vfprintf_r+0xaa8>
    80002324:	2d50106f          	j	80003df8 <_vfprintf_r+0x2578>
    80002328:	fd0d871b          	addiw	a4,s11,-48
    8000232c:	00078413          	mv	s0,a5
    80002330:	00000a93          	li	s5,0
    80002334:	f0eb6e63          	bltu	s6,a4,80001a50 <_vfprintf_r+0x1d0>
    80002338:	00044d83          	lbu	s11,0(s0)
    8000233c:	002a979b          	slliw	a5,s5,0x2
    80002340:	01578abb          	addw	s5,a5,s5
    80002344:	001a9a9b          	slliw	s5,s5,0x1
    80002348:	00ea8abb          	addw	s5,s5,a4
    8000234c:	fd0d871b          	addiw	a4,s11,-48
    80002350:	00140413          	addi	s0,s0,1
    80002354:	feeb72e3          	bgeu	s6,a4,80002338 <_vfprintf_r+0xab8>
    80002358:	ef8ff06f          	j	80001a50 <_vfprintf_r+0x1d0>
    8000235c:	00044e83          	lbu	t4,0(s0)
    80002360:	0044e493          	ori	s1,s1,4
    80002364:	0004849b          	sext.w	s1,s1
    80002368:	edcff06f          	j	80001a44 <_vfprintf_r+0x1c4>
    8000236c:	02b00793          	li	a5,43
    80002370:	00044e83          	lbu	t4,0(s0)
    80002374:	0cf10fa3          	sb	a5,223(sp)
    80002378:	eccff06f          	j	80001a44 <_vfprintf_r+0x1c4>
    8000237c:	00813783          	ld	a5,8(sp)
    80002380:	00044e83          	lbu	t4,0(s0)
    80002384:	0007a903          	lw	s2,0(a5)
    80002388:	00878793          	addi	a5,a5,8
    8000238c:	00f13423          	sd	a5,8(sp)
    80002390:	ea095a63          	bgez	s2,80001a44 <_vfprintf_r+0x1c4>
    80002394:	4120093b          	negw	s2,s2
    80002398:	fc9ff06f          	j	80002360 <_vfprintf_r+0xae0>
    8000239c:	000c0513          	mv	a0,s8
    800023a0:	561050ef          	jal	ra,80008100 <_localeconv_r>
    800023a4:	00853783          	ld	a5,8(a0)
    800023a8:	00078513          	mv	a0,a5
    800023ac:	04f13c23          	sd	a5,88(sp)
    800023b0:	bdcff0ef          	jal	ra,8000178c <strlen>
    800023b4:	00050793          	mv	a5,a0
    800023b8:	000c0513          	mv	a0,s8
    800023bc:	00078d93          	mv	s11,a5
    800023c0:	06f13c23          	sd	a5,120(sp)
    800023c4:	53d050ef          	jal	ra,80008100 <_localeconv_r>
    800023c8:	01053783          	ld	a5,16(a0)
    800023cc:	00044e83          	lbu	t4,0(s0)
    800023d0:	06f13023          	sd	a5,96(sp)
    800023d4:	e60d8863          	beqz	s11,80001a44 <_vfprintf_r+0x1c4>
    800023d8:	e6078663          	beqz	a5,80001a44 <_vfprintf_r+0x1c4>
    800023dc:	0007c783          	lbu	a5,0(a5)
    800023e0:	e6078263          	beqz	a5,80001a44 <_vfprintf_r+0x1c4>
    800023e4:	4004e493          	ori	s1,s1,1024
    800023e8:	0004849b          	sext.w	s1,s1
    800023ec:	e58ff06f          	j	80001a44 <_vfprintf_r+0x1c4>
    800023f0:	0014e493          	ori	s1,s1,1
    800023f4:	00044e83          	lbu	t4,0(s0)
    800023f8:	0004849b          	sext.w	s1,s1
    800023fc:	e48ff06f          	j	80001a44 <_vfprintf_r+0x1c4>
    80002400:	0df14783          	lbu	a5,223(sp)
    80002404:	00044e83          	lbu	t4,0(s0)
    80002408:	e2079e63          	bnez	a5,80001a44 <_vfprintf_r+0x1c4>
    8000240c:	02000793          	li	a5,32
    80002410:	0cf10fa3          	sb	a5,223(sp)
    80002414:	e30ff06f          	j	80001a44 <_vfprintf_r+0x1c4>
    80002418:	0104e493          	ori	s1,s1,16
    8000241c:	000c8313          	mv	t1,s9
    80002420:	0004849b          	sext.w	s1,s1
    80002424:	00813683          	ld	a3,8(sp)
    80002428:	0204f793          	andi	a5,s1,32
    8000242c:	00868713          	addi	a4,a3,8
    80002430:	000786e3          	beqz	a5,80002c3c <_vfprintf_r+0x13bc>
    80002434:	0006b783          	ld	a5,0(a3)
    80002438:	00078993          	mv	s3,a5
    8000243c:	0207c0e3          	bltz	a5,80002c5c <_vfprintf_r+0x13dc>
    80002440:	fff00793          	li	a5,-1
    80002444:	48fa8663          	beq	s5,a5,800028d0 <_vfprintf_r+0x1050>
    80002448:	f7f4f493          	andi	s1,s1,-129
    8000244c:	00e13423          	sd	a4,8(sp)
    80002450:	00048b1b          	sext.w	s6,s1
    80002454:	48099263          	bnez	s3,800028d8 <_vfprintf_r+0x1058>
    80002458:	480a9463          	bnez	s5,800028e0 <_vfprintf_r+0x1060>
    8000245c:	000b0493          	mv	s1,s6
    80002460:	00000a93          	li	s5,0
    80002464:	00000a13          	li	s4,0
    80002468:	18c10d13          	addi	s10,sp,396
    8000246c:	d69ff06f          	j	800021d4 <_vfprintf_r+0x954>
    80002470:	00048b13          	mv	s6,s1
    80002474:	00100713          	li	a4,1
    80002478:	46e78063          	beq	a5,a4,800028d8 <_vfprintf_r+0x1058>
    8000247c:	00200713          	li	a4,2
    80002480:	06e78463          	beq	a5,a4,800024e8 <_vfprintf_r+0xc68>
    80002484:	18c10a13          	addi	s4,sp,396
    80002488:	000a0d13          	mv	s10,s4
    8000248c:	0079f793          	andi	a5,s3,7
    80002490:	03078793          	addi	a5,a5,48
    80002494:	fefd0fa3          	sb	a5,-1(s10)
    80002498:	0039d993          	srli	s3,s3,0x3
    8000249c:	000d0713          	mv	a4,s10
    800024a0:	fffd0d13          	addi	s10,s10,-1
    800024a4:	fe0994e3          	bnez	s3,8000248c <_vfprintf_r+0xc0c>
    800024a8:	001b7693          	andi	a3,s6,1
    800024ac:	06068263          	beqz	a3,80002510 <_vfprintf_r+0xc90>
    800024b0:	03000693          	li	a3,48
    800024b4:	04d78e63          	beq	a5,a3,80002510 <_vfprintf_r+0xc90>
    800024b8:	ffe70713          	addi	a4,a4,-2
    800024bc:	fedd0fa3          	sb	a3,-1(s10)
    800024c0:	40ea0a3b          	subw	s4,s4,a4
    800024c4:	000b0493          	mv	s1,s6
    800024c8:	00070d13          	mv	s10,a4
    800024cc:	d09ff06f          	j	800021d4 <_vfprintf_r+0x954>
    800024d0:	00100713          	li	a4,1
    800024d4:	00e79463          	bne	a5,a4,800024dc <_vfprintf_r+0xc5c>
    800024d8:	6640106f          	j	80003b3c <_vfprintf_r+0x22bc>
    800024dc:	00200713          	li	a4,2
    800024e0:	00048b13          	mv	s6,s1
    800024e4:	fae790e3          	bne	a5,a4,80002484 <_vfprintf_r+0xc04>
    800024e8:	04813703          	ld	a4,72(sp)
    800024ec:	18c10a13          	addi	s4,sp,396
    800024f0:	000a0d13          	mv	s10,s4
    800024f4:	00f9f793          	andi	a5,s3,15
    800024f8:	00f707b3          	add	a5,a4,a5
    800024fc:	0007c783          	lbu	a5,0(a5)
    80002500:	0049d993          	srli	s3,s3,0x4
    80002504:	fffd0d13          	addi	s10,s10,-1
    80002508:	00fd0023          	sb	a5,0(s10)
    8000250c:	fe0994e3          	bnez	s3,800024f4 <_vfprintf_r+0xc74>
    80002510:	41aa0a3b          	subw	s4,s4,s10
    80002514:	000b0493          	mv	s1,s6
    80002518:	cbdff06f          	j	800021d4 <_vfprintf_r+0x954>
    8000251c:	06500713          	li	a4,101
    80002520:	a9b756e3          	bge	a4,s11,80001fac <_vfprintf_r+0x72c>
    80002524:	10013503          	ld	a0,256(sp)
    80002528:	10813583          	ld	a1,264(sp)
    8000252c:	00000613          	li	a2,0
    80002530:	00000693          	li	a3,0
    80002534:	06613823          	sd	t1,112(sp)
    80002538:	06f13423          	sd	a5,104(sp)
    8000253c:	5f10e0ef          	jal	ra,8001132c <__eqtf2>
    80002540:	06813783          	ld	a5,104(sp)
    80002544:	07013303          	ld	t1,112(sp)
    80002548:	48051263          	bnez	a0,800029cc <_vfprintf_r+0x114c>
    8000254c:	11812703          	lw	a4,280(sp)
    80002550:	000236b7          	lui	a3,0x23
    80002554:	ef868693          	addi	a3,a3,-264 # 22ef8 <_start-0x7ffdd124>
    80002558:	0017071b          	addiw	a4,a4,1
    8000255c:	00d33023          	sd	a3,0(t1)
    80002560:	00178793          	addi	a5,a5,1
    80002564:	00100693          	li	a3,1
    80002568:	00d33423          	sd	a3,8(t1)
    8000256c:	10e12c23          	sw	a4,280(sp)
    80002570:	0007069b          	sext.w	a3,a4
    80002574:	12f13023          	sd	a5,288(sp)
    80002578:	00700713          	li	a4,7
    8000257c:	01030313          	addi	t1,t1,16
    80002580:	2ad74ae3          	blt	a4,a3,80003034 <_vfprintf_r+0x17b4>
    80002584:	0e812703          	lw	a4,232(sp)
    80002588:	02013683          	ld	a3,32(sp)
    8000258c:	6ed75663          	bge	a4,a3,80002c78 <_vfprintf_r+0x13f8>
    80002590:	04013703          	ld	a4,64(sp)
    80002594:	03813683          	ld	a3,56(sp)
    80002598:	01030313          	addi	t1,t1,16
    8000259c:	fee33823          	sd	a4,-16(t1)
    800025a0:	11812703          	lw	a4,280(sp)
    800025a4:	00d787b3          	add	a5,a5,a3
    800025a8:	fed33c23          	sd	a3,-8(t1)
    800025ac:	0017071b          	addiw	a4,a4,1
    800025b0:	0007069b          	sext.w	a3,a4
    800025b4:	10e12c23          	sw	a4,280(sp)
    800025b8:	12f13023          	sd	a5,288(sp)
    800025bc:	00700713          	li	a4,7
    800025c0:	04d746e3          	blt	a4,a3,80002e0c <_vfprintf_r+0x158c>
    800025c4:	02013703          	ld	a4,32(sp)
    800025c8:	fff70a1b          	addiw	s4,a4,-1
    800025cc:	df405263          	blez	s4,80001bb0 <_vfprintf_r+0x330>
    800025d0:	000238b7          	lui	a7,0x23
    800025d4:	01000693          	li	a3,16
    800025d8:	11812703          	lw	a4,280(sp)
    800025dc:	08088c93          	addi	s9,a7,128 # 23080 <_start-0x7ffdcf9c>
    800025e0:	01000b13          	li	s6,16
    800025e4:	00700a93          	li	s5,7
    800025e8:	0146c863          	blt	a3,s4,800025f8 <_vfprintf_r+0xd78>
    800025ec:	2690006f          	j	80003054 <_vfprintf_r+0x17d4>
    800025f0:	ff0a0a1b          	addiw	s4,s4,-16
    800025f4:	274b50e3          	bge	s6,s4,80003054 <_vfprintf_r+0x17d4>
    800025f8:	0017071b          	addiw	a4,a4,1
    800025fc:	01078793          	addi	a5,a5,16
    80002600:	01933023          	sd	s9,0(t1)
    80002604:	01633423          	sd	s6,8(t1)
    80002608:	12f13023          	sd	a5,288(sp)
    8000260c:	10e12c23          	sw	a4,280(sp)
    80002610:	01030313          	addi	t1,t1,16
    80002614:	fceadee3          	bge	s5,a4,800025f0 <_vfprintf_r+0xd70>
    80002618:	11010613          	addi	a2,sp,272
    8000261c:	000b8593          	mv	a1,s7
    80002620:	000c0513          	mv	a0,s8
    80002624:	4790a0ef          	jal	ra,8000d29c <__sprint_r>
    80002628:	1a051263          	bnez	a0,800027cc <_vfprintf_r+0xf4c>
    8000262c:	12013783          	ld	a5,288(sp)
    80002630:	11812703          	lw	a4,280(sp)
    80002634:	19010313          	addi	t1,sp,400
    80002638:	fb9ff06f          	j	800025f0 <_vfprintf_r+0xd70>
    8000263c:	41390b3b          	subw	s6,s2,s3
    80002640:	d3605a63          	blez	s6,80001b74 <_vfprintf_r+0x2f4>
    80002644:	000238b7          	lui	a7,0x23
    80002648:	01000613          	li	a2,16
    8000264c:	11812703          	lw	a4,280(sp)
    80002650:	08088c93          	addi	s9,a7,128 # 23080 <_start-0x7ffdcf9c>
    80002654:	01000f13          	li	t5,16
    80002658:	00700f93          	li	t6,7
    8000265c:	01664863          	blt	a2,s6,8000266c <_vfprintf_r+0xdec>
    80002660:	05c0006f          	j	800026bc <_vfprintf_r+0xe3c>
    80002664:	ff0b0b1b          	addiw	s6,s6,-16
    80002668:	056f5a63          	bge	t5,s6,800026bc <_vfprintf_r+0xe3c>
    8000266c:	0017071b          	addiw	a4,a4,1
    80002670:	01078793          	addi	a5,a5,16
    80002674:	01933023          	sd	s9,0(t1)
    80002678:	01e33423          	sd	t5,8(t1)
    8000267c:	12f13023          	sd	a5,288(sp)
    80002680:	10e12c23          	sw	a4,280(sp)
    80002684:	01030313          	addi	t1,t1,16
    80002688:	fcefdee3          	bge	t6,a4,80002664 <_vfprintf_r+0xde4>
    8000268c:	11010613          	addi	a2,sp,272
    80002690:	000b8593          	mv	a1,s7
    80002694:	000c0513          	mv	a0,s8
    80002698:	4050a0ef          	jal	ra,8000d29c <__sprint_r>
    8000269c:	12051863          	bnez	a0,800027cc <_vfprintf_r+0xf4c>
    800026a0:	01000f13          	li	t5,16
    800026a4:	ff0b0b1b          	addiw	s6,s6,-16
    800026a8:	12013783          	ld	a5,288(sp)
    800026ac:	11812703          	lw	a4,280(sp)
    800026b0:	19010313          	addi	t1,sp,400
    800026b4:	00700f93          	li	t6,7
    800026b8:	fb6f4ae3          	blt	t5,s6,8000266c <_vfprintf_r+0xdec>
    800026bc:	0017069b          	addiw	a3,a4,1
    800026c0:	016787b3          	add	a5,a5,s6
    800026c4:	01933023          	sd	s9,0(t1)
    800026c8:	01633423          	sd	s6,8(t1)
    800026cc:	12f13023          	sd	a5,288(sp)
    800026d0:	10d12c23          	sw	a3,280(sp)
    800026d4:	00700713          	li	a4,7
    800026d8:	01030313          	addi	t1,t1,16
    800026dc:	c8d75c63          	bge	a4,a3,80001b74 <_vfprintf_r+0x2f4>
    800026e0:	11010613          	addi	a2,sp,272
    800026e4:	000b8593          	mv	a1,s7
    800026e8:	000c0513          	mv	a0,s8
    800026ec:	3b10a0ef          	jal	ra,8000d29c <__sprint_r>
    800026f0:	0c051e63          	bnez	a0,800027cc <_vfprintf_r+0xf4c>
    800026f4:	12013783          	ld	a5,288(sp)
    800026f8:	19010313          	addi	t1,sp,400
    800026fc:	c78ff06f          	j	80001b74 <_vfprintf_r+0x2f4>
    80002700:	000238b7          	lui	a7,0x23
    80002704:	01000693          	li	a3,16
    80002708:	11812703          	lw	a4,280(sp)
    8000270c:	08088c93          	addi	s9,a7,128 # 23080 <_start-0x7ffdcf9c>
    80002710:	01000f13          	li	t5,16
    80002714:	00700b13          	li	s6,7
    80002718:	0156c863          	blt	a3,s5,80002728 <_vfprintf_r+0xea8>
    8000271c:	0580006f          	j	80002774 <_vfprintf_r+0xef4>
    80002720:	ff0a8a9b          	addiw	s5,s5,-16
    80002724:	055f5863          	bge	t5,s5,80002774 <_vfprintf_r+0xef4>
    80002728:	0017071b          	addiw	a4,a4,1
    8000272c:	01078793          	addi	a5,a5,16
    80002730:	01933023          	sd	s9,0(t1)
    80002734:	01e33423          	sd	t5,8(t1)
    80002738:	12f13023          	sd	a5,288(sp)
    8000273c:	10e12c23          	sw	a4,280(sp)
    80002740:	01030313          	addi	t1,t1,16
    80002744:	fceb5ee3          	bge	s6,a4,80002720 <_vfprintf_r+0xea0>
    80002748:	11010613          	addi	a2,sp,272
    8000274c:	000b8593          	mv	a1,s7
    80002750:	000c0513          	mv	a0,s8
    80002754:	3490a0ef          	jal	ra,8000d29c <__sprint_r>
    80002758:	06051a63          	bnez	a0,800027cc <_vfprintf_r+0xf4c>
    8000275c:	01000f13          	li	t5,16
    80002760:	ff0a8a9b          	addiw	s5,s5,-16
    80002764:	12013783          	ld	a5,288(sp)
    80002768:	11812703          	lw	a4,280(sp)
    8000276c:	19010313          	addi	t1,sp,400
    80002770:	fb5f4ce3          	blt	t5,s5,80002728 <_vfprintf_r+0xea8>
    80002774:	0017069b          	addiw	a3,a4,1
    80002778:	015787b3          	add	a5,a5,s5
    8000277c:	01933023          	sd	s9,0(t1)
    80002780:	01533423          	sd	s5,8(t1)
    80002784:	12f13023          	sd	a5,288(sp)
    80002788:	10d12c23          	sw	a3,280(sp)
    8000278c:	00700713          	li	a4,7
    80002790:	01030313          	addi	t1,t1,16
    80002794:	bed75463          	bge	a4,a3,80001b7c <_vfprintf_r+0x2fc>
    80002798:	11010613          	addi	a2,sp,272
    8000279c:	000b8593          	mv	a1,s7
    800027a0:	000c0513          	mv	a0,s8
    800027a4:	2f90a0ef          	jal	ra,8000d29c <__sprint_r>
    800027a8:	02051263          	bnez	a0,800027cc <_vfprintf_r+0xf4c>
    800027ac:	12013783          	ld	a5,288(sp)
    800027b0:	19010313          	addi	t1,sp,400
    800027b4:	bc8ff06f          	j	80001b7c <_vfprintf_r+0x2fc>
    800027b8:	11010613          	addi	a2,sp,272
    800027bc:	000b8593          	mv	a1,s7
    800027c0:	000c0513          	mv	a0,s8
    800027c4:	2d90a0ef          	jal	ra,8000d29c <__sprint_r>
    800027c8:	c0050a63          	beqz	a0,80001bdc <_vfprintf_r+0x35c>
    800027cc:	01013583          	ld	a1,16(sp)
    800027d0:	c4058063          	beqz	a1,80001c10 <_vfprintf_r+0x390>
    800027d4:	000c0513          	mv	a0,s8
    800027d8:	3e8020ef          	jal	ra,80004bc0 <_free_r>
    800027dc:	c34ff06f          	j	80001c10 <_vfprintf_r+0x390>
    800027e0:	000238b7          	lui	a7,0x23
    800027e4:	01000613          	li	a2,16
    800027e8:	11812703          	lw	a4,280(sp)
    800027ec:	07088893          	addi	a7,a7,112 # 23070 <_start-0x7ffdcfac>
    800027f0:	08d65c63          	bge	a2,a3,80002888 <_vfprintf_r+0x1008>
    800027f4:	06813423          	sd	s0,104(sp)
    800027f8:	06913823          	sd	s1,112(sp)
    800027fc:	000c0413          	mv	s0,s8
    80002800:	000b8493          	mv	s1,s7
    80002804:	01000f13          	li	t5,16
    80002808:	00700393          	li	t2,7
    8000280c:	00068b93          	mv	s7,a3
    80002810:	00088c13          	mv	s8,a7
    80002814:	00c0006f          	j	80002820 <_vfprintf_r+0xfa0>
    80002818:	ff0b8b9b          	addiw	s7,s7,-16
    8000281c:	057f5a63          	bge	t5,s7,80002870 <_vfprintf_r+0xff0>
    80002820:	0017071b          	addiw	a4,a4,1
    80002824:	01078793          	addi	a5,a5,16
    80002828:	01833023          	sd	s8,0(t1)
    8000282c:	01e33423          	sd	t5,8(t1)
    80002830:	12f13023          	sd	a5,288(sp)
    80002834:	10e12c23          	sw	a4,280(sp)
    80002838:	01030313          	addi	t1,t1,16
    8000283c:	fce3dee3          	bge	t2,a4,80002818 <_vfprintf_r+0xf98>
    80002840:	11010613          	addi	a2,sp,272
    80002844:	00048593          	mv	a1,s1
    80002848:	00040513          	mv	a0,s0
    8000284c:	2510a0ef          	jal	ra,8000d29c <__sprint_r>
    80002850:	7a051e63          	bnez	a0,8000300c <_vfprintf_r+0x178c>
    80002854:	01000f13          	li	t5,16
    80002858:	ff0b8b9b          	addiw	s7,s7,-16
    8000285c:	12013783          	ld	a5,288(sp)
    80002860:	11812703          	lw	a4,280(sp)
    80002864:	19010313          	addi	t1,sp,400
    80002868:	00700393          	li	t2,7
    8000286c:	fb7f4ae3          	blt	t5,s7,80002820 <_vfprintf_r+0xfa0>
    80002870:	000b8693          	mv	a3,s7
    80002874:	000c0893          	mv	a7,s8
    80002878:	00048b93          	mv	s7,s1
    8000287c:	00040c13          	mv	s8,s0
    80002880:	07013483          	ld	s1,112(sp)
    80002884:	06813403          	ld	s0,104(sp)
    80002888:	0017071b          	addiw	a4,a4,1
    8000288c:	00d787b3          	add	a5,a5,a3
    80002890:	00d33423          	sd	a3,8(t1)
    80002894:	01133023          	sd	a7,0(t1)
    80002898:	0007069b          	sext.w	a3,a4
    8000289c:	10e12c23          	sw	a4,280(sp)
    800028a0:	12f13023          	sd	a5,288(sp)
    800028a4:	00700713          	li	a4,7
    800028a8:	01030313          	addi	t1,t1,16
    800028ac:	a4d75663          	bge	a4,a3,80001af8 <_vfprintf_r+0x278>
    800028b0:	11010613          	addi	a2,sp,272
    800028b4:	000b8593          	mv	a1,s7
    800028b8:	000c0513          	mv	a0,s8
    800028bc:	1e10a0ef          	jal	ra,8000d29c <__sprint_r>
    800028c0:	f00516e3          	bnez	a0,800027cc <_vfprintf_r+0xf4c>
    800028c4:	12013783          	ld	a5,288(sp)
    800028c8:	19010313          	addi	t1,sp,400
    800028cc:	a2cff06f          	j	80001af8 <_vfprintf_r+0x278>
    800028d0:	00048b13          	mv	s6,s1
    800028d4:	00e13423          	sd	a4,8(sp)
    800028d8:	00900793          	li	a5,9
    800028dc:	6337ec63          	bltu	a5,s3,80002f14 <_vfprintf_r+0x1694>
    800028e0:	0309899b          	addiw	s3,s3,48
    800028e4:	193105a3          	sb	s3,395(sp)
    800028e8:	000b0493          	mv	s1,s6
    800028ec:	00100a13          	li	s4,1
    800028f0:	18b10d13          	addi	s10,sp,395
    800028f4:	8e1ff06f          	j	800021d4 <_vfprintf_r+0x954>
    800028f8:	11010613          	addi	a2,sp,272
    800028fc:	000b8593          	mv	a1,s7
    80002900:	000c0513          	mv	a0,s8
    80002904:	1990a0ef          	jal	ra,8000d29c <__sprint_r>
    80002908:	ec0512e3          	bnez	a0,800027cc <_vfprintf_r+0xf4c>
    8000290c:	12013783          	ld	a5,288(sp)
    80002910:	19010313          	addi	t1,sp,400
    80002914:	a58ff06f          	j	80001b6c <_vfprintf_r+0x2ec>
    80002918:	000238b7          	lui	a7,0x23
    8000291c:	07088893          	addi	a7,a7,112 # 23070 <_start-0x7ffdcfac>
    80002920:	01000693          	li	a3,16
    80002924:	11812703          	lw	a4,280(sp)
    80002928:	01000a13          	li	s4,16
    8000292c:	00700b13          	li	s6,7
    80002930:	00088a93          	mv	s5,a7
    80002934:	0096c863          	blt	a3,s1,80002944 <_vfprintf_r+0x10c4>
    80002938:	0580006f          	j	80002990 <_vfprintf_r+0x1110>
    8000293c:	ff04849b          	addiw	s1,s1,-16
    80002940:	049a5663          	bge	s4,s1,8000298c <_vfprintf_r+0x110c>
    80002944:	0017071b          	addiw	a4,a4,1
    80002948:	01078793          	addi	a5,a5,16
    8000294c:	01533023          	sd	s5,0(t1)
    80002950:	01433423          	sd	s4,8(t1)
    80002954:	12f13023          	sd	a5,288(sp)
    80002958:	10e12c23          	sw	a4,280(sp)
    8000295c:	01030313          	addi	t1,t1,16
    80002960:	fceb5ee3          	bge	s6,a4,8000293c <_vfprintf_r+0x10bc>
    80002964:	11010613          	addi	a2,sp,272
    80002968:	000b8593          	mv	a1,s7
    8000296c:	000c0513          	mv	a0,s8
    80002970:	12d0a0ef          	jal	ra,8000d29c <__sprint_r>
    80002974:	e4051ce3          	bnez	a0,800027cc <_vfprintf_r+0xf4c>
    80002978:	ff04849b          	addiw	s1,s1,-16
    8000297c:	12013783          	ld	a5,288(sp)
    80002980:	11812703          	lw	a4,280(sp)
    80002984:	19010313          	addi	t1,sp,400
    80002988:	fa9a4ee3          	blt	s4,s1,80002944 <_vfprintf_r+0x10c4>
    8000298c:	000a8893          	mv	a7,s5
    80002990:	0017069b          	addiw	a3,a4,1
    80002994:	009787b3          	add	a5,a5,s1
    80002998:	01133023          	sd	a7,0(t1)
    8000299c:	00933423          	sd	s1,8(t1)
    800029a0:	12f13023          	sd	a5,288(sp)
    800029a4:	10d12c23          	sw	a3,280(sp)
    800029a8:	00700713          	li	a4,7
    800029ac:	a0d75a63          	bge	a4,a3,80001bc0 <_vfprintf_r+0x340>
    800029b0:	11010613          	addi	a2,sp,272
    800029b4:	000b8593          	mv	a1,s7
    800029b8:	000c0513          	mv	a0,s8
    800029bc:	0e10a0ef          	jal	ra,8000d29c <__sprint_r>
    800029c0:	e00516e3          	bnez	a0,800027cc <_vfprintf_r+0xf4c>
    800029c4:	12013783          	ld	a5,288(sp)
    800029c8:	9f8ff06f          	j	80001bc0 <_vfprintf_r+0x340>
    800029cc:	0e812603          	lw	a2,232(sp)
    800029d0:	5ac05a63          	blez	a2,80002f84 <_vfprintf_r+0x1704>
    800029d4:	01813703          	ld	a4,24(sp)
    800029d8:	02013683          	ld	a3,32(sp)
    800029dc:	00070a1b          	sext.w	s4,a4
    800029e0:	32e6c463          	blt	a3,a4,80002d08 <_vfprintf_r+0x1488>
    800029e4:	03405663          	blez	s4,80002a10 <_vfprintf_r+0x1190>
    800029e8:	11812703          	lw	a4,280(sp)
    800029ec:	014787b3          	add	a5,a5,s4
    800029f0:	01a33023          	sd	s10,0(t1)
    800029f4:	0017069b          	addiw	a3,a4,1
    800029f8:	01433423          	sd	s4,8(t1)
    800029fc:	12f13023          	sd	a5,288(sp)
    80002a00:	10d12c23          	sw	a3,280(sp)
    80002a04:	00700713          	li	a4,7
    80002a08:	01030313          	addi	t1,t1,16
    80002a0c:	26d742e3          	blt	a4,a3,80003470 <_vfprintf_r+0x1bf0>
    80002a10:	fffa4713          	not	a4,s4
    80002a14:	43f75713          	srai	a4,a4,0x3f
    80002a18:	00ea7a33          	and	s4,s4,a4
    80002a1c:	01813703          	ld	a4,24(sp)
    80002a20:	41470a3b          	subw	s4,a4,s4
    80002a24:	43404463          	bgtz	s4,80002e4c <_vfprintf_r+0x15cc>
    80002a28:	01813683          	ld	a3,24(sp)
    80002a2c:	4004f713          	andi	a4,s1,1024
    80002a30:	00dd0ab3          	add	s5,s10,a3
    80002a34:	7e071863          	bnez	a4,80003224 <_vfprintf_r+0x19a4>
    80002a38:	0e812703          	lw	a4,232(sp)
    80002a3c:	02013683          	ld	a3,32(sp)
    80002a40:	00d74663          	blt	a4,a3,80002a4c <_vfprintf_r+0x11cc>
    80002a44:	0014f693          	andi	a3,s1,1
    80002a48:	240688e3          	beqz	a3,80003498 <_vfprintf_r+0x1c18>
    80002a4c:	04013683          	ld	a3,64(sp)
    80002a50:	03813603          	ld	a2,56(sp)
    80002a54:	01030313          	addi	t1,t1,16
    80002a58:	fed33823          	sd	a3,-16(t1)
    80002a5c:	11812683          	lw	a3,280(sp)
    80002a60:	00c787b3          	add	a5,a5,a2
    80002a64:	fec33c23          	sd	a2,-8(t1)
    80002a68:	0016869b          	addiw	a3,a3,1
    80002a6c:	0006861b          	sext.w	a2,a3
    80002a70:	10d12c23          	sw	a3,280(sp)
    80002a74:	12f13023          	sd	a5,288(sp)
    80002a78:	00700693          	li	a3,7
    80002a7c:	6cc6cce3          	blt	a3,a2,80003954 <_vfprintf_r+0x20d4>
    80002a80:	02013683          	ld	a3,32(sp)
    80002a84:	40e6863b          	subw	a2,a3,a4
    80002a88:	00dd06b3          	add	a3,s10,a3
    80002a8c:	415686bb          	subw	a3,a3,s5
    80002a90:	00060713          	mv	a4,a2
    80002a94:	00c6d463          	bge	a3,a2,80002a9c <_vfprintf_r+0x121c>
    80002a98:	00068713          	mv	a4,a3
    80002a9c:	00070a1b          	sext.w	s4,a4
    80002aa0:	03405663          	blez	s4,80002acc <_vfprintf_r+0x124c>
    80002aa4:	11812703          	lw	a4,280(sp)
    80002aa8:	014787b3          	add	a5,a5,s4
    80002aac:	01533023          	sd	s5,0(t1)
    80002ab0:	0017069b          	addiw	a3,a4,1
    80002ab4:	01433423          	sd	s4,8(t1)
    80002ab8:	12f13023          	sd	a5,288(sp)
    80002abc:	10d12c23          	sw	a3,280(sp)
    80002ac0:	00700713          	li	a4,7
    80002ac4:	01030313          	addi	t1,t1,16
    80002ac8:	72d74ce3          	blt	a4,a3,80003a00 <_vfprintf_r+0x2180>
    80002acc:	fffa4713          	not	a4,s4
    80002ad0:	43f75713          	srai	a4,a4,0x3f
    80002ad4:	00ea7a33          	and	s4,s4,a4
    80002ad8:	41460a3b          	subw	s4,a2,s4
    80002adc:	8d405a63          	blez	s4,80001bb0 <_vfprintf_r+0x330>
    80002ae0:	000238b7          	lui	a7,0x23
    80002ae4:	01000693          	li	a3,16
    80002ae8:	11812703          	lw	a4,280(sp)
    80002aec:	08088c93          	addi	s9,a7,128 # 23080 <_start-0x7ffdcf9c>
    80002af0:	01000b13          	li	s6,16
    80002af4:	00700a93          	li	s5,7
    80002af8:	0146c863          	blt	a3,s4,80002b08 <_vfprintf_r+0x1288>
    80002afc:	5580006f          	j	80003054 <_vfprintf_r+0x17d4>
    80002b00:	ff0a0a1b          	addiw	s4,s4,-16
    80002b04:	554b5863          	bge	s6,s4,80003054 <_vfprintf_r+0x17d4>
    80002b08:	0017071b          	addiw	a4,a4,1
    80002b0c:	01078793          	addi	a5,a5,16
    80002b10:	01933023          	sd	s9,0(t1)
    80002b14:	01633423          	sd	s6,8(t1)
    80002b18:	12f13023          	sd	a5,288(sp)
    80002b1c:	10e12c23          	sw	a4,280(sp)
    80002b20:	01030313          	addi	t1,t1,16
    80002b24:	fceadee3          	bge	s5,a4,80002b00 <_vfprintf_r+0x1280>
    80002b28:	11010613          	addi	a2,sp,272
    80002b2c:	000b8593          	mv	a1,s7
    80002b30:	000c0513          	mv	a0,s8
    80002b34:	7680a0ef          	jal	ra,8000d29c <__sprint_r>
    80002b38:	c8051ae3          	bnez	a0,800027cc <_vfprintf_r+0xf4c>
    80002b3c:	12013783          	ld	a5,288(sp)
    80002b40:	11812703          	lw	a4,280(sp)
    80002b44:	19010313          	addi	t1,sp,400
    80002b48:	fb9ff06f          	j	80002b00 <_vfprintf_r+0x1280>
    80002b4c:	0014f513          	andi	a0,s1,1
    80002b50:	c8051063          	bnez	a0,80001fd0 <_vfprintf_r+0x750>
    80002b54:	00c33423          	sd	a2,8(t1)
    80002b58:	13513023          	sd	s5,288(sp)
    80002b5c:	10e12c23          	sw	a4,280(sp)
    80002b60:	00700693          	li	a3,7
    80002b64:	1ce6ca63          	blt	a3,a4,80002d38 <_vfprintf_r+0x14b8>
    80002b68:	0025869b          	addiw	a3,a1,2
    80002b6c:	02030313          	addi	t1,t1,32
    80002b70:	d08ff06f          	j	80002078 <_vfprintf_r+0x7f8>
    80002b74:	d1b05263          	blez	s11,80002078 <_vfprintf_r+0x7f8>
    80002b78:	01000613          	li	a2,16
    80002b7c:	01b64463          	blt	a2,s11,80002b84 <_vfprintf_r+0x1304>
    80002b80:	2680106f          	j	80003de8 <_vfprintf_r+0x2568>
    80002b84:	000238b7          	lui	a7,0x23
    80002b88:	08088c93          	addi	s9,a7,128 # 23080 <_start-0x7ffdcf9c>
    80002b8c:	01000693          	li	a3,16
    80002b90:	00700d13          	li	s10,7
    80002b94:	0100006f          	j	80002ba4 <_vfprintf_r+0x1324>
    80002b98:	ff0d8d9b          	addiw	s11,s11,-16
    80002b9c:	17b6dc63          	bge	a3,s11,80002d14 <_vfprintf_r+0x1494>
    80002ba0:	001b0e1b          	addiw	t3,s6,1
    80002ba4:	010a8a93          	addi	s5,s5,16
    80002ba8:	019a3023          	sd	s9,0(s4)
    80002bac:	00da3423          	sd	a3,8(s4)
    80002bb0:	13513023          	sd	s5,288(sp)
    80002bb4:	000e0b1b          	sext.w	s6,t3
    80002bb8:	11c12c23          	sw	t3,280(sp)
    80002bbc:	010a0a13          	addi	s4,s4,16
    80002bc0:	fd6d5ce3          	bge	s10,s6,80002b98 <_vfprintf_r+0x1318>
    80002bc4:	11010613          	addi	a2,sp,272
    80002bc8:	000b8593          	mv	a1,s7
    80002bcc:	000c0513          	mv	a0,s8
    80002bd0:	6cc0a0ef          	jal	ra,8000d29c <__sprint_r>
    80002bd4:	be051ce3          	bnez	a0,800027cc <_vfprintf_r+0xf4c>
    80002bd8:	12013a83          	ld	s5,288(sp)
    80002bdc:	11812b03          	lw	s6,280(sp)
    80002be0:	19010a13          	addi	s4,sp,400
    80002be4:	01000693          	li	a3,16
    80002be8:	fb1ff06f          	j	80002b98 <_vfprintf_r+0x1318>
    80002bec:	010b7793          	andi	a5,s6,16
    80002bf0:	0c079663          	bnez	a5,80002cbc <_vfprintf_r+0x143c>
    80002bf4:	00813683          	ld	a3,8(sp)
    80002bf8:	040b7793          	andi	a5,s6,64
    80002bfc:	0006a983          	lw	s3,0(a3)
    80002c00:	58078063          	beqz	a5,80003180 <_vfprintf_r+0x1900>
    80002c04:	03099993          	slli	s3,s3,0x30
    80002c08:	0309d993          	srli	s3,s3,0x30
    80002c0c:	00e13423          	sd	a4,8(sp)
    80002c10:	00100793          	li	a5,1
    80002c14:	d94ff06f          	j	800021a8 <_vfprintf_r+0x928>
    80002c18:	0104f793          	andi	a5,s1,16
    80002c1c:	08079a63          	bnez	a5,80002cb0 <_vfprintf_r+0x1430>
    80002c20:	00813683          	ld	a3,8(sp)
    80002c24:	0404f793          	andi	a5,s1,64
    80002c28:	0006a983          	lw	s3,0(a3)
    80002c2c:	56078663          	beqz	a5,80003198 <_vfprintf_r+0x1918>
    80002c30:	03099993          	slli	s3,s3,0x30
    80002c34:	0309d993          	srli	s3,s3,0x30
    80002c38:	d60ff06f          	j	80002198 <_vfprintf_r+0x918>
    80002c3c:	0104f793          	andi	a5,s1,16
    80002c40:	0a079c63          	bnez	a5,80002cf8 <_vfprintf_r+0x1478>
    80002c44:	0404f793          	andi	a5,s1,64
    80002c48:	56078063          	beqz	a5,800031a8 <_vfprintf_r+0x1928>
    80002c4c:	00813783          	ld	a5,8(sp)
    80002c50:	00079983          	lh	s3,0(a5)
    80002c54:	00098793          	mv	a5,s3
    80002c58:	fe07d463          	bgez	a5,80002440 <_vfprintf_r+0xbc0>
    80002c5c:	02d00793          	li	a5,45
    80002c60:	0cf10fa3          	sb	a5,223(sp)
    80002c64:	413009b3          	neg	s3,s3
    80002c68:	00e13423          	sd	a4,8(sp)
    80002c6c:	00048b13          	mv	s6,s1
    80002c70:	00100793          	li	a5,1
    80002c74:	d38ff06f          	j	800021ac <_vfprintf_r+0x92c>
    80002c78:	0014f713          	andi	a4,s1,1
    80002c7c:	00071463          	bnez	a4,80002c84 <_vfprintf_r+0x1404>
    80002c80:	f31fe06f          	j	80001bb0 <_vfprintf_r+0x330>
    80002c84:	90dff06f          	j	80002590 <_vfprintf_r+0xd10>
    80002c88:	000c8313          	mv	t1,s9
    80002c8c:	f98ff06f          	j	80002424 <_vfprintf_r+0xba4>
    80002c90:	03000793          	li	a5,48
    80002c94:	18f105a3          	sb	a5,395(sp)
    80002c98:	18b10d13          	addi	s10,sp,395
    80002c9c:	d38ff06f          	j	800021d4 <_vfprintf_r+0x954>
    80002ca0:	00013783          	ld	a5,0(sp)
    80002ca4:	00040d13          	mv	s10,s0
    80002ca8:	00f73023          	sd	a5,0(a4)
    80002cac:	f51fe06f          	j	80001bfc <_vfprintf_r+0x37c>
    80002cb0:	00813783          	ld	a5,8(sp)
    80002cb4:	0007b983          	ld	s3,0(a5)
    80002cb8:	ce0ff06f          	j	80002198 <_vfprintf_r+0x918>
    80002cbc:	00813783          	ld	a5,8(sp)
    80002cc0:	00e13423          	sd	a4,8(sp)
    80002cc4:	0007b983          	ld	s3,0(a5)
    80002cc8:	00100793          	li	a5,1
    80002ccc:	cdcff06f          	j	800021a8 <_vfprintf_r+0x928>
    80002cd0:	00813783          	ld	a5,8(sp)
    80002cd4:	00f78c93          	addi	s9,a5,15
    80002cd8:	ff0cfc93          	andi	s9,s9,-16
    80002cdc:	000cb703          	ld	a4,0(s9)
    80002ce0:	008cb783          	ld	a5,8(s9)
    80002ce4:	010c8693          	addi	a3,s9,16
    80002ce8:	00d13423          	sd	a3,8(sp)
    80002cec:	10e13023          	sd	a4,256(sp)
    80002cf0:	10f13423          	sd	a5,264(sp)
    80002cf4:	824ff06f          	j	80001d18 <_vfprintf_r+0x498>
    80002cf8:	00813783          	ld	a5,8(sp)
    80002cfc:	0007b783          	ld	a5,0(a5)
    80002d00:	00078993          	mv	s3,a5
    80002d04:	f38ff06f          	j	8000243c <_vfprintf_r+0xbbc>
    80002d08:	00068a1b          	sext.w	s4,a3
    80002d0c:	cd404ee3          	bgtz	s4,800029e8 <_vfprintf_r+0x1168>
    80002d10:	d01ff06f          	j	80002a10 <_vfprintf_r+0x1190>
    80002d14:	001b069b          	addiw	a3,s6,1
    80002d18:	010a0613          	addi	a2,s4,16
    80002d1c:	01ba8ab3          	add	s5,s5,s11
    80002d20:	019a3023          	sd	s9,0(s4)
    80002d24:	01ba3423          	sd	s11,8(s4)
    80002d28:	13513023          	sd	s5,288(sp)
    80002d2c:	10d12c23          	sw	a3,280(sp)
    80002d30:	00700713          	li	a4,7
    80002d34:	6ed75e63          	bge	a4,a3,80003430 <_vfprintf_r+0x1bb0>
    80002d38:	11010613          	addi	a2,sp,272
    80002d3c:	000b8593          	mv	a1,s7
    80002d40:	000c0513          	mv	a0,s8
    80002d44:	5580a0ef          	jal	ra,8000d29c <__sprint_r>
    80002d48:	a80512e3          	bnez	a0,800027cc <_vfprintf_r+0xf4c>
    80002d4c:	11812683          	lw	a3,280(sp)
    80002d50:	12013a83          	ld	s5,288(sp)
    80002d54:	1a010313          	addi	t1,sp,416
    80002d58:	0016869b          	addiw	a3,a3,1
    80002d5c:	19010a13          	addi	s4,sp,400
    80002d60:	b18ff06f          	j	80002078 <_vfprintf_r+0x7f8>
    80002d64:	000237b7          	lui	a5,0x23
    80002d68:	ed878793          	addi	a5,a5,-296 # 22ed8 <_start-0x7ffdd144>
    80002d6c:	000c8313          	mv	t1,s9
    80002d70:	04f13423          	sd	a5,72(sp)
    80002d74:	00813683          	ld	a3,8(sp)
    80002d78:	0204f793          	andi	a5,s1,32
    80002d7c:	00868713          	addi	a4,a3,8
    80002d80:	12078c63          	beqz	a5,80002eb8 <_vfprintf_r+0x1638>
    80002d84:	0006b983          	ld	s3,0(a3)
    80002d88:	0014f793          	andi	a5,s1,1
    80002d8c:	00078e63          	beqz	a5,80002da8 <_vfprintf_r+0x1528>
    80002d90:	00098c63          	beqz	s3,80002da8 <_vfprintf_r+0x1528>
    80002d94:	0024e493          	ori	s1,s1,2
    80002d98:	03000793          	li	a5,48
    80002d9c:	0ef10023          	sb	a5,224(sp)
    80002da0:	0fb100a3          	sb	s11,225(sp)
    80002da4:	0004849b          	sext.w	s1,s1
    80002da8:	bff4f493          	andi	s1,s1,-1025
    80002dac:	00048b1b          	sext.w	s6,s1
    80002db0:	00e13423          	sd	a4,8(sp)
    80002db4:	00200793          	li	a5,2
    80002db8:	bf0ff06f          	j	800021a8 <_vfprintf_r+0x928>
    80002dbc:	000c8313          	mv	t1,s9
    80002dc0:	00048b13          	mv	s6,s1
    80002dc4:	d14ff06f          	j	800022d8 <_vfprintf_r+0xa58>
    80002dc8:	2004e493          	ori	s1,s1,512
    80002dcc:	00144e83          	lbu	t4,1(s0)
    80002dd0:	0004849b          	sext.w	s1,s1
    80002dd4:	00140413          	addi	s0,s0,1
    80002dd8:	c6dfe06f          	j	80001a44 <_vfprintf_r+0x1c4>
    80002ddc:	0204e493          	ori	s1,s1,32
    80002de0:	00144e83          	lbu	t4,1(s0)
    80002de4:	0004849b          	sext.w	s1,s1
    80002de8:	00140413          	addi	s0,s0,1
    80002dec:	c59fe06f          	j	80001a44 <_vfprintf_r+0x1c4>
    80002df0:	000237b7          	lui	a5,0x23
    80002df4:	ec078793          	addi	a5,a5,-320 # 22ec0 <_start-0x7ffdd15c>
    80002df8:	000c8313          	mv	t1,s9
    80002dfc:	04f13423          	sd	a5,72(sp)
    80002e00:	f75ff06f          	j	80002d74 <_vfprintf_r+0x14f4>
    80002e04:	000c8313          	mv	t1,s9
    80002e08:	b7cff06f          	j	80002184 <_vfprintf_r+0x904>
    80002e0c:	11010613          	addi	a2,sp,272
    80002e10:	000b8593          	mv	a1,s7
    80002e14:	000c0513          	mv	a0,s8
    80002e18:	4840a0ef          	jal	ra,8000d29c <__sprint_r>
    80002e1c:	9a0518e3          	bnez	a0,800027cc <_vfprintf_r+0xf4c>
    80002e20:	12013783          	ld	a5,288(sp)
    80002e24:	19010313          	addi	t1,sp,400
    80002e28:	f9cff06f          	j	800025c4 <_vfprintf_r+0xd44>
    80002e2c:	00600793          	li	a5,6
    80002e30:	000a8a1b          	sext.w	s4,s5
    80002e34:	6557ee63          	bltu	a5,s5,80003490 <_vfprintf_r+0x1c10>
    80002e38:	00023837          	lui	a6,0x23
    80002e3c:	000a0993          	mv	s3,s4
    80002e40:	01913423          	sd	s9,8(sp)
    80002e44:	ef080d13          	addi	s10,a6,-272 # 22ef0 <_start-0x7ffdd12c>
    80002e48:	c7dfe06f          	j	80001ac4 <_vfprintf_r+0x244>
    80002e4c:	000238b7          	lui	a7,0x23
    80002e50:	01000693          	li	a3,16
    80002e54:	11812703          	lw	a4,280(sp)
    80002e58:	08088c93          	addi	s9,a7,128 # 23080 <_start-0x7ffdcf9c>
    80002e5c:	01000d93          	li	s11,16
    80002e60:	00700a93          	li	s5,7
    80002e64:	0146c863          	blt	a3,s4,80002e74 <_vfprintf_r+0x15f4>
    80002e68:	3780006f          	j	800031e0 <_vfprintf_r+0x1960>
    80002e6c:	ff0a0a1b          	addiw	s4,s4,-16
    80002e70:	374dd863          	bge	s11,s4,800031e0 <_vfprintf_r+0x1960>
    80002e74:	0017071b          	addiw	a4,a4,1
    80002e78:	01078793          	addi	a5,a5,16
    80002e7c:	01933023          	sd	s9,0(t1)
    80002e80:	01b33423          	sd	s11,8(t1)
    80002e84:	12f13023          	sd	a5,288(sp)
    80002e88:	10e12c23          	sw	a4,280(sp)
    80002e8c:	01030313          	addi	t1,t1,16
    80002e90:	fceadee3          	bge	s5,a4,80002e6c <_vfprintf_r+0x15ec>
    80002e94:	11010613          	addi	a2,sp,272
    80002e98:	000b8593          	mv	a1,s7
    80002e9c:	000c0513          	mv	a0,s8
    80002ea0:	3fc0a0ef          	jal	ra,8000d29c <__sprint_r>
    80002ea4:	920514e3          	bnez	a0,800027cc <_vfprintf_r+0xf4c>
    80002ea8:	12013783          	ld	a5,288(sp)
    80002eac:	11812703          	lw	a4,280(sp)
    80002eb0:	19010313          	addi	t1,sp,400
    80002eb4:	fb9ff06f          	j	80002e6c <_vfprintf_r+0x15ec>
    80002eb8:	0104f793          	andi	a5,s1,16
    80002ebc:	14078e63          	beqz	a5,80003018 <_vfprintf_r+0x1798>
    80002ec0:	00813783          	ld	a5,8(sp)
    80002ec4:	0007b983          	ld	s3,0(a5)
    80002ec8:	ec1ff06f          	j	80002d88 <_vfprintf_r+0x1508>
    80002ecc:	11010613          	addi	a2,sp,272
    80002ed0:	000b8593          	mv	a1,s7
    80002ed4:	000c0513          	mv	a0,s8
    80002ed8:	3c40a0ef          	jal	ra,8000d29c <__sprint_r>
    80002edc:	8e0518e3          	bnez	a0,800027cc <_vfprintf_r+0xf4c>
    80002ee0:	12013a83          	ld	s5,288(sp)
    80002ee4:	11812703          	lw	a4,280(sp)
    80002ee8:	19010a13          	addi	s4,sp,400
    80002eec:	8fcff06f          	j	80001fe8 <_vfprintf_r+0x768>
    80002ef0:	11010613          	addi	a2,sp,272
    80002ef4:	000b8593          	mv	a1,s7
    80002ef8:	000c0513          	mv	a0,s8
    80002efc:	3a00a0ef          	jal	ra,8000d29c <__sprint_r>
    80002f00:	8c0516e3          	bnez	a0,800027cc <_vfprintf_r+0xf4c>
    80002f04:	12013a83          	ld	s5,288(sp)
    80002f08:	11812b03          	lw	s6,280(sp)
    80002f0c:	19010a13          	addi	s4,sp,400
    80002f10:	904ff06f          	j	80002014 <_vfprintf_r+0x794>
    80002f14:	18c10a13          	addi	s4,sp,396
    80002f18:	06013803          	ld	a6,96(sp)
    80002f1c:	400b7693          	andi	a3,s6,1024
    80002f20:	00000593          	li	a1,0
    80002f24:	000a0613          	mv	a2,s4
    80002f28:	00a00493          	li	s1,10
    80002f2c:	00900713          	li	a4,9
    80002f30:	0ff00c93          	li	s9,255
    80002f34:	0140006f          	j	80002f48 <_vfprintf_r+0x16c8>
    80002f38:	0299d7b3          	divu	a5,s3,s1
    80002f3c:	03377a63          	bgeu	a4,s3,80002f70 <_vfprintf_r+0x16f0>
    80002f40:	00078993          	mv	s3,a5
    80002f44:	000d0613          	mv	a2,s10
    80002f48:	fff60d13          	addi	s10,a2,-1
    80002f4c:	0015859b          	addiw	a1,a1,1
    80002f50:	0299f7b3          	remu	a5,s3,s1
    80002f54:	0307879b          	addiw	a5,a5,48
    80002f58:	fef60fa3          	sb	a5,-1(a2)
    80002f5c:	fc068ee3          	beqz	a3,80002f38 <_vfprintf_r+0x16b8>
    80002f60:	00084783          	lbu	a5,0(a6)
    80002f64:	fcf59ae3          	bne	a1,a5,80002f38 <_vfprintf_r+0x16b8>
    80002f68:	fd9788e3          	beq	a5,s9,80002f38 <_vfprintf_r+0x16b8>
    80002f6c:	47376c63          	bltu	a4,s3,800033e4 <_vfprintf_r+0x1b64>
    80002f70:	07013023          	sd	a6,96(sp)
    80002f74:	02b13023          	sd	a1,32(sp)
    80002f78:	41aa0a3b          	subw	s4,s4,s10
    80002f7c:	000b0493          	mv	s1,s6
    80002f80:	a54ff06f          	j	800021d4 <_vfprintf_r+0x954>
    80002f84:	11812703          	lw	a4,280(sp)
    80002f88:	000236b7          	lui	a3,0x23
    80002f8c:	ef868693          	addi	a3,a3,-264 # 22ef8 <_start-0x7ffdd124>
    80002f90:	0017071b          	addiw	a4,a4,1
    80002f94:	00d33023          	sd	a3,0(t1)
    80002f98:	00178793          	addi	a5,a5,1
    80002f9c:	00100693          	li	a3,1
    80002fa0:	00d33423          	sd	a3,8(t1)
    80002fa4:	10e12c23          	sw	a4,280(sp)
    80002fa8:	0007069b          	sext.w	a3,a4
    80002fac:	12f13023          	sd	a5,288(sp)
    80002fb0:	00700713          	li	a4,7
    80002fb4:	01030313          	addi	t1,t1,16
    80002fb8:	48d74463          	blt	a4,a3,80003440 <_vfprintf_r+0x1bc0>
    80002fbc:	10061463          	bnez	a2,800030c4 <_vfprintf_r+0x1844>
    80002fc0:	02013683          	ld	a3,32(sp)
    80002fc4:	0014f713          	andi	a4,s1,1
    80002fc8:	00e6e733          	or	a4,a3,a4
    80002fcc:	00071463          	bnez	a4,80002fd4 <_vfprintf_r+0x1754>
    80002fd0:	be1fe06f          	j	80001bb0 <_vfprintf_r+0x330>
    80002fd4:	04013703          	ld	a4,64(sp)
    80002fd8:	03813683          	ld	a3,56(sp)
    80002fdc:	00e33023          	sd	a4,0(t1)
    80002fe0:	11812703          	lw	a4,280(sp)
    80002fe4:	00f687b3          	add	a5,a3,a5
    80002fe8:	00d33423          	sd	a3,8(t1)
    80002fec:	0017071b          	addiw	a4,a4,1
    80002ff0:	0007069b          	sext.w	a3,a4
    80002ff4:	10e12c23          	sw	a4,280(sp)
    80002ff8:	12f13023          	sd	a5,288(sp)
    80002ffc:	00700713          	li	a4,7
    80003000:	52d74263          	blt	a4,a3,80003524 <_vfprintf_r+0x1ca4>
    80003004:	01030313          	addi	t1,t1,16
    80003008:	0f40006f          	j	800030fc <_vfprintf_r+0x187c>
    8000300c:	00040c13          	mv	s8,s0
    80003010:	00048b93          	mv	s7,s1
    80003014:	fb8ff06f          	j	800027cc <_vfprintf_r+0xf4c>
    80003018:	00813683          	ld	a3,8(sp)
    8000301c:	0404f793          	andi	a5,s1,64
    80003020:	0006a983          	lw	s3,0(a3)
    80003024:	14078663          	beqz	a5,80003170 <_vfprintf_r+0x18f0>
    80003028:	03099993          	slli	s3,s3,0x30
    8000302c:	0309d993          	srli	s3,s3,0x30
    80003030:	d59ff06f          	j	80002d88 <_vfprintf_r+0x1508>
    80003034:	11010613          	addi	a2,sp,272
    80003038:	000b8593          	mv	a1,s7
    8000303c:	000c0513          	mv	a0,s8
    80003040:	25c0a0ef          	jal	ra,8000d29c <__sprint_r>
    80003044:	f8051463          	bnez	a0,800027cc <_vfprintf_r+0xf4c>
    80003048:	12013783          	ld	a5,288(sp)
    8000304c:	19010313          	addi	t1,sp,400
    80003050:	d34ff06f          	j	80002584 <_vfprintf_r+0xd04>
    80003054:	0017069b          	addiw	a3,a4,1
    80003058:	00068713          	mv	a4,a3
    8000305c:	014787b3          	add	a5,a5,s4
    80003060:	01933023          	sd	s9,0(t1)
    80003064:	b35fe06f          	j	80001b98 <_vfprintf_r+0x318>
    80003068:	10013503          	ld	a0,256(sp)
    8000306c:	10813583          	ld	a1,264(sp)
    80003070:	00000613          	li	a2,0
    80003074:	00000693          	li	a3,0
    80003078:	4200e0ef          	jal	ra,80011498 <__letf2>
    8000307c:	01013303          	ld	t1,16(sp)
    80003080:	0e054ee3          	bltz	a0,8000397c <_vfprintf_r+0x20fc>
    80003084:	0df14783          	lbu	a5,223(sp)
    80003088:	04700713          	li	a4,71
    8000308c:	3db74c63          	blt	a4,s11,80003464 <_vfprintf_r+0x1be4>
    80003090:	00023837          	lui	a6,0x23
    80003094:	ea080d13          	addi	s10,a6,-352 # 22ea0 <_start-0x7ffdd17c>
    80003098:	f7f4f493          	andi	s1,s1,-129
    8000309c:	00013823          	sd	zero,16(sp)
    800030a0:	02013823          	sd	zero,48(sp)
    800030a4:	02013423          	sd	zero,40(sp)
    800030a8:	00013c23          	sd	zero,24(sp)
    800030ac:	0004849b          	sext.w	s1,s1
    800030b0:	00300993          	li	s3,3
    800030b4:	00300a13          	li	s4,3
    800030b8:	00000a93          	li	s5,0
    800030bc:	8a079a63          	bnez	a5,80002170 <_vfprintf_r+0x8f0>
    800030c0:	a19fe06f          	j	80001ad8 <_vfprintf_r+0x258>
    800030c4:	04013703          	ld	a4,64(sp)
    800030c8:	03813683          	ld	a3,56(sp)
    800030cc:	01030313          	addi	t1,t1,16
    800030d0:	fee33823          	sd	a4,-16(t1)
    800030d4:	11812703          	lw	a4,280(sp)
    800030d8:	00f687b3          	add	a5,a3,a5
    800030dc:	fed33c23          	sd	a3,-8(t1)
    800030e0:	0017071b          	addiw	a4,a4,1
    800030e4:	0007069b          	sext.w	a3,a4
    800030e8:	10e12c23          	sw	a4,280(sp)
    800030ec:	12f13023          	sd	a5,288(sp)
    800030f0:	00700713          	li	a4,7
    800030f4:	42d74863          	blt	a4,a3,80003524 <_vfprintf_r+0x1ca4>
    800030f8:	16064ee3          	bltz	a2,80003a74 <_vfprintf_r+0x21f4>
    800030fc:	02013703          	ld	a4,32(sp)
    80003100:	0016861b          	addiw	a2,a3,1
    80003104:	01a33023          	sd	s10,0(t1)
    80003108:	00f707b3          	add	a5,a4,a5
    8000310c:	00e33423          	sd	a4,8(t1)
    80003110:	12f13023          	sd	a5,288(sp)
    80003114:	10c12c23          	sw	a2,280(sp)
    80003118:	00700713          	li	a4,7
    8000311c:	00c74463          	blt	a4,a2,80003124 <_vfprintf_r+0x18a4>
    80003120:	a8dfe06f          	j	80001bac <_vfprintf_r+0x32c>
    80003124:	f79fe06f          	j	8000209c <_vfprintf_r+0x81c>
    80003128:	000d0513          	mv	a0,s10
    8000312c:	06613423          	sd	t1,104(sp)
    80003130:	e5cfe0ef          	jal	ra,8000178c <strlen>
    80003134:	00050a1b          	sext.w	s4,a0
    80003138:	0df14783          	lbu	a5,223(sp)
    8000313c:	fffa4993          	not	s3,s4
    80003140:	43f9d993          	srai	s3,s3,0x3f
    80003144:	01913423          	sd	s9,8(sp)
    80003148:	00013823          	sd	zero,16(sp)
    8000314c:	02013823          	sd	zero,48(sp)
    80003150:	02013423          	sd	zero,40(sp)
    80003154:	00013c23          	sd	zero,24(sp)
    80003158:	06813303          	ld	t1,104(sp)
    8000315c:	0149f9b3          	and	s3,s3,s4
    80003160:	00000a93          	li	s5,0
    80003164:	00078463          	beqz	a5,8000316c <_vfprintf_r+0x18ec>
    80003168:	808ff06f          	j	80002170 <_vfprintf_r+0x8f0>
    8000316c:	96dfe06f          	j	80001ad8 <_vfprintf_r+0x258>
    80003170:	2004f793          	andi	a5,s1,512
    80003174:	38078263          	beqz	a5,800034f8 <_vfprintf_r+0x1c78>
    80003178:	0ff9f993          	andi	s3,s3,255
    8000317c:	c0dff06f          	j	80002d88 <_vfprintf_r+0x1508>
    80003180:	200b7793          	andi	a5,s6,512
    80003184:	36078063          	beqz	a5,800034e4 <_vfprintf_r+0x1c64>
    80003188:	0ff9f993          	andi	s3,s3,255
    8000318c:	00e13423          	sd	a4,8(sp)
    80003190:	00100793          	li	a5,1
    80003194:	814ff06f          	j	800021a8 <_vfprintf_r+0x928>
    80003198:	2004f793          	andi	a5,s1,512
    8000319c:	32078e63          	beqz	a5,800034d8 <_vfprintf_r+0x1c58>
    800031a0:	0ff9f993          	andi	s3,s3,255
    800031a4:	ff5fe06f          	j	80002198 <_vfprintf_r+0x918>
    800031a8:	2004f793          	andi	a5,s1,512
    800031ac:	30078e63          	beqz	a5,800034c8 <_vfprintf_r+0x1c48>
    800031b0:	00813783          	ld	a5,8(sp)
    800031b4:	00078983          	lb	s3,0(a5)
    800031b8:	00098793          	mv	a5,s3
    800031bc:	a80ff06f          	j	8000243c <_vfprintf_r+0xbbc>
    800031c0:	10813783          	ld	a5,264(sp)
    800031c4:	3407c063          	bltz	a5,80003504 <_vfprintf_r+0x1c84>
    800031c8:	0df14783          	lbu	a5,223(sp)
    800031cc:	04700713          	li	a4,71
    800031d0:	7fb75263          	bge	a4,s11,800039b4 <_vfprintf_r+0x2134>
    800031d4:	00023837          	lui	a6,0x23
    800031d8:	eb880d13          	addi	s10,a6,-328 # 22eb8 <_start-0x7ffdd164>
    800031dc:	ebdff06f          	j	80003098 <_vfprintf_r+0x1818>
    800031e0:	0017069b          	addiw	a3,a4,1
    800031e4:	014787b3          	add	a5,a5,s4
    800031e8:	01933023          	sd	s9,0(t1)
    800031ec:	01433423          	sd	s4,8(t1)
    800031f0:	12f13023          	sd	a5,288(sp)
    800031f4:	10d12c23          	sw	a3,280(sp)
    800031f8:	00700713          	li	a4,7
    800031fc:	01030313          	addi	t1,t1,16
    80003200:	82d754e3          	bge	a4,a3,80002a28 <_vfprintf_r+0x11a8>
    80003204:	11010613          	addi	a2,sp,272
    80003208:	000b8593          	mv	a1,s7
    8000320c:	000c0513          	mv	a0,s8
    80003210:	08c0a0ef          	jal	ra,8000d29c <__sprint_r>
    80003214:	da051c63          	bnez	a0,800027cc <_vfprintf_r+0xf4c>
    80003218:	12013783          	ld	a5,288(sp)
    8000321c:	19010313          	addi	t1,sp,400
    80003220:	809ff06f          	j	80002a28 <_vfprintf_r+0x11a8>
    80003224:	02013703          	ld	a4,32(sp)
    80003228:	06913423          	sd	s1,104(sp)
    8000322c:	03013483          	ld	s1,48(sp)
    80003230:	03313823          	sd	s3,48(sp)
    80003234:	02813983          	ld	s3,40(sp)
    80003238:	00ed0733          	add	a4,s10,a4
    8000323c:	00023eb7          	lui	t4,0x23
    80003240:	00813c23          	sd	s0,24(sp)
    80003244:	07213823          	sd	s2,112(sp)
    80003248:	03a13423          	sd	s10,40(sp)
    8000324c:	06013403          	ld	s0,96(sp)
    80003250:	000b8d13          	mv	s10,s7
    80003254:	07813903          	ld	s2,120(sp)
    80003258:	00700a13          	li	s4,7
    8000325c:	01000d93          	li	s11,16
    80003260:	080e8c93          	addi	s9,t4,128 # 23080 <_start-0x7ffdcf9c>
    80003264:	00070b93          	mv	s7,a4
    80003268:	0a098063          	beqz	s3,80003308 <_vfprintf_r+0x1a88>
    8000326c:	0a049063          	bnez	s1,8000330c <_vfprintf_r+0x1a8c>
    80003270:	fff40413          	addi	s0,s0,-1
    80003274:	fff9899b          	addiw	s3,s3,-1
    80003278:	05813703          	ld	a4,88(sp)
    8000327c:	012787b3          	add	a5,a5,s2
    80003280:	01233423          	sd	s2,8(t1)
    80003284:	00e33023          	sd	a4,0(t1)
    80003288:	11812703          	lw	a4,280(sp)
    8000328c:	12f13023          	sd	a5,288(sp)
    80003290:	01030313          	addi	t1,t1,16
    80003294:	0017069b          	addiw	a3,a4,1
    80003298:	10d12c23          	sw	a3,280(sp)
    8000329c:	10da4063          	blt	s4,a3,8000339c <_vfprintf_r+0x1b1c>
    800032a0:	00044603          	lbu	a2,0(s0)
    800032a4:	415b853b          	subw	a0,s7,s5
    800032a8:	0006071b          	sext.w	a4,a2
    800032ac:	00070693          	mv	a3,a4
    800032b0:	00e55463          	bge	a0,a4,800032b8 <_vfprintf_r+0x1a38>
    800032b4:	00050693          	mv	a3,a0
    800032b8:	00068b1b          	sext.w	s6,a3
    800032bc:	03605863          	blez	s6,800032ec <_vfprintf_r+0x1a6c>
    800032c0:	11812703          	lw	a4,280(sp)
    800032c4:	016787b3          	add	a5,a5,s6
    800032c8:	01533023          	sd	s5,0(t1)
    800032cc:	0017061b          	addiw	a2,a4,1
    800032d0:	01633423          	sd	s6,8(t1)
    800032d4:	12f13023          	sd	a5,288(sp)
    800032d8:	10c12c23          	sw	a2,280(sp)
    800032dc:	0eca4063          	blt	s4,a2,800033bc <_vfprintf_r+0x1b3c>
    800032e0:	00044603          	lbu	a2,0(s0)
    800032e4:	01030313          	addi	t1,t1,16
    800032e8:	0006071b          	sext.w	a4,a2
    800032ec:	fffb4513          	not	a0,s6
    800032f0:	43f55513          	srai	a0,a0,0x3f
    800032f4:	00ab76b3          	and	a3,s6,a0
    800032f8:	40d70b3b          	subw	s6,a4,a3
    800032fc:	01604c63          	bgtz	s6,80003314 <_vfprintf_r+0x1a94>
    80003300:	00ca8ab3          	add	s5,s5,a2
    80003304:	f60994e3          	bnez	s3,8000326c <_vfprintf_r+0x19ec>
    80003308:	46048c63          	beqz	s1,80003780 <_vfprintf_r+0x1f00>
    8000330c:	fff4849b          	addiw	s1,s1,-1
    80003310:	f69ff06f          	j	80003278 <_vfprintf_r+0x19f8>
    80003314:	11812683          	lw	a3,280(sp)
    80003318:	016dc863          	blt	s11,s6,80003328 <_vfprintf_r+0x1aa8>
    8000331c:	0540006f          	j	80003370 <_vfprintf_r+0x1af0>
    80003320:	ff0b0b1b          	addiw	s6,s6,-16
    80003324:	056dd663          	bge	s11,s6,80003370 <_vfprintf_r+0x1af0>
    80003328:	0016869b          	addiw	a3,a3,1
    8000332c:	01078793          	addi	a5,a5,16
    80003330:	01933023          	sd	s9,0(t1)
    80003334:	01b33423          	sd	s11,8(t1)
    80003338:	12f13023          	sd	a5,288(sp)
    8000333c:	10d12c23          	sw	a3,280(sp)
    80003340:	01030313          	addi	t1,t1,16
    80003344:	fcda5ee3          	bge	s4,a3,80003320 <_vfprintf_r+0x1aa0>
    80003348:	11010613          	addi	a2,sp,272
    8000334c:	000d0593          	mv	a1,s10
    80003350:	000c0513          	mv	a0,s8
    80003354:	749090ef          	jal	ra,8000d29c <__sprint_r>
    80003358:	4e051263          	bnez	a0,8000383c <_vfprintf_r+0x1fbc>
    8000335c:	ff0b0b1b          	addiw	s6,s6,-16
    80003360:	12013783          	ld	a5,288(sp)
    80003364:	11812683          	lw	a3,280(sp)
    80003368:	19010313          	addi	t1,sp,400
    8000336c:	fb6dcee3          	blt	s11,s6,80003328 <_vfprintf_r+0x1aa8>
    80003370:	0016871b          	addiw	a4,a3,1
    80003374:	016787b3          	add	a5,a5,s6
    80003378:	01933023          	sd	s9,0(t1)
    8000337c:	01633423          	sd	s6,8(t1)
    80003380:	12f13023          	sd	a5,288(sp)
    80003384:	10e12c23          	sw	a4,280(sp)
    80003388:	4cea4e63          	blt	s4,a4,80003864 <_vfprintf_r+0x1fe4>
    8000338c:	00044603          	lbu	a2,0(s0)
    80003390:	01030313          	addi	t1,t1,16
    80003394:	00ca8ab3          	add	s5,s5,a2
    80003398:	f6dff06f          	j	80003304 <_vfprintf_r+0x1a84>
    8000339c:	11010613          	addi	a2,sp,272
    800033a0:	000d0593          	mv	a1,s10
    800033a4:	000c0513          	mv	a0,s8
    800033a8:	6f5090ef          	jal	ra,8000d29c <__sprint_r>
    800033ac:	48051863          	bnez	a0,8000383c <_vfprintf_r+0x1fbc>
    800033b0:	12013783          	ld	a5,288(sp)
    800033b4:	19010313          	addi	t1,sp,400
    800033b8:	ee9ff06f          	j	800032a0 <_vfprintf_r+0x1a20>
    800033bc:	11010613          	addi	a2,sp,272
    800033c0:	000d0593          	mv	a1,s10
    800033c4:	000c0513          	mv	a0,s8
    800033c8:	6d5090ef          	jal	ra,8000d29c <__sprint_r>
    800033cc:	46051863          	bnez	a0,8000383c <_vfprintf_r+0x1fbc>
    800033d0:	00044603          	lbu	a2,0(s0)
    800033d4:	12013783          	ld	a5,288(sp)
    800033d8:	19010313          	addi	t1,sp,400
    800033dc:	0006071b          	sext.w	a4,a2
    800033e0:	f0dff06f          	j	800032ec <_vfprintf_r+0x1a6c>
    800033e4:	07813783          	ld	a5,120(sp)
    800033e8:	05813583          	ld	a1,88(sp)
    800033ec:	02613023          	sd	t1,32(sp)
    800033f0:	40fd0d33          	sub	s10,s10,a5
    800033f4:	00078613          	mv	a2,a5
    800033f8:	000d0513          	mv	a0,s10
    800033fc:	00d13c23          	sd	a3,24(sp)
    80003400:	01013823          	sd	a6,16(sp)
    80003404:	774070ef          	jal	ra,8000ab78 <strncpy>
    80003408:	01013803          	ld	a6,16(sp)
    8000340c:	0299d7b3          	divu	a5,s3,s1
    80003410:	01813683          	ld	a3,24(sp)
    80003414:	00184603          	lbu	a2,1(a6)
    80003418:	02013303          	ld	t1,32(sp)
    8000341c:	00000593          	li	a1,0
    80003420:	00c03633          	snez	a2,a2
    80003424:	00c80833          	add	a6,a6,a2
    80003428:	00900713          	li	a4,9
    8000342c:	b15ff06f          	j	80002f40 <_vfprintf_r+0x16c0>
    80003430:	0016869b          	addiw	a3,a3,1
    80003434:	01060313          	addi	t1,a2,16
    80003438:	00060a13          	mv	s4,a2
    8000343c:	c3dfe06f          	j	80002078 <_vfprintf_r+0x7f8>
    80003440:	11010613          	addi	a2,sp,272
    80003444:	000b8593          	mv	a1,s7
    80003448:	000c0513          	mv	a0,s8
    8000344c:	651090ef          	jal	ra,8000d29c <__sprint_r>
    80003450:	b6051e63          	bnez	a0,800027cc <_vfprintf_r+0xf4c>
    80003454:	0e812603          	lw	a2,232(sp)
    80003458:	12013783          	ld	a5,288(sp)
    8000345c:	19010313          	addi	t1,sp,400
    80003460:	b5dff06f          	j	80002fbc <_vfprintf_r+0x173c>
    80003464:	00023837          	lui	a6,0x23
    80003468:	ea880d13          	addi	s10,a6,-344 # 22ea8 <_start-0x7ffdd174>
    8000346c:	c2dff06f          	j	80003098 <_vfprintf_r+0x1818>
    80003470:	11010613          	addi	a2,sp,272
    80003474:	000b8593          	mv	a1,s7
    80003478:	000c0513          	mv	a0,s8
    8000347c:	621090ef          	jal	ra,8000d29c <__sprint_r>
    80003480:	b4051663          	bnez	a0,800027cc <_vfprintf_r+0xf4c>
    80003484:	12013783          	ld	a5,288(sp)
    80003488:	19010313          	addi	t1,sp,400
    8000348c:	d84ff06f          	j	80002a10 <_vfprintf_r+0x1190>
    80003490:	00600a13          	li	s4,6
    80003494:	9a5ff06f          	j	80002e38 <_vfprintf_r+0x15b8>
    80003498:	02013683          	ld	a3,32(sp)
    8000349c:	00dd0833          	add	a6,s10,a3
    800034a0:	40e6863b          	subw	a2,a3,a4
    800034a4:	41580f3b          	subw	t5,a6,s5
    800034a8:	00060a13          	mv	s4,a2
    800034ac:	e2cf5063          	bge	t5,a2,80002acc <_vfprintf_r+0x124c>
    800034b0:	000f0a1b          	sext.w	s4,t5
    800034b4:	e18ff06f          	j	80002acc <_vfprintf_r+0x124c>
    800034b8:	00013783          	ld	a5,0(sp)
    800034bc:	00040d13          	mv	s10,s0
    800034c0:	00f71023          	sh	a5,0(a4)
    800034c4:	f38fe06f          	j	80001bfc <_vfprintf_r+0x37c>
    800034c8:	00813783          	ld	a5,8(sp)
    800034cc:	0007a983          	lw	s3,0(a5)
    800034d0:	00098793          	mv	a5,s3
    800034d4:	f69fe06f          	j	8000243c <_vfprintf_r+0xbbc>
    800034d8:	02099993          	slli	s3,s3,0x20
    800034dc:	0209d993          	srli	s3,s3,0x20
    800034e0:	cb9fe06f          	j	80002198 <_vfprintf_r+0x918>
    800034e4:	02099993          	slli	s3,s3,0x20
    800034e8:	0209d993          	srli	s3,s3,0x20
    800034ec:	00e13423          	sd	a4,8(sp)
    800034f0:	00100793          	li	a5,1
    800034f4:	cb5fe06f          	j	800021a8 <_vfprintf_r+0x928>
    800034f8:	02099993          	slli	s3,s3,0x20
    800034fc:	0209d993          	srli	s3,s3,0x20
    80003500:	889ff06f          	j	80002d88 <_vfprintf_r+0x1508>
    80003504:	02d00793          	li	a5,45
    80003508:	0cf10fa3          	sb	a5,223(sp)
    8000350c:	cc1ff06f          	j	800031cc <_vfprintf_r+0x194c>
    80003510:	11010613          	addi	a2,sp,272
    80003514:	000b8593          	mv	a1,s7
    80003518:	000c0513          	mv	a0,s8
    8000351c:	581090ef          	jal	ra,8000d29c <__sprint_r>
    80003520:	ef0fe06f          	j	80001c10 <_vfprintf_r+0x390>
    80003524:	11010613          	addi	a2,sp,272
    80003528:	000b8593          	mv	a1,s7
    8000352c:	000c0513          	mv	a0,s8
    80003530:	56d090ef          	jal	ra,8000d29c <__sprint_r>
    80003534:	a8051c63          	bnez	a0,800027cc <_vfprintf_r+0xf4c>
    80003538:	0e812603          	lw	a2,232(sp)
    8000353c:	12013783          	ld	a5,288(sp)
    80003540:	11812683          	lw	a3,280(sp)
    80003544:	19010313          	addi	t1,sp,400
    80003548:	bb1ff06f          	j	800030f8 <_vfprintf_r+0x1878>
    8000354c:	03000793          	li	a5,48
    80003550:	0ef10023          	sb	a5,224(sp)
    80003554:	05800713          	li	a4,88
    80003558:	0024e793          	ori	a5,s1,2
    8000355c:	0007879b          	sext.w	a5,a5
    80003560:	0ee100a3          	sb	a4,225(sp)
    80003564:	02f13823          	sd	a5,48(sp)
    80003568:	06300713          	li	a4,99
    8000356c:	00013823          	sd	zero,16(sp)
    80003570:	12810d13          	addi	s10,sp,296
    80003574:	61574863          	blt	a4,s5,80003b84 <_vfprintf_r+0x2304>
    80003578:	10813a03          	ld	s4,264(sp)
    8000357c:	fdfdf793          	andi	a5,s11,-33
    80003580:	1024e493          	ori	s1,s1,258
    80003584:	02f13423          	sd	a5,40(sp)
    80003588:	06013423          	sd	zero,104(sp)
    8000358c:	10013b03          	ld	s6,256(sp)
    80003590:	0004849b          	sext.w	s1,s1
    80003594:	2a0a4c63          	bltz	s4,8000384c <_vfprintf_r+0x1fcc>
    80003598:	06100793          	li	a5,97
    8000359c:	6efd8c63          	beq	s11,a5,80003c94 <_vfprintf_r+0x2414>
    800035a0:	04100793          	li	a5,65
    800035a4:	00fd8463          	beq	s11,a5,800035ac <_vfprintf_r+0x1d2c>
    800035a8:	ffcfe06f          	j	80001da4 <_vfprintf_r+0x524>
    800035ac:	000a0593          	mv	a1,s4
    800035b0:	000b0513          	mv	a0,s6
    800035b4:	02613023          	sd	t1,32(sp)
    800035b8:	7f50e0ef          	jal	ra,800125ac <__trunctfdf2>
    800035bc:	0e810593          	addi	a1,sp,232
    800035c0:	1dc070ef          	jal	ra,8000a79c <frexp>
    800035c4:	6f90e0ef          	jal	ra,800124bc <__extenddftf2>
    800035c8:	08813683          	ld	a3,136(sp)
    800035cc:	00000613          	li	a2,0
    800035d0:	7a90d0ef          	jal	ra,80011578 <__multf3>
    800035d4:	00000613          	li	a2,0
    800035d8:	00000693          	li	a3,0
    800035dc:	00050a13          	mv	s4,a0
    800035e0:	00b13c23          	sd	a1,24(sp)
    800035e4:	5490d0ef          	jal	ra,8001132c <__eqtf2>
    800035e8:	01813f03          	ld	t5,24(sp)
    800035ec:	02013303          	ld	t1,32(sp)
    800035f0:	00051663          	bnez	a0,800035fc <_vfprintf_r+0x1d7c>
    800035f4:	00100793          	li	a5,1
    800035f8:	0ef12423          	sw	a5,232(sp)
    800035fc:	000237b7          	lui	a5,0x23
    80003600:	ec078793          	addi	a5,a5,-320 # 22ec0 <_start-0x7ffdd15c>
    80003604:	00f13c23          	sd	a5,24(sp)
    80003608:	020a9793          	slli	a5,s5,0x20
    8000360c:	0207d793          	srli	a5,a5,0x20
    80003610:	00178793          	addi	a5,a5,1
    80003614:	015d073b          	addw	a4,s10,s5
    80003618:	00fd07b3          	add	a5,s10,a5
    8000361c:	07b13823          	sd	s11,112(sp)
    80003620:	08813c23          	sd	s0,152(sp)
    80003624:	0a913023          	sd	s1,160(sp)
    80003628:	0b513823          	sd	s5,176(sp)
    8000362c:	01813403          	ld	s0,24(sp)
    80003630:	000a0a93          	mv	s5,s4
    80003634:	00078d93          	mv	s11,a5
    80003638:	0b213423          	sd	s2,168(sp)
    8000363c:	0a613c23          	sd	t1,184(sp)
    80003640:	0d813023          	sd	s8,192(sp)
    80003644:	0d713423          	sd	s7,200(sp)
    80003648:	000d0a13          	mv	s4,s10
    8000364c:	000f0b13          	mv	s6,t5
    80003650:	00070493          	mv	s1,a4
    80003654:	0140006f          	j	80003668 <_vfprintf_r+0x1de8>
    80003658:	00000613          	li	a2,0
    8000365c:	00000693          	li	a3,0
    80003660:	4cd0d0ef          	jal	ra,8001132c <__eqtf2>
    80003664:	5c050463          	beqz	a0,80003c2c <_vfprintf_r+0x23ac>
    80003668:	08013683          	ld	a3,128(sp)
    8000366c:	00000613          	li	a2,0
    80003670:	000a8513          	mv	a0,s5
    80003674:	000b0593          	mv	a1,s6
    80003678:	7010d0ef          	jal	ra,80011578 <__multf3>
    8000367c:	00058913          	mv	s2,a1
    80003680:	00050993          	mv	s3,a0
    80003684:	5490e0ef          	jal	ra,800123cc <__fixtfsi>
    80003688:	00050b9b          	sext.w	s7,a0
    8000368c:	000b8513          	mv	a0,s7
    80003690:	5a50e0ef          	jal	ra,80012434 <__floatsitf>
    80003694:	00058693          	mv	a3,a1
    80003698:	00050613          	mv	a2,a0
    8000369c:	00090593          	mv	a1,s2
    800036a0:	00098513          	mv	a0,s3
    800036a4:	54c0e0ef          	jal	ra,80011bf0 <__subtf3>
    800036a8:	017406b3          	add	a3,s0,s7
    800036ac:	0006c683          	lbu	a3,0(a3)
    800036b0:	000a0993          	mv	s3,s4
    800036b4:	001a0a13          	addi	s4,s4,1
    800036b8:	feda0fa3          	sb	a3,-1(s4)
    800036bc:	00050c13          	mv	s8,a0
    800036c0:	00050a93          	mv	s5,a0
    800036c4:	00058b13          	mv	s6,a1
    800036c8:	4144893b          	subw	s2,s1,s4
    800036cc:	f94d96e3          	bne	s11,s4,80003658 <_vfprintf_r+0x1dd8>
    800036d0:	07013d83          	ld	s11,112(sp)
    800036d4:	09813403          	ld	s0,152(sp)
    800036d8:	07313823          	sd	s3,112(sp)
    800036dc:	0a013483          	ld	s1,160(sp)
    800036e0:	000b8993          	mv	s3,s7
    800036e4:	0a813903          	ld	s2,168(sp)
    800036e8:	0b013a83          	ld	s5,176(sp)
    800036ec:	0b813303          	ld	t1,184(sp)
    800036f0:	0c813b83          	ld	s7,200(sp)
    800036f4:	0c013c03          	ld	s8,192(sp)
    800036f8:	fff00793          	li	a5,-1
    800036fc:	00050893          	mv	a7,a0
    80003700:	000a0c93          	mv	s9,s4
    80003704:	02f13023          	sd	a5,32(sp)
    80003708:	09013683          	ld	a3,144(sp)
    8000370c:	00000613          	li	a2,0
    80003710:	00088513          	mv	a0,a7
    80003714:	000b0593          	mv	a1,s6
    80003718:	08613c23          	sd	t1,152(sp)
    8000371c:	0b113023          	sd	a7,160(sp)
    80003720:	4990d0ef          	jal	ra,800113b8 <__getf2>
    80003724:	09813303          	ld	t1,152(sp)
    80003728:	48a04063          	bgtz	a0,80003ba8 <_vfprintf_r+0x2328>
    8000372c:	0a013883          	ld	a7,160(sp)
    80003730:	09013683          	ld	a3,144(sp)
    80003734:	00000613          	li	a2,0
    80003738:	00088513          	mv	a0,a7
    8000373c:	000b0593          	mv	a1,s6
    80003740:	3ed0d0ef          	jal	ra,8001132c <__eqtf2>
    80003744:	09813303          	ld	t1,152(sp)
    80003748:	00051663          	bnez	a0,80003754 <_vfprintf_r+0x1ed4>
    8000374c:	0019f993          	andi	s3,s3,1
    80003750:	44099c63          	bnez	s3,80003ba8 <_vfprintf_r+0x2328>
    80003754:	02013783          	ld	a5,32(sp)
    80003758:	03000693          	li	a3,48
    8000375c:	0017871b          	addiw	a4,a5,1
    80003760:	00ec8733          	add	a4,s9,a4
    80003764:	0007c863          	bltz	a5,80003774 <_vfprintf_r+0x1ef4>
    80003768:	001c8c93          	addi	s9,s9,1
    8000376c:	fedc8fa3          	sb	a3,-1(s9)
    80003770:	ff971ce3          	bne	a4,s9,80003768 <_vfprintf_r+0x1ee8>
    80003774:	41ac87bb          	subw	a5,s9,s10
    80003778:	02f13023          	sd	a5,32(sp)
    8000377c:	ea0fe06f          	j	80001e1c <_vfprintf_r+0x59c>
    80003780:	02013703          	ld	a4,32(sp)
    80003784:	000d0b93          	mv	s7,s10
    80003788:	02813d03          	ld	s10,40(sp)
    8000378c:	06813023          	sd	s0,96(sp)
    80003790:	06813483          	ld	s1,104(sp)
    80003794:	00ed0733          	add	a4,s10,a4
    80003798:	01813403          	ld	s0,24(sp)
    8000379c:	07013903          	ld	s2,112(sp)
    800037a0:	03013983          	ld	s3,48(sp)
    800037a4:	a9577a63          	bgeu	a4,s5,80002a38 <_vfprintf_r+0x11b8>
    800037a8:	00070a93          	mv	s5,a4
    800037ac:	a8cff06f          	j	80002a38 <_vfprintf_r+0x11b8>
    800037b0:	01813703          	ld	a4,24(sp)
    800037b4:	ffd00793          	li	a5,-3
    800037b8:	00f74463          	blt	a4,a5,800037c0 <_vfprintf_r+0x1f40>
    800037bc:	02ead463          	bge	s5,a4,800037e4 <_vfprintf_r+0x1f64>
    800037c0:	ffed8d9b          	addiw	s11,s11,-2
    800037c4:	fdfdf793          	andi	a5,s11,-33
    800037c8:	02f13423          	sd	a5,40(sp)
    800037cc:	e78fe06f          	j	80001e44 <_vfprintf_r+0x5c4>
    800037d0:	0df14783          	lbu	a5,223(sp)
    800037d4:	00000a93          	li	s5,0
    800037d8:	00078463          	beqz	a5,800037e0 <_vfprintf_r+0x1f60>
    800037dc:	995fe06f          	j	80002170 <_vfprintf_r+0x8f0>
    800037e0:	af8fe06f          	j	80001ad8 <_vfprintf_r+0x258>
    800037e4:	01813703          	ld	a4,24(sp)
    800037e8:	02013783          	ld	a5,32(sp)
    800037ec:	24f74263          	blt	a4,a5,80003a30 <_vfprintf_r+0x21b0>
    800037f0:	03013783          	ld	a5,48(sp)
    800037f4:	00070a13          	mv	s4,a4
    800037f8:	0017f793          	andi	a5,a5,1
    800037fc:	00078663          	beqz	a5,80003808 <_vfprintf_r+0x1f88>
    80003800:	03813783          	ld	a5,56(sp)
    80003804:	00e78a3b          	addw	s4,a5,a4
    80003808:	03013783          	ld	a5,48(sp)
    8000380c:	4007f793          	andi	a5,a5,1024
    80003810:	00078663          	beqz	a5,8000381c <_vfprintf_r+0x1f9c>
    80003814:	01813783          	ld	a5,24(sp)
    80003818:	4cf04e63          	bgtz	a5,80003cf4 <_vfprintf_r+0x2474>
    8000381c:	fffa4993          	not	s3,s4
    80003820:	43f9d993          	srai	s3,s3,0x3f
    80003824:	013a79b3          	and	s3,s4,s3
    80003828:	0009899b          	sext.w	s3,s3
    8000382c:	06700d93          	li	s11,103
    80003830:	02013823          	sd	zero,48(sp)
    80003834:	02013423          	sd	zero,40(sp)
    80003838:	f34fe06f          	j	80001f6c <_vfprintf_r+0x6ec>
    8000383c:	000d0b93          	mv	s7,s10
    80003840:	f8dfe06f          	j	800027cc <_vfprintf_r+0xf4c>
    80003844:	00013823          	sd	zero,16(sp)
    80003848:	00078493          	mv	s1,a5
    8000384c:	fff00793          	li	a5,-1
    80003850:	03f79793          	slli	a5,a5,0x3f
    80003854:	00fa4a33          	xor	s4,s4,a5
    80003858:	02d00793          	li	a5,45
    8000385c:	06f13423          	sd	a5,104(sp)
    80003860:	d39ff06f          	j	80003598 <_vfprintf_r+0x1d18>
    80003864:	11010613          	addi	a2,sp,272
    80003868:	000d0593          	mv	a1,s10
    8000386c:	000c0513          	mv	a0,s8
    80003870:	22d090ef          	jal	ra,8000d29c <__sprint_r>
    80003874:	fc0514e3          	bnez	a0,8000383c <_vfprintf_r+0x1fbc>
    80003878:	00044603          	lbu	a2,0(s0)
    8000387c:	12013783          	ld	a5,288(sp)
    80003880:	19010313          	addi	t1,sp,400
    80003884:	00ca8ab3          	add	s5,s5,a2
    80003888:	a7dff06f          	j	80003304 <_vfprintf_r+0x1a84>
    8000388c:	0e810793          	addi	a5,sp,232
    80003890:	000a8713          	mv	a4,s5
    80003894:	0f810893          	addi	a7,sp,248
    80003898:	0ec10813          	addi	a6,sp,236
    8000389c:	00300693          	li	a3,3
    800038a0:	000b0593          	mv	a1,s6
    800038a4:	000a0613          	mv	a2,s4
    800038a8:	000c0513          	mv	a0,s8
    800038ac:	00613c23          	sd	t1,24(sp)
    800038b0:	594030ef          	jal	ra,80006e44 <_ldtoa_r>
    800038b4:	00054703          	lbu	a4,0(a0)
    800038b8:	03000793          	li	a5,48
    800038bc:	01813303          	ld	t1,24(sp)
    800038c0:	00050d13          	mv	s10,a0
    800038c4:	06f70063          	beq	a4,a5,80003924 <_vfprintf_r+0x20a4>
    800038c8:	0e812783          	lw	a5,232(sp)
    800038cc:	015787b3          	add	a5,a5,s5
    800038d0:	00fd09b3          	add	s3,s10,a5
    800038d4:	00000693          	li	a3,0
    800038d8:	00000613          	li	a2,0
    800038dc:	000b0513          	mv	a0,s6
    800038e0:	000a0593          	mv	a1,s4
    800038e4:	00613c23          	sd	t1,24(sp)
    800038e8:	2450d0ef          	jal	ra,8001132c <__eqtf2>
    800038ec:	01813303          	ld	t1,24(sp)
    800038f0:	00098693          	mv	a3,s3
    800038f4:	00051463          	bnez	a0,800038fc <_vfprintf_r+0x207c>
    800038f8:	d1cfe06f          	j	80001e14 <_vfprintf_r+0x594>
    800038fc:	0f813683          	ld	a3,248(sp)
    80003900:	0136e463          	bltu	a3,s3,80003908 <_vfprintf_r+0x2088>
    80003904:	d10fe06f          	j	80001e14 <_vfprintf_r+0x594>
    80003908:	03000713          	li	a4,48
    8000390c:	00168793          	addi	a5,a3,1
    80003910:	0ef13c23          	sd	a5,248(sp)
    80003914:	00e68023          	sb	a4,0(a3)
    80003918:	0f813683          	ld	a3,248(sp)
    8000391c:	ff36e8e3          	bltu	a3,s3,8000390c <_vfprintf_r+0x208c>
    80003920:	cf4fe06f          	j	80001e14 <_vfprintf_r+0x594>
    80003924:	00000613          	li	a2,0
    80003928:	00000693          	li	a3,0
    8000392c:	000b0513          	mv	a0,s6
    80003930:	000a0593          	mv	a1,s4
    80003934:	00613c23          	sd	t1,24(sp)
    80003938:	1f50d0ef          	jal	ra,8001132c <__eqtf2>
    8000393c:	01813303          	ld	t1,24(sp)
    80003940:	f80504e3          	beqz	a0,800038c8 <_vfprintf_r+0x2048>
    80003944:	00100713          	li	a4,1
    80003948:	415707bb          	subw	a5,a4,s5
    8000394c:	0ef12423          	sw	a5,232(sp)
    80003950:	f7dff06f          	j	800038cc <_vfprintf_r+0x204c>
    80003954:	11010613          	addi	a2,sp,272
    80003958:	000b8593          	mv	a1,s7
    8000395c:	000c0513          	mv	a0,s8
    80003960:	13d090ef          	jal	ra,8000d29c <__sprint_r>
    80003964:	00050463          	beqz	a0,8000396c <_vfprintf_r+0x20ec>
    80003968:	e65fe06f          	j	800027cc <_vfprintf_r+0xf4c>
    8000396c:	0e812703          	lw	a4,232(sp)
    80003970:	12013783          	ld	a5,288(sp)
    80003974:	19010313          	addi	t1,sp,400
    80003978:	908ff06f          	j	80002a80 <_vfprintf_r+0x1200>
    8000397c:	02d00793          	li	a5,45
    80003980:	0cf10fa3          	sb	a5,223(sp)
    80003984:	f04ff06f          	j	80003088 <_vfprintf_r+0x1808>
    80003988:	0df14783          	lbu	a5,223(sp)
    8000398c:	01913423          	sd	s9,8(sp)
    80003990:	02013823          	sd	zero,48(sp)
    80003994:	02013423          	sd	zero,40(sp)
    80003998:	00013c23          	sd	zero,24(sp)
    8000399c:	000a8993          	mv	s3,s5
    800039a0:	000a8a13          	mv	s4,s5
    800039a4:	00000a93          	li	s5,0
    800039a8:	00078463          	beqz	a5,800039b0 <_vfprintf_r+0x2130>
    800039ac:	fc4fe06f          	j	80002170 <_vfprintf_r+0x8f0>
    800039b0:	928fe06f          	j	80001ad8 <_vfprintf_r+0x258>
    800039b4:	00023837          	lui	a6,0x23
    800039b8:	eb080d13          	addi	s10,a6,-336 # 22eb0 <_start-0x7ffdd16c>
    800039bc:	edcff06f          	j	80003098 <_vfprintf_r+0x1818>
    800039c0:	03013783          	ld	a5,48(sp)
    800039c4:	01813703          	ld	a4,24(sp)
    800039c8:	0017f793          	andi	a5,a5,1
    800039cc:	00fae7b3          	or	a5,s5,a5
    800039d0:	3ce05e63          	blez	a4,80003dac <_vfprintf_r+0x252c>
    800039d4:	3a079863          	bnez	a5,80003d84 <_vfprintf_r+0x2504>
    800039d8:	01813a03          	ld	s4,24(sp)
    800039dc:	06600d93          	li	s11,102
    800039e0:	03013783          	ld	a5,48(sp)
    800039e4:	4007f793          	andi	a5,a5,1024
    800039e8:	30079863          	bnez	a5,80003cf8 <_vfprintf_r+0x2478>
    800039ec:	fffa4993          	not	s3,s4
    800039f0:	43f9d993          	srai	s3,s3,0x3f
    800039f4:	013a79b3          	and	s3,s4,s3
    800039f8:	0009899b          	sext.w	s3,s3
    800039fc:	e35ff06f          	j	80003830 <_vfprintf_r+0x1fb0>
    80003a00:	11010613          	addi	a2,sp,272
    80003a04:	000b8593          	mv	a1,s7
    80003a08:	000c0513          	mv	a0,s8
    80003a0c:	091090ef          	jal	ra,8000d29c <__sprint_r>
    80003a10:	00050463          	beqz	a0,80003a18 <_vfprintf_r+0x2198>
    80003a14:	db9fe06f          	j	800027cc <_vfprintf_r+0xf4c>
    80003a18:	0e812603          	lw	a2,232(sp)
    80003a1c:	02013703          	ld	a4,32(sp)
    80003a20:	12013783          	ld	a5,288(sp)
    80003a24:	19010313          	addi	t1,sp,400
    80003a28:	40c7063b          	subw	a2,a4,a2
    80003a2c:	8a0ff06f          	j	80002acc <_vfprintf_r+0x124c>
    80003a30:	02013703          	ld	a4,32(sp)
    80003a34:	03813783          	ld	a5,56(sp)
    80003a38:	06700d93          	li	s11,103
    80003a3c:	00e78a3b          	addw	s4,a5,a4
    80003a40:	01813703          	ld	a4,24(sp)
    80003a44:	f8e04ee3          	bgtz	a4,800039e0 <_vfprintf_r+0x2160>
    80003a48:	40ea07bb          	subw	a5,s4,a4
    80003a4c:	0017879b          	addiw	a5,a5,1
    80003a50:	00078a1b          	sext.w	s4,a5
    80003a54:	fffa4993          	not	s3,s4
    80003a58:	43f9d993          	srai	s3,s3,0x3f
    80003a5c:	0137f7b3          	and	a5,a5,s3
    80003a60:	0007899b          	sext.w	s3,a5
    80003a64:	dcdff06f          	j	80003830 <_vfprintf_r+0x1fb0>
    80003a68:	fff00793          	li	a5,-1
    80003a6c:	00f13023          	sd	a5,0(sp)
    80003a70:	9b0fe06f          	j	80001c20 <_vfprintf_r+0x3a0>
    80003a74:	000238b7          	lui	a7,0x23
    80003a78:	ff000713          	li	a4,-16
    80003a7c:	40c00b3b          	negw	s6,a2
    80003a80:	08088c93          	addi	s9,a7,128 # 23080 <_start-0x7ffdcf9c>
    80003a84:	01000a13          	li	s4,16
    80003a88:	00700a93          	li	s5,7
    80003a8c:	00e64863          	blt	a2,a4,80003a9c <_vfprintf_r+0x221c>
    80003a90:	0540006f          	j	80003ae4 <_vfprintf_r+0x2264>
    80003a94:	ff0b0b1b          	addiw	s6,s6,-16
    80003a98:	056a5663          	bge	s4,s6,80003ae4 <_vfprintf_r+0x2264>
    80003a9c:	0016869b          	addiw	a3,a3,1
    80003aa0:	01078793          	addi	a5,a5,16
    80003aa4:	01933023          	sd	s9,0(t1)
    80003aa8:	01433423          	sd	s4,8(t1)
    80003aac:	12f13023          	sd	a5,288(sp)
    80003ab0:	10d12c23          	sw	a3,280(sp)
    80003ab4:	01030313          	addi	t1,t1,16
    80003ab8:	fcdadee3          	bge	s5,a3,80003a94 <_vfprintf_r+0x2214>
    80003abc:	11010613          	addi	a2,sp,272
    80003ac0:	000b8593          	mv	a1,s7
    80003ac4:	000c0513          	mv	a0,s8
    80003ac8:	7d4090ef          	jal	ra,8000d29c <__sprint_r>
    80003acc:	00050463          	beqz	a0,80003ad4 <_vfprintf_r+0x2254>
    80003ad0:	cfdfe06f          	j	800027cc <_vfprintf_r+0xf4c>
    80003ad4:	12013783          	ld	a5,288(sp)
    80003ad8:	11812683          	lw	a3,280(sp)
    80003adc:	19010313          	addi	t1,sp,400
    80003ae0:	fb5ff06f          	j	80003a94 <_vfprintf_r+0x2214>
    80003ae4:	0016869b          	addiw	a3,a3,1
    80003ae8:	016787b3          	add	a5,a5,s6
    80003aec:	01933023          	sd	s9,0(t1)
    80003af0:	01633423          	sd	s6,8(t1)
    80003af4:	12f13023          	sd	a5,288(sp)
    80003af8:	10d12c23          	sw	a3,280(sp)
    80003afc:	00700713          	li	a4,7
    80003b00:	d0d75263          	bge	a4,a3,80003004 <_vfprintf_r+0x1784>
    80003b04:	11010613          	addi	a2,sp,272
    80003b08:	000b8593          	mv	a1,s7
    80003b0c:	000c0513          	mv	a0,s8
    80003b10:	78c090ef          	jal	ra,8000d29c <__sprint_r>
    80003b14:	00050463          	beqz	a0,80003b1c <_vfprintf_r+0x229c>
    80003b18:	cb5fe06f          	j	800027cc <_vfprintf_r+0xf4c>
    80003b1c:	12013783          	ld	a5,288(sp)
    80003b20:	11812683          	lw	a3,280(sp)
    80003b24:	19010313          	addi	t1,sp,400
    80003b28:	dd4ff06f          	j	800030fc <_vfprintf_r+0x187c>
    80003b2c:	03000793          	li	a5,48
    80003b30:	0ef10023          	sb	a5,224(sp)
    80003b34:	07800713          	li	a4,120
    80003b38:	a21ff06f          	j	80003558 <_vfprintf_r+0x1cd8>
    80003b3c:	00048b13          	mv	s6,s1
    80003b40:	da1fe06f          	j	800028e0 <_vfprintf_r+0x1060>
    80003b44:	015d09b3          	add	s3,s10,s5
    80003b48:	d8dff06f          	j	800038d4 <_vfprintf_r+0x2054>
    80003b4c:	001a899b          	addiw	s3,s5,1
    80003b50:	00098713          	mv	a4,s3
    80003b54:	0f810893          	addi	a7,sp,248
    80003b58:	0ec10813          	addi	a6,sp,236
    80003b5c:	0e810793          	addi	a5,sp,232
    80003b60:	00200693          	li	a3,2
    80003b64:	000b0593          	mv	a1,s6
    80003b68:	000a0613          	mv	a2,s4
    80003b6c:	000c0513          	mv	a0,s8
    80003b70:	2d4030ef          	jal	ra,80006e44 <_ldtoa_r>
    80003b74:	00050d13          	mv	s10,a0
    80003b78:	01813303          	ld	t1,24(sp)
    80003b7c:	013d09b3          	add	s3,s10,s3
    80003b80:	d55ff06f          	j	800038d4 <_vfprintf_r+0x2054>
    80003b84:	001a859b          	addiw	a1,s5,1
    80003b88:	000c0513          	mv	a0,s8
    80003b8c:	00613823          	sd	t1,16(sp)
    80003b90:	0ed040ef          	jal	ra,8000847c <_malloc_r>
    80003b94:	01013303          	ld	t1,16(sp)
    80003b98:	00050d13          	mv	s10,a0
    80003b9c:	2a050463          	beqz	a0,80003e44 <_vfprintf_r+0x25c4>
    80003ba0:	00a13823          	sd	a0,16(sp)
    80003ba4:	9d5ff06f          	j	80003578 <_vfprintf_r+0x1cf8>
    80003ba8:	07013783          	ld	a5,112(sp)
    80003bac:	000c8713          	mv	a4,s9
    80003bb0:	0ef13c23          	sd	a5,248(sp)
    80003bb4:	01813783          	ld	a5,24(sp)
    80003bb8:	fffcc683          	lbu	a3,-1(s9)
    80003bbc:	00f7c603          	lbu	a2,15(a5)
    80003bc0:	02d61063          	bne	a2,a3,80003be0 <_vfprintf_r+0x2360>
    80003bc4:	03000593          	li	a1,48
    80003bc8:	feb70fa3          	sb	a1,-1(a4)
    80003bcc:	0f813703          	ld	a4,248(sp)
    80003bd0:	fff70793          	addi	a5,a4,-1
    80003bd4:	0ef13c23          	sd	a5,248(sp)
    80003bd8:	fff74683          	lbu	a3,-1(a4)
    80003bdc:	fed606e3          	beq	a2,a3,80003bc8 <_vfprintf_r+0x2348>
    80003be0:	0016861b          	addiw	a2,a3,1
    80003be4:	03900593          	li	a1,57
    80003be8:	0ff67613          	andi	a2,a2,255
    80003bec:	00b68663          	beq	a3,a1,80003bf8 <_vfprintf_r+0x2378>
    80003bf0:	fec70fa3          	sb	a2,-1(a4)
    80003bf4:	b81ff06f          	j	80003774 <_vfprintf_r+0x1ef4>
    80003bf8:	01813783          	ld	a5,24(sp)
    80003bfc:	00a7c603          	lbu	a2,10(a5)
    80003c00:	fec70fa3          	sb	a2,-1(a4)
    80003c04:	b71ff06f          	j	80003774 <_vfprintf_r+0x1ef4>
    80003c08:	00f72023          	sw	a5,0(a4)
    80003c0c:	00040d13          	mv	s10,s0
    80003c10:	fedfd06f          	j	80001bfc <_vfprintf_r+0x37c>
    80003c14:	000a8463          	beqz	s5,80003c1c <_vfprintf_r+0x239c>
    80003c18:	964fe06f          	j	80001d7c <_vfprintf_r+0x4fc>
    80003c1c:	00100a93          	li	s5,1
    80003c20:	95cfe06f          	j	80001d7c <_vfprintf_r+0x4fc>
    80003c24:	00600a93          	li	s5,6
    80003c28:	954fe06f          	j	80001d7c <_vfprintf_r+0x4fc>
    80003c2c:	07013d83          	ld	s11,112(sp)
    80003c30:	03213023          	sd	s2,32(sp)
    80003c34:	07313823          	sd	s3,112(sp)
    80003c38:	000c0893          	mv	a7,s8
    80003c3c:	000b8993          	mv	s3,s7
    80003c40:	09813403          	ld	s0,152(sp)
    80003c44:	0a013483          	ld	s1,160(sp)
    80003c48:	0a813903          	ld	s2,168(sp)
    80003c4c:	0b013a83          	ld	s5,176(sp)
    80003c50:	0b813303          	ld	t1,184(sp)
    80003c54:	0c813b83          	ld	s7,200(sp)
    80003c58:	0c013c03          	ld	s8,192(sp)
    80003c5c:	000a0c93          	mv	s9,s4
    80003c60:	aa9ff06f          	j	80003708 <_vfprintf_r+0x1e88>
    80003c64:	0f210713          	addi	a4,sp,242
    80003c68:	00069863          	bnez	a3,80003c78 <_vfprintf_r+0x23f8>
    80003c6c:	03000713          	li	a4,48
    80003c70:	0ee10923          	sb	a4,242(sp)
    80003c74:	0f310713          	addi	a4,sp,243
    80003c78:	21010693          	addi	a3,sp,528
    80003c7c:	0307879b          	addiw	a5,a5,48
    80003c80:	40d706b3          	sub	a3,a4,a3
    80003c84:	00f70023          	sb	a5,0(a4)
    80003c88:	1216879b          	addiw	a5,a3,289
    80003c8c:	04f13823          	sd	a5,80(sp)
    80003c90:	a8cfe06f          	j	80001f1c <_vfprintf_r+0x69c>
    80003c94:	000a0593          	mv	a1,s4
    80003c98:	000b0513          	mv	a0,s6
    80003c9c:	02613023          	sd	t1,32(sp)
    80003ca0:	10d0e0ef          	jal	ra,800125ac <__trunctfdf2>
    80003ca4:	0e810593          	addi	a1,sp,232
    80003ca8:	2f5060ef          	jal	ra,8000a79c <frexp>
    80003cac:	0110e0ef          	jal	ra,800124bc <__extenddftf2>
    80003cb0:	08813683          	ld	a3,136(sp)
    80003cb4:	00000613          	li	a2,0
    80003cb8:	0c10d0ef          	jal	ra,80011578 <__multf3>
    80003cbc:	00000613          	li	a2,0
    80003cc0:	00000693          	li	a3,0
    80003cc4:	00050a13          	mv	s4,a0
    80003cc8:	00b13c23          	sd	a1,24(sp)
    80003ccc:	6600d0ef          	jal	ra,8001132c <__eqtf2>
    80003cd0:	01813f03          	ld	t5,24(sp)
    80003cd4:	02013303          	ld	t1,32(sp)
    80003cd8:	00051663          	bnez	a0,80003ce4 <_vfprintf_r+0x2464>
    80003cdc:	00100793          	li	a5,1
    80003ce0:	0ef12423          	sw	a5,232(sp)
    80003ce4:	000237b7          	lui	a5,0x23
    80003ce8:	ed878793          	addi	a5,a5,-296 # 22ed8 <_start-0x7ffdd144>
    80003cec:	00f13c23          	sd	a5,24(sp)
    80003cf0:	919ff06f          	j	80003608 <_vfprintf_r+0x1d88>
    80003cf4:	06700d93          	li	s11,103
    80003cf8:	06013603          	ld	a2,96(sp)
    80003cfc:	0ff00713          	li	a4,255
    80003d00:	00064783          	lbu	a5,0(a2)
    80003d04:	12e78463          	beq	a5,a4,80003e2c <_vfprintf_r+0x25ac>
    80003d08:	01813703          	ld	a4,24(sp)
    80003d0c:	00000813          	li	a6,0
    80003d10:	00000513          	li	a0,0
    80003d14:	0ff00693          	li	a3,255
    80003d18:	0007859b          	sext.w	a1,a5
    80003d1c:	00e7de63          	bge	a5,a4,80003d38 <_vfprintf_r+0x24b8>
    80003d20:	00164783          	lbu	a5,1(a2)
    80003d24:	40b7073b          	subw	a4,a4,a1
    80003d28:	04078863          	beqz	a5,80003d78 <_vfprintf_r+0x24f8>
    80003d2c:	0015051b          	addiw	a0,a0,1
    80003d30:	00160613          	addi	a2,a2,1
    80003d34:	fed792e3          	bne	a5,a3,80003d18 <_vfprintf_r+0x2498>
    80003d38:	06c13023          	sd	a2,96(sp)
    80003d3c:	00e13c23          	sd	a4,24(sp)
    80003d40:	02a13423          	sd	a0,40(sp)
    80003d44:	03013823          	sd	a6,48(sp)
    80003d48:	03013703          	ld	a4,48(sp)
    80003d4c:	02813783          	ld	a5,40(sp)
    80003d50:	00e787bb          	addw	a5,a5,a4
    80003d54:	07813703          	ld	a4,120(sp)
    80003d58:	02e787bb          	mulw	a5,a5,a4
    80003d5c:	014787bb          	addw	a5,a5,s4
    80003d60:	00078a1b          	sext.w	s4,a5
    80003d64:	fffa4993          	not	s3,s4
    80003d68:	43f9d993          	srai	s3,s3,0x3f
    80003d6c:	0137f7b3          	and	a5,a5,s3
    80003d70:	0007899b          	sext.w	s3,a5
    80003d74:	9f8fe06f          	j	80001f6c <_vfprintf_r+0x6ec>
    80003d78:	00064783          	lbu	a5,0(a2)
    80003d7c:	0018081b          	addiw	a6,a6,1
    80003d80:	fb5ff06f          	j	80003d34 <_vfprintf_r+0x24b4>
    80003d84:	03813783          	ld	a5,56(sp)
    80003d88:	06600d93          	li	s11,102
    80003d8c:	00e78a3b          	addw	s4,a5,a4
    80003d90:	015a0a3b          	addw	s4,s4,s5
    80003d94:	c4dff06f          	j	800039e0 <_vfprintf_r+0x2160>
    80003d98:	03013703          	ld	a4,48(sp)
    80003d9c:	00177713          	andi	a4,a4,1
    80003da0:	00071463          	bnez	a4,80003da8 <_vfprintf_r+0x2528>
    80003da4:	99cfe06f          	j	80001f40 <_vfprintf_r+0x6c0>
    80003da8:	990fe06f          	j	80001f38 <_vfprintf_r+0x6b8>
    80003dac:	00079a63          	bnez	a5,80003dc0 <_vfprintf_r+0x2540>
    80003db0:	00100993          	li	s3,1
    80003db4:	06600d93          	li	s11,102
    80003db8:	00100a13          	li	s4,1
    80003dbc:	a75ff06f          	j	80003830 <_vfprintf_r+0x1fb0>
    80003dc0:	03813783          	ld	a5,56(sp)
    80003dc4:	06600d93          	li	s11,102
    80003dc8:	0017879b          	addiw	a5,a5,1
    80003dcc:	01578e3b          	addw	t3,a5,s5
    80003dd0:	000e0a1b          	sext.w	s4,t3
    80003dd4:	fffa4993          	not	s3,s4
    80003dd8:	43f9d993          	srai	s3,s3,0x3f
    80003ddc:	013e7e33          	and	t3,t3,s3
    80003de0:	000e099b          	sext.w	s3,t3
    80003de4:	a4dff06f          	j	80003830 <_vfprintf_r+0x1fb0>
    80003de8:	000238b7          	lui	a7,0x23
    80003dec:	00030613          	mv	a2,t1
    80003df0:	08088c93          	addi	s9,a7,128 # 23080 <_start-0x7ffdcf9c>
    80003df4:	f29fe06f          	j	80002d1c <_vfprintf_r+0x149c>
    80003df8:	00813683          	ld	a3,8(sp)
    80003dfc:	0006a703          	lw	a4,0(a3)
    80003e00:	00868693          	addi	a3,a3,8
    80003e04:	00070a9b          	sext.w	s5,a4
    80003e08:	00075463          	bgez	a4,80003e10 <_vfprintf_r+0x2590>
    80003e0c:	fff00a93          	li	s5,-1
    80003e10:	00144e83          	lbu	t4,1(s0)
    80003e14:	00d13423          	sd	a3,8(sp)
    80003e18:	00078413          	mv	s0,a5
    80003e1c:	c29fd06f          	j	80001a44 <_vfprintf_r+0x1c4>
    80003e20:	00200793          	li	a5,2
    80003e24:	04f13823          	sd	a5,80(sp)
    80003e28:	8f4fe06f          	j	80001f1c <_vfprintf_r+0x69c>
    80003e2c:	02013823          	sd	zero,48(sp)
    80003e30:	02013423          	sd	zero,40(sp)
    80003e34:	f15ff06f          	j	80003d48 <_vfprintf_r+0x24c8>
    80003e38:	000a8993          	mv	s3,s5
    80003e3c:	013d09b3          	add	s3,s10,s3
    80003e40:	a95ff06f          	j	800038d4 <_vfprintf_r+0x2054>
    80003e44:	010bd783          	lhu	a5,16(s7)
    80003e48:	0407e793          	ori	a5,a5,64
    80003e4c:	00fb9823          	sh	a5,16(s7)
    80003e50:	dc1fd06f          	j	80001c10 <_vfprintf_r+0x390>

0000000080003e54 <vfprintf>:
    80003e54:	00050793          	mv	a5,a0
    80003e58:	8401b503          	ld	a0,-1984(gp) # 80015160 <_impure_ptr>
    80003e5c:	00060693          	mv	a3,a2
    80003e60:	00058613          	mv	a2,a1
    80003e64:	00078593          	mv	a1,a5
    80003e68:	a19fd06f          	j	80001880 <_vfprintf_r>
    80003e6c:	0105d783          	lhu	a5,16(a1)
    80003e70:	0ac5ae03          	lw	t3,172(a1)
    80003e74:	0125d303          	lhu	t1,18(a1)
    80003e78:	0305b883          	ld	a7,48(a1)
    80003e7c:	0405b803          	ld	a6,64(a1)
    80003e80:	b3010113          	addi	sp,sp,-1232
    80003e84:	ffd7f793          	andi	a5,a5,-3
    80003e88:	40000713          	li	a4,1024
    80003e8c:	4c813023          	sd	s0,1216(sp)
    80003e90:	00f11823          	sh	a5,16(sp)
    80003e94:	00058413          	mv	s0,a1
    80003e98:	0b010793          	addi	a5,sp,176
    80003e9c:	00010593          	mv	a1,sp
    80003ea0:	4a913c23          	sd	s1,1208(sp)
    80003ea4:	4b213823          	sd	s2,1200(sp)
    80003ea8:	4c113423          	sd	ra,1224(sp)
    80003eac:	00050913          	mv	s2,a0
    80003eb0:	0bc12623          	sw	t3,172(sp)
    80003eb4:	00611923          	sh	t1,18(sp)
    80003eb8:	03113823          	sd	a7,48(sp)
    80003ebc:	05013023          	sd	a6,64(sp)
    80003ec0:	00f13023          	sd	a5,0(sp)
    80003ec4:	00f13c23          	sd	a5,24(sp)
    80003ec8:	00e12623          	sw	a4,12(sp)
    80003ecc:	02e12023          	sw	a4,32(sp)
    80003ed0:	02012423          	sw	zero,40(sp)
    80003ed4:	9adfd0ef          	jal	ra,80001880 <_vfprintf_r>
    80003ed8:	00050493          	mv	s1,a0
    80003edc:	02055c63          	bgez	a0,80003f14 <vfprintf+0xc0>
    80003ee0:	01015783          	lhu	a5,16(sp)
    80003ee4:	0407f793          	andi	a5,a5,64
    80003ee8:	00078863          	beqz	a5,80003ef8 <vfprintf+0xa4>
    80003eec:	01045783          	lhu	a5,16(s0)
    80003ef0:	0407e793          	ori	a5,a5,64
    80003ef4:	00f41823          	sh	a5,16(s0)
    80003ef8:	4c813083          	ld	ra,1224(sp)
    80003efc:	4c013403          	ld	s0,1216(sp)
    80003f00:	4b013903          	ld	s2,1200(sp)
    80003f04:	00048513          	mv	a0,s1
    80003f08:	4b813483          	ld	s1,1208(sp)
    80003f0c:	4d010113          	addi	sp,sp,1232
    80003f10:	00008067          	ret
    80003f14:	00010593          	mv	a1,sp
    80003f18:	00090513          	mv	a0,s2
    80003f1c:	6a0000ef          	jal	ra,800045bc <_fflush_r>
    80003f20:	fc0500e3          	beqz	a0,80003ee0 <vfprintf+0x8c>
    80003f24:	fff00493          	li	s1,-1
    80003f28:	fb9ff06f          	j	80003ee0 <vfprintf+0x8c>

0000000080003f2c <__swbuf_r>:
    80003f2c:	fd010113          	addi	sp,sp,-48
    80003f30:	02813023          	sd	s0,32(sp)
    80003f34:	00913c23          	sd	s1,24(sp)
    80003f38:	01213823          	sd	s2,16(sp)
    80003f3c:	02113423          	sd	ra,40(sp)
    80003f40:	01313423          	sd	s3,8(sp)
    80003f44:	00050913          	mv	s2,a0
    80003f48:	00058493          	mv	s1,a1
    80003f4c:	00060413          	mv	s0,a2
    80003f50:	00050663          	beqz	a0,80003f5c <__swbuf_r+0x30>
    80003f54:	05052783          	lw	a5,80(a0)
    80003f58:	14078a63          	beqz	a5,800040ac <__swbuf_r+0x180>
    80003f5c:	01041703          	lh	a4,16(s0)
    80003f60:	02842683          	lw	a3,40(s0)
    80003f64:	00877793          	andi	a5,a4,8
    80003f68:	00d42623          	sw	a3,12(s0)
    80003f6c:	03071693          	slli	a3,a4,0x30
    80003f70:	0306d693          	srli	a3,a3,0x30
    80003f74:	08078463          	beqz	a5,80003ffc <__swbuf_r+0xd0>
    80003f78:	01843783          	ld	a5,24(s0)
    80003f7c:	08078063          	beqz	a5,80003ffc <__swbuf_r+0xd0>
    80003f80:	00002637          	lui	a2,0x2
    80003f84:	0ff4f993          	andi	s3,s1,255
    80003f88:	00c6f6b3          	and	a3,a3,a2
    80003f8c:	00098493          	mv	s1,s3
    80003f90:	0a068063          	beqz	a3,80004030 <__swbuf_r+0x104>
    80003f94:	00043703          	ld	a4,0(s0)
    80003f98:	02042683          	lw	a3,32(s0)
    80003f9c:	40f707bb          	subw	a5,a4,a5
    80003fa0:	0ad7de63          	bge	a5,a3,8000405c <__swbuf_r+0x130>
    80003fa4:	00c42683          	lw	a3,12(s0)
    80003fa8:	00170613          	addi	a2,a4,1
    80003fac:	00c43023          	sd	a2,0(s0)
    80003fb0:	fff6869b          	addiw	a3,a3,-1
    80003fb4:	00d42623          	sw	a3,12(s0)
    80003fb8:	01370023          	sb	s3,0(a4)
    80003fbc:	02042703          	lw	a4,32(s0)
    80003fc0:	0017879b          	addiw	a5,a5,1
    80003fc4:	0cf70863          	beq	a4,a5,80004094 <__swbuf_r+0x168>
    80003fc8:	01045783          	lhu	a5,16(s0)
    80003fcc:	0017f793          	andi	a5,a5,1
    80003fd0:	00078663          	beqz	a5,80003fdc <__swbuf_r+0xb0>
    80003fd4:	00a00793          	li	a5,10
    80003fd8:	0af48e63          	beq	s1,a5,80004094 <__swbuf_r+0x168>
    80003fdc:	02813083          	ld	ra,40(sp)
    80003fe0:	02013403          	ld	s0,32(sp)
    80003fe4:	01013903          	ld	s2,16(sp)
    80003fe8:	00813983          	ld	s3,8(sp)
    80003fec:	00048513          	mv	a0,s1
    80003ff0:	01813483          	ld	s1,24(sp)
    80003ff4:	03010113          	addi	sp,sp,48
    80003ff8:	00008067          	ret
    80003ffc:	00040593          	mv	a1,s0
    80004000:	00090513          	mv	a0,s2
    80004004:	0c4000ef          	jal	ra,800040c8 <__swsetup_r>
    80004008:	08051e63          	bnez	a0,800040a4 <__swbuf_r+0x178>
    8000400c:	01041703          	lh	a4,16(s0)
    80004010:	00002637          	lui	a2,0x2
    80004014:	0ff4f993          	andi	s3,s1,255
    80004018:	03071693          	slli	a3,a4,0x30
    8000401c:	0306d693          	srli	a3,a3,0x30
    80004020:	00c6f6b3          	and	a3,a3,a2
    80004024:	01843783          	ld	a5,24(s0)
    80004028:	00098493          	mv	s1,s3
    8000402c:	f60694e3          	bnez	a3,80003f94 <__swbuf_r+0x68>
    80004030:	0ac42683          	lw	a3,172(s0)
    80004034:	00c76733          	or	a4,a4,a2
    80004038:	ffffe637          	lui	a2,0xffffe
    8000403c:	fff60613          	addi	a2,a2,-1 # ffffffffffffdfff <t0.2038+0xffffffff7ffc13b7>
    80004040:	00c6f6b3          	and	a3,a3,a2
    80004044:	00e41823          	sh	a4,16(s0)
    80004048:	00043703          	ld	a4,0(s0)
    8000404c:	0ad42623          	sw	a3,172(s0)
    80004050:	02042683          	lw	a3,32(s0)
    80004054:	40f707bb          	subw	a5,a4,a5
    80004058:	f4d7c6e3          	blt	a5,a3,80003fa4 <__swbuf_r+0x78>
    8000405c:	00040593          	mv	a1,s0
    80004060:	00090513          	mv	a0,s2
    80004064:	558000ef          	jal	ra,800045bc <_fflush_r>
    80004068:	02051e63          	bnez	a0,800040a4 <__swbuf_r+0x178>
    8000406c:	00043703          	ld	a4,0(s0)
    80004070:	00c42683          	lw	a3,12(s0)
    80004074:	00100793          	li	a5,1
    80004078:	00170613          	addi	a2,a4,1
    8000407c:	fff6869b          	addiw	a3,a3,-1
    80004080:	00c43023          	sd	a2,0(s0)
    80004084:	00d42623          	sw	a3,12(s0)
    80004088:	01370023          	sb	s3,0(a4)
    8000408c:	02042703          	lw	a4,32(s0)
    80004090:	f2f71ce3          	bne	a4,a5,80003fc8 <__swbuf_r+0x9c>
    80004094:	00040593          	mv	a1,s0
    80004098:	00090513          	mv	a0,s2
    8000409c:	520000ef          	jal	ra,800045bc <_fflush_r>
    800040a0:	f2050ee3          	beqz	a0,80003fdc <__swbuf_r+0xb0>
    800040a4:	fff00493          	li	s1,-1
    800040a8:	f35ff06f          	j	80003fdc <__swbuf_r+0xb0>
    800040ac:	13d000ef          	jal	ra,800049e8 <__sinit>
    800040b0:	eadff06f          	j	80003f5c <__swbuf_r+0x30>

00000000800040b4 <__swbuf>:
    800040b4:	00050793          	mv	a5,a0
    800040b8:	8401b503          	ld	a0,-1984(gp) # 80015160 <_impure_ptr>
    800040bc:	00058613          	mv	a2,a1
    800040c0:	00078593          	mv	a1,a5
    800040c4:	e69ff06f          	j	80003f2c <__swbuf_r>

00000000800040c8 <__swsetup_r>:
    800040c8:	8401b783          	ld	a5,-1984(gp) # 80015160 <_impure_ptr>
    800040cc:	fe010113          	addi	sp,sp,-32
    800040d0:	00813823          	sd	s0,16(sp)
    800040d4:	00913423          	sd	s1,8(sp)
    800040d8:	00113c23          	sd	ra,24(sp)
    800040dc:	00050493          	mv	s1,a0
    800040e0:	00058413          	mv	s0,a1
    800040e4:	00078663          	beqz	a5,800040f0 <__swsetup_r+0x28>
    800040e8:	0507a703          	lw	a4,80(a5)
    800040ec:	08070463          	beqz	a4,80004174 <__swsetup_r+0xac>
    800040f0:	01041703          	lh	a4,16(s0)
    800040f4:	03071793          	slli	a5,a4,0x30
    800040f8:	00877693          	andi	a3,a4,8
    800040fc:	0307d793          	srli	a5,a5,0x30
    80004100:	08068863          	beqz	a3,80004190 <__swsetup_r+0xc8>
    80004104:	01843683          	ld	a3,24(s0)
    80004108:	0a068863          	beqz	a3,800041b8 <__swsetup_r+0xf0>
    8000410c:	0017f613          	andi	a2,a5,1
    80004110:	02060863          	beqz	a2,80004140 <__swsetup_r+0x78>
    80004114:	02042603          	lw	a2,32(s0)
    80004118:	00042623          	sw	zero,12(s0)
    8000411c:	00000513          	li	a0,0
    80004120:	40c0063b          	negw	a2,a2
    80004124:	02c42423          	sw	a2,40(s0)
    80004128:	02068a63          	beqz	a3,8000415c <__swsetup_r+0x94>
    8000412c:	01813083          	ld	ra,24(sp)
    80004130:	01013403          	ld	s0,16(sp)
    80004134:	00813483          	ld	s1,8(sp)
    80004138:	02010113          	addi	sp,sp,32
    8000413c:	00008067          	ret
    80004140:	0027f613          	andi	a2,a5,2
    80004144:	00000593          	li	a1,0
    80004148:	00061463          	bnez	a2,80004150 <__swsetup_r+0x88>
    8000414c:	02042583          	lw	a1,32(s0)
    80004150:	00b42623          	sw	a1,12(s0)
    80004154:	00000513          	li	a0,0
    80004158:	fc069ae3          	bnez	a3,8000412c <__swsetup_r+0x64>
    8000415c:	0807f793          	andi	a5,a5,128
    80004160:	fc0786e3          	beqz	a5,8000412c <__swsetup_r+0x64>
    80004164:	04076713          	ori	a4,a4,64
    80004168:	00e41823          	sh	a4,16(s0)
    8000416c:	fff00513          	li	a0,-1
    80004170:	fbdff06f          	j	8000412c <__swsetup_r+0x64>
    80004174:	00078513          	mv	a0,a5
    80004178:	071000ef          	jal	ra,800049e8 <__sinit>
    8000417c:	01041703          	lh	a4,16(s0)
    80004180:	03071793          	slli	a5,a4,0x30
    80004184:	00877693          	andi	a3,a4,8
    80004188:	0307d793          	srli	a5,a5,0x30
    8000418c:	f6069ce3          	bnez	a3,80004104 <__swsetup_r+0x3c>
    80004190:	0107f693          	andi	a3,a5,16
    80004194:	08068263          	beqz	a3,80004218 <__swsetup_r+0x150>
    80004198:	0047f793          	andi	a5,a5,4
    8000419c:	04079463          	bnez	a5,800041e4 <__swsetup_r+0x11c>
    800041a0:	01843683          	ld	a3,24(s0)
    800041a4:	00876713          	ori	a4,a4,8
    800041a8:	03071793          	slli	a5,a4,0x30
    800041ac:	00e41823          	sh	a4,16(s0)
    800041b0:	0307d793          	srli	a5,a5,0x30
    800041b4:	f4069ce3          	bnez	a3,8000410c <__swsetup_r+0x44>
    800041b8:	2807f613          	andi	a2,a5,640
    800041bc:	20000593          	li	a1,512
    800041c0:	f4b606e3          	beq	a2,a1,8000410c <__swsetup_r+0x44>
    800041c4:	00040593          	mv	a1,s0
    800041c8:	00048513          	mv	a0,s1
    800041cc:	050040ef          	jal	ra,8000821c <__smakebuf_r>
    800041d0:	01041703          	lh	a4,16(s0)
    800041d4:	01843683          	ld	a3,24(s0)
    800041d8:	03071793          	slli	a5,a4,0x30
    800041dc:	0307d793          	srli	a5,a5,0x30
    800041e0:	f2dff06f          	j	8000410c <__swsetup_r+0x44>
    800041e4:	05843583          	ld	a1,88(s0)
    800041e8:	00058e63          	beqz	a1,80004204 <__swsetup_r+0x13c>
    800041ec:	07440793          	addi	a5,s0,116
    800041f0:	00f58863          	beq	a1,a5,80004200 <__swsetup_r+0x138>
    800041f4:	00048513          	mv	a0,s1
    800041f8:	1c9000ef          	jal	ra,80004bc0 <_free_r>
    800041fc:	01041703          	lh	a4,16(s0)
    80004200:	04043c23          	sd	zero,88(s0)
    80004204:	01843683          	ld	a3,24(s0)
    80004208:	fdb77713          	andi	a4,a4,-37
    8000420c:	00042423          	sw	zero,8(s0)
    80004210:	00d43023          	sd	a3,0(s0)
    80004214:	f91ff06f          	j	800041a4 <__swsetup_r+0xdc>
    80004218:	00900793          	li	a5,9
    8000421c:	00f4a023          	sw	a5,0(s1)
    80004220:	04076713          	ori	a4,a4,64
    80004224:	00e41823          	sh	a4,16(s0)
    80004228:	fff00513          	li	a0,-1
    8000422c:	f01ff06f          	j	8000412c <__swsetup_r+0x64>

0000000080004230 <__call_exitprocs>:
    80004230:	fb010113          	addi	sp,sp,-80
    80004234:	03413023          	sd	s4,32(sp)
    80004238:	8301ba03          	ld	s4,-2000(gp) # 80015150 <_global_impure_ptr>
    8000423c:	03213823          	sd	s2,48(sp)
    80004240:	04113423          	sd	ra,72(sp)
    80004244:	1f8a3903          	ld	s2,504(s4)
    80004248:	04813023          	sd	s0,64(sp)
    8000424c:	02913c23          	sd	s1,56(sp)
    80004250:	03313423          	sd	s3,40(sp)
    80004254:	01513c23          	sd	s5,24(sp)
    80004258:	01613823          	sd	s6,16(sp)
    8000425c:	01713423          	sd	s7,8(sp)
    80004260:	01813023          	sd	s8,0(sp)
    80004264:	04090063          	beqz	s2,800042a4 <__call_exitprocs+0x74>
    80004268:	00050b13          	mv	s6,a0
    8000426c:	00058b93          	mv	s7,a1
    80004270:	00100a93          	li	s5,1
    80004274:	fff00993          	li	s3,-1
    80004278:	00892483          	lw	s1,8(s2)
    8000427c:	fff4841b          	addiw	s0,s1,-1
    80004280:	02044263          	bltz	s0,800042a4 <__call_exitprocs+0x74>
    80004284:	00349493          	slli	s1,s1,0x3
    80004288:	009904b3          	add	s1,s2,s1
    8000428c:	040b8463          	beqz	s7,800042d4 <__call_exitprocs+0xa4>
    80004290:	2084b783          	ld	a5,520(s1)
    80004294:	05778063          	beq	a5,s7,800042d4 <__call_exitprocs+0xa4>
    80004298:	fff4041b          	addiw	s0,s0,-1
    8000429c:	ff848493          	addi	s1,s1,-8
    800042a0:	ff3416e3          	bne	s0,s3,8000428c <__call_exitprocs+0x5c>
    800042a4:	04813083          	ld	ra,72(sp)
    800042a8:	04013403          	ld	s0,64(sp)
    800042ac:	03813483          	ld	s1,56(sp)
    800042b0:	03013903          	ld	s2,48(sp)
    800042b4:	02813983          	ld	s3,40(sp)
    800042b8:	02013a03          	ld	s4,32(sp)
    800042bc:	01813a83          	ld	s5,24(sp)
    800042c0:	01013b03          	ld	s6,16(sp)
    800042c4:	00813b83          	ld	s7,8(sp)
    800042c8:	00013c03          	ld	s8,0(sp)
    800042cc:	05010113          	addi	sp,sp,80
    800042d0:	00008067          	ret
    800042d4:	00892783          	lw	a5,8(s2)
    800042d8:	0084b703          	ld	a4,8(s1)
    800042dc:	fff7879b          	addiw	a5,a5,-1
    800042e0:	06878263          	beq	a5,s0,80004344 <__call_exitprocs+0x114>
    800042e4:	0004b423          	sd	zero,8(s1)
    800042e8:	fa0708e3          	beqz	a4,80004298 <__call_exitprocs+0x68>
    800042ec:	31092783          	lw	a5,784(s2)
    800042f0:	008a96bb          	sllw	a3,s5,s0
    800042f4:	00892c03          	lw	s8,8(s2)
    800042f8:	00d7f7b3          	and	a5,a5,a3
    800042fc:	0007879b          	sext.w	a5,a5
    80004300:	02079263          	bnez	a5,80004324 <__call_exitprocs+0xf4>
    80004304:	000700e7          	jalr	a4
    80004308:	00892703          	lw	a4,8(s2)
    8000430c:	1f8a3783          	ld	a5,504(s4)
    80004310:	01871463          	bne	a4,s8,80004318 <__call_exitprocs+0xe8>
    80004314:	f92782e3          	beq	a5,s2,80004298 <__call_exitprocs+0x68>
    80004318:	f80786e3          	beqz	a5,800042a4 <__call_exitprocs+0x74>
    8000431c:	00078913          	mv	s2,a5
    80004320:	f59ff06f          	j	80004278 <__call_exitprocs+0x48>
    80004324:	31492783          	lw	a5,788(s2)
    80004328:	1084b583          	ld	a1,264(s1)
    8000432c:	00d7f7b3          	and	a5,a5,a3
    80004330:	0007879b          	sext.w	a5,a5
    80004334:	00079c63          	bnez	a5,8000434c <__call_exitprocs+0x11c>
    80004338:	000b0513          	mv	a0,s6
    8000433c:	000700e7          	jalr	a4
    80004340:	fc9ff06f          	j	80004308 <__call_exitprocs+0xd8>
    80004344:	00892423          	sw	s0,8(s2)
    80004348:	fa1ff06f          	j	800042e8 <__call_exitprocs+0xb8>
    8000434c:	00058513          	mv	a0,a1
    80004350:	000700e7          	jalr	a4
    80004354:	fb5ff06f          	j	80004308 <__call_exitprocs+0xd8>

0000000080004358 <__sflush_r>:
    80004358:	01059783          	lh	a5,16(a1)
    8000435c:	fd010113          	addi	sp,sp,-48
    80004360:	02813023          	sd	s0,32(sp)
    80004364:	01313423          	sd	s3,8(sp)
    80004368:	02113423          	sd	ra,40(sp)
    8000436c:	00913c23          	sd	s1,24(sp)
    80004370:	01213823          	sd	s2,16(sp)
    80004374:	0087f693          	andi	a3,a5,8
    80004378:	00058413          	mv	s0,a1
    8000437c:	00050993          	mv	s3,a0
    80004380:	10069c63          	bnez	a3,80004498 <__sflush_r+0x140>
    80004384:	00001737          	lui	a4,0x1
    80004388:	80070713          	addi	a4,a4,-2048 # 800 <_start-0x7ffff81c>
    8000438c:	0085a683          	lw	a3,8(a1)
    80004390:	00e7e7b3          	or	a5,a5,a4
    80004394:	00f59823          	sh	a5,16(a1)
    80004398:	18d05663          	blez	a3,80004524 <__sflush_r+0x1cc>
    8000439c:	04843703          	ld	a4,72(s0)
    800043a0:	0c070c63          	beqz	a4,80004478 <__sflush_r+0x120>
    800043a4:	03079793          	slli	a5,a5,0x30
    800043a8:	0307d793          	srli	a5,a5,0x30
    800043ac:	000016b7          	lui	a3,0x1
    800043b0:	0009a483          	lw	s1,0(s3)
    800043b4:	00d7f6b3          	and	a3,a5,a3
    800043b8:	0009a023          	sw	zero,0(s3)
    800043bc:	03043583          	ld	a1,48(s0)
    800043c0:	16069863          	bnez	a3,80004530 <__sflush_r+0x1d8>
    800043c4:	00000613          	li	a2,0
    800043c8:	00100693          	li	a3,1
    800043cc:	00098513          	mv	a0,s3
    800043d0:	000700e7          	jalr	a4
    800043d4:	fff00793          	li	a5,-1
    800043d8:	00050613          	mv	a2,a0
    800043dc:	18f50c63          	beq	a0,a5,80004574 <__sflush_r+0x21c>
    800043e0:	01045783          	lhu	a5,16(s0)
    800043e4:	04843703          	ld	a4,72(s0)
    800043e8:	03043583          	ld	a1,48(s0)
    800043ec:	0047f793          	andi	a5,a5,4
    800043f0:	00078e63          	beqz	a5,8000440c <__sflush_r+0xb4>
    800043f4:	00842683          	lw	a3,8(s0)
    800043f8:	05843783          	ld	a5,88(s0)
    800043fc:	40d60633          	sub	a2,a2,a3
    80004400:	00078663          	beqz	a5,8000440c <__sflush_r+0xb4>
    80004404:	07042783          	lw	a5,112(s0)
    80004408:	40f60633          	sub	a2,a2,a5
    8000440c:	00000693          	li	a3,0
    80004410:	00098513          	mv	a0,s3
    80004414:	000700e7          	jalr	a4
    80004418:	fff00793          	li	a5,-1
    8000441c:	10f51e63          	bne	a0,a5,80004538 <__sflush_r+0x1e0>
    80004420:	0009a703          	lw	a4,0(s3)
    80004424:	01041783          	lh	a5,16(s0)
    80004428:	16070863          	beqz	a4,80004598 <__sflush_r+0x240>
    8000442c:	01d00693          	li	a3,29
    80004430:	00d70663          	beq	a4,a3,8000443c <__sflush_r+0xe4>
    80004434:	01600693          	li	a3,22
    80004438:	16d71a63          	bne	a4,a3,800045ac <__sflush_r+0x254>
    8000443c:	01843683          	ld	a3,24(s0)
    80004440:	fffff737          	lui	a4,0xfffff
    80004444:	7ff70713          	addi	a4,a4,2047 # fffffffffffff7ff <t0.2038+0xffffffff7ffc2bb7>
    80004448:	00e7f7b3          	and	a5,a5,a4
    8000444c:	00f41823          	sh	a5,16(s0)
    80004450:	00042423          	sw	zero,8(s0)
    80004454:	00d43023          	sd	a3,0(s0)
    80004458:	05843583          	ld	a1,88(s0)
    8000445c:	0099a023          	sw	s1,0(s3)
    80004460:	00058c63          	beqz	a1,80004478 <__sflush_r+0x120>
    80004464:	07440793          	addi	a5,s0,116
    80004468:	00f58663          	beq	a1,a5,80004474 <__sflush_r+0x11c>
    8000446c:	00098513          	mv	a0,s3
    80004470:	750000ef          	jal	ra,80004bc0 <_free_r>
    80004474:	04043c23          	sd	zero,88(s0)
    80004478:	00000513          	li	a0,0
    8000447c:	02813083          	ld	ra,40(sp)
    80004480:	02013403          	ld	s0,32(sp)
    80004484:	01813483          	ld	s1,24(sp)
    80004488:	01013903          	ld	s2,16(sp)
    8000448c:	00813983          	ld	s3,8(sp)
    80004490:	03010113          	addi	sp,sp,48
    80004494:	00008067          	ret
    80004498:	0185b903          	ld	s2,24(a1)
    8000449c:	fc090ee3          	beqz	s2,80004478 <__sflush_r+0x120>
    800044a0:	0005b483          	ld	s1,0(a1)
    800044a4:	03079713          	slli	a4,a5,0x30
    800044a8:	03075713          	srli	a4,a4,0x30
    800044ac:	00377713          	andi	a4,a4,3
    800044b0:	0125b023          	sd	s2,0(a1)
    800044b4:	412484bb          	subw	s1,s1,s2
    800044b8:	00000793          	li	a5,0
    800044bc:	00071463          	bnez	a4,800044c4 <__sflush_r+0x16c>
    800044c0:	0205a783          	lw	a5,32(a1)
    800044c4:	00f42623          	sw	a5,12(s0)
    800044c8:	00904863          	bgtz	s1,800044d8 <__sflush_r+0x180>
    800044cc:	fadff06f          	j	80004478 <__sflush_r+0x120>
    800044d0:	00a90933          	add	s2,s2,a0
    800044d4:	fa9052e3          	blez	s1,80004478 <__sflush_r+0x120>
    800044d8:	04043783          	ld	a5,64(s0)
    800044dc:	03043583          	ld	a1,48(s0)
    800044e0:	00048693          	mv	a3,s1
    800044e4:	00090613          	mv	a2,s2
    800044e8:	00098513          	mv	a0,s3
    800044ec:	000780e7          	jalr	a5
    800044f0:	40a484bb          	subw	s1,s1,a0
    800044f4:	fca04ee3          	bgtz	a0,800044d0 <__sflush_r+0x178>
    800044f8:	01045783          	lhu	a5,16(s0)
    800044fc:	02813083          	ld	ra,40(sp)
    80004500:	01813483          	ld	s1,24(sp)
    80004504:	0407e793          	ori	a5,a5,64
    80004508:	00f41823          	sh	a5,16(s0)
    8000450c:	02013403          	ld	s0,32(sp)
    80004510:	01013903          	ld	s2,16(sp)
    80004514:	00813983          	ld	s3,8(sp)
    80004518:	fff00513          	li	a0,-1
    8000451c:	03010113          	addi	sp,sp,48
    80004520:	00008067          	ret
    80004524:	0705a703          	lw	a4,112(a1)
    80004528:	e6e04ae3          	bgtz	a4,8000439c <__sflush_r+0x44>
    8000452c:	f4dff06f          	j	80004478 <__sflush_r+0x120>
    80004530:	09043603          	ld	a2,144(s0)
    80004534:	eb9ff06f          	j	800043ec <__sflush_r+0x94>
    80004538:	01045783          	lhu	a5,16(s0)
    8000453c:	fffff737          	lui	a4,0xfffff
    80004540:	7ff70713          	addi	a4,a4,2047 # fffffffffffff7ff <t0.2038+0xffffffff7ffc2bb7>
    80004544:	00e7f7b3          	and	a5,a5,a4
    80004548:	01843683          	ld	a3,24(s0)
    8000454c:	0107979b          	slliw	a5,a5,0x10
    80004550:	4107d79b          	sraiw	a5,a5,0x10
    80004554:	00001737          	lui	a4,0x1
    80004558:	00f41823          	sh	a5,16(s0)
    8000455c:	00042423          	sw	zero,8(s0)
    80004560:	00d43023          	sd	a3,0(s0)
    80004564:	00e7f7b3          	and	a5,a5,a4
    80004568:	ee0788e3          	beqz	a5,80004458 <__sflush_r+0x100>
    8000456c:	08a43823          	sd	a0,144(s0)
    80004570:	ee9ff06f          	j	80004458 <__sflush_r+0x100>
    80004574:	0009a783          	lw	a5,0(s3)
    80004578:	e60784e3          	beqz	a5,800043e0 <__sflush_r+0x88>
    8000457c:	01d00713          	li	a4,29
    80004580:	00e78663          	beq	a5,a4,8000458c <__sflush_r+0x234>
    80004584:	01600713          	li	a4,22
    80004588:	f6e798e3          	bne	a5,a4,800044f8 <__sflush_r+0x1a0>
    8000458c:	0099a023          	sw	s1,0(s3)
    80004590:	00000513          	li	a0,0
    80004594:	ee9ff06f          	j	8000447c <__sflush_r+0x124>
    80004598:	fffff737          	lui	a4,0xfffff
    8000459c:	7ff70713          	addi	a4,a4,2047 # fffffffffffff7ff <t0.2038+0xffffffff7ffc2bb7>
    800045a0:	01843683          	ld	a3,24(s0)
    800045a4:	00e7f7b3          	and	a5,a5,a4
    800045a8:	fadff06f          	j	80004554 <__sflush_r+0x1fc>
    800045ac:	0407e793          	ori	a5,a5,64
    800045b0:	00f41823          	sh	a5,16(s0)
    800045b4:	fff00513          	li	a0,-1
    800045b8:	ec5ff06f          	j	8000447c <__sflush_r+0x124>

00000000800045bc <_fflush_r>:
    800045bc:	fe010113          	addi	sp,sp,-32
    800045c0:	00813823          	sd	s0,16(sp)
    800045c4:	00113c23          	sd	ra,24(sp)
    800045c8:	00050413          	mv	s0,a0
    800045cc:	00050663          	beqz	a0,800045d8 <_fflush_r+0x1c>
    800045d0:	05052783          	lw	a5,80(a0)
    800045d4:	02078063          	beqz	a5,800045f4 <_fflush_r+0x38>
    800045d8:	01059783          	lh	a5,16(a1)
    800045dc:	02079663          	bnez	a5,80004608 <_fflush_r+0x4c>
    800045e0:	01813083          	ld	ra,24(sp)
    800045e4:	01013403          	ld	s0,16(sp)
    800045e8:	00000513          	li	a0,0
    800045ec:	02010113          	addi	sp,sp,32
    800045f0:	00008067          	ret
    800045f4:	00b13423          	sd	a1,8(sp)
    800045f8:	3f0000ef          	jal	ra,800049e8 <__sinit>
    800045fc:	00813583          	ld	a1,8(sp)
    80004600:	01059783          	lh	a5,16(a1)
    80004604:	fc078ee3          	beqz	a5,800045e0 <_fflush_r+0x24>
    80004608:	00040513          	mv	a0,s0
    8000460c:	01013403          	ld	s0,16(sp)
    80004610:	01813083          	ld	ra,24(sp)
    80004614:	02010113          	addi	sp,sp,32
    80004618:	d41ff06f          	j	80004358 <__sflush_r>

000000008000461c <fflush>:
    8000461c:	06050663          	beqz	a0,80004688 <fflush+0x6c>
    80004620:	fe010113          	addi	sp,sp,-32
    80004624:	00813823          	sd	s0,16(sp)
    80004628:	00050413          	mv	s0,a0
    8000462c:	8401b503          	ld	a0,-1984(gp) # 80015160 <_impure_ptr>
    80004630:	00113c23          	sd	ra,24(sp)
    80004634:	00050663          	beqz	a0,80004640 <fflush+0x24>
    80004638:	05052783          	lw	a5,80(a0)
    8000463c:	02078a63          	beqz	a5,80004670 <fflush+0x54>
    80004640:	01041783          	lh	a5,16(s0)
    80004644:	00079c63          	bnez	a5,8000465c <fflush+0x40>
    80004648:	01813083          	ld	ra,24(sp)
    8000464c:	01013403          	ld	s0,16(sp)
    80004650:	00000513          	li	a0,0
    80004654:	02010113          	addi	sp,sp,32
    80004658:	00008067          	ret
    8000465c:	00040593          	mv	a1,s0
    80004660:	01013403          	ld	s0,16(sp)
    80004664:	01813083          	ld	ra,24(sp)
    80004668:	02010113          	addi	sp,sp,32
    8000466c:	cedff06f          	j	80004358 <__sflush_r>
    80004670:	00a13423          	sd	a0,8(sp)
    80004674:	374000ef          	jal	ra,800049e8 <__sinit>
    80004678:	01041783          	lh	a5,16(s0)
    8000467c:	00813503          	ld	a0,8(sp)
    80004680:	fc0784e3          	beqz	a5,80004648 <fflush+0x2c>
    80004684:	fd9ff06f          	j	8000465c <fflush+0x40>
    80004688:	8301b503          	ld	a0,-2000(gp) # 80015150 <_global_impure_ptr>
    8000468c:	000145b7          	lui	a1,0x14
    80004690:	66c58593          	addi	a1,a1,1644 # 1466c <_start-0x7ffeb9b0>
    80004694:	5c50006f          	j	80005458 <_fwalk_reent>
    80004698:	00000513          	li	a0,0
    8000469c:	00008067          	ret

00000000800046a0 <_cleanup_r>:
    800046a0:	0001f5b7          	lui	a1,0x1f
    800046a4:	92458593          	addi	a1,a1,-1756 # 1e924 <_start-0x7ffe16f8>
    800046a8:	5b10006f          	j	80005458 <_fwalk_reent>
    800046ac:	00000513          	li	a0,0
    800046b0:	00008067          	ret
    800046b4:	fc010113          	addi	sp,sp,-64
    800046b8:	000147b7          	lui	a5,0x14
    800046bc:	02113c23          	sd	ra,56(sp)
    800046c0:	02813823          	sd	s0,48(sp)
    800046c4:	02913423          	sd	s1,40(sp)
    800046c8:	03213023          	sd	s2,32(sp)
    800046cc:	01313c23          	sd	s3,24(sp)
    800046d0:	01413823          	sd	s4,16(sp)
    800046d4:	01513423          	sd	s5,8(sp)
    800046d8:	01613023          	sd	s6,0(sp)
    800046dc:	00853403          	ld	s0,8(a0)
    800046e0:	75078793          	addi	a5,a5,1872 # 14750 <_start-0x7ffeb8cc>
    800046e4:	04f53c23          	sd	a5,88(a0)
    800046e8:	53850713          	addi	a4,a0,1336
    800046ec:	00300793          	li	a5,3
    800046f0:	52e53823          	sd	a4,1328(a0)
    800046f4:	52f52423          	sw	a5,1320(a0)
    800046f8:	52053023          	sd	zero,1312(a0)
    800046fc:	00400793          	li	a5,4
    80004700:	00050913          	mv	s2,a0
    80004704:	00f42823          	sw	a5,16(s0)
    80004708:	00800613          	li	a2,8
    8000470c:	00000593          	li	a1,0
    80004710:	0a042623          	sw	zero,172(s0)
    80004714:	00043023          	sd	zero,0(s0)
    80004718:	00043423          	sd	zero,8(s0)
    8000471c:	00043c23          	sd	zero,24(s0)
    80004720:	02042023          	sw	zero,32(s0)
    80004724:	02042423          	sw	zero,40(s0)
    80004728:	0a440513          	addi	a0,s0,164
    8000472c:	b99fc0ef          	jal	ra,800012c4 <memset>
    80004730:	0001bb37          	lui	s6,0x1b
    80004734:	01093483          	ld	s1,16(s2)
    80004738:	0001bab7          	lui	s5,0x1b
    8000473c:	0001ba37          	lui	s4,0x1b
    80004740:	0001b9b7          	lui	s3,0x1b
    80004744:	9ecb0b13          	addi	s6,s6,-1556 # 1a9ec <_start-0x7ffe5630>
    80004748:	a50a8a93          	addi	s5,s5,-1456 # 1aa50 <_start-0x7ffe55cc>
    8000474c:	ad8a0a13          	addi	s4,s4,-1320 # 1aad8 <_start-0x7ffe5544>
    80004750:	b4098993          	addi	s3,s3,-1216 # 1ab40 <_start-0x7ffe54dc>
    80004754:	000107b7          	lui	a5,0x10
    80004758:	03643c23          	sd	s6,56(s0)
    8000475c:	05543023          	sd	s5,64(s0)
    80004760:	05443423          	sd	s4,72(s0)
    80004764:	05343823          	sd	s3,80(s0)
    80004768:	02843823          	sd	s0,48(s0)
    8000476c:	00978793          	addi	a5,a5,9 # 10009 <_start-0x7fff0013>
    80004770:	00f4a823          	sw	a5,16(s1)
    80004774:	00800613          	li	a2,8
    80004778:	00000593          	li	a1,0
    8000477c:	0a04a623          	sw	zero,172(s1)
    80004780:	0004b023          	sd	zero,0(s1)
    80004784:	0004b423          	sd	zero,8(s1)
    80004788:	0004bc23          	sd	zero,24(s1)
    8000478c:	0204a023          	sw	zero,32(s1)
    80004790:	0204a423          	sw	zero,40(s1)
    80004794:	0a448513          	addi	a0,s1,164
    80004798:	b2dfc0ef          	jal	ra,800012c4 <memset>
    8000479c:	01893403          	ld	s0,24(s2)
    800047a0:	000207b7          	lui	a5,0x20
    800047a4:	0364bc23          	sd	s6,56(s1)
    800047a8:	0554b023          	sd	s5,64(s1)
    800047ac:	0544b423          	sd	s4,72(s1)
    800047b0:	0534b823          	sd	s3,80(s1)
    800047b4:	0294b823          	sd	s1,48(s1)
    800047b8:	01278793          	addi	a5,a5,18 # 20012 <_start-0x7ffe000a>
    800047bc:	00f42823          	sw	a5,16(s0)
    800047c0:	0a042623          	sw	zero,172(s0)
    800047c4:	00043023          	sd	zero,0(s0)
    800047c8:	00043423          	sd	zero,8(s0)
    800047cc:	00043c23          	sd	zero,24(s0)
    800047d0:	02042023          	sw	zero,32(s0)
    800047d4:	02042423          	sw	zero,40(s0)
    800047d8:	0a440513          	addi	a0,s0,164
    800047dc:	00800613          	li	a2,8
    800047e0:	00000593          	li	a1,0
    800047e4:	ae1fc0ef          	jal	ra,800012c4 <memset>
    800047e8:	03813083          	ld	ra,56(sp)
    800047ec:	03643c23          	sd	s6,56(s0)
    800047f0:	05543023          	sd	s5,64(s0)
    800047f4:	05443423          	sd	s4,72(s0)
    800047f8:	05343823          	sd	s3,80(s0)
    800047fc:	02843823          	sd	s0,48(s0)
    80004800:	03013403          	ld	s0,48(sp)
    80004804:	00100793          	li	a5,1
    80004808:	04f92823          	sw	a5,80(s2)
    8000480c:	02813483          	ld	s1,40(sp)
    80004810:	02013903          	ld	s2,32(sp)
    80004814:	01813983          	ld	s3,24(sp)
    80004818:	01013a03          	ld	s4,16(sp)
    8000481c:	00813a83          	ld	s5,8(sp)
    80004820:	00013b03          	ld	s6,0(sp)
    80004824:	04010113          	addi	sp,sp,64
    80004828:	00008067          	ret

000000008000482c <__sfmoreglue>:
    8000482c:	fe010113          	addi	sp,sp,-32
    80004830:	00913423          	sd	s1,8(sp)
    80004834:	0b000613          	li	a2,176
    80004838:	fff5849b          	addiw	s1,a1,-1
    8000483c:	02c484b3          	mul	s1,s1,a2
    80004840:	01213023          	sd	s2,0(sp)
    80004844:	00058913          	mv	s2,a1
    80004848:	00813823          	sd	s0,16(sp)
    8000484c:	00113c23          	sd	ra,24(sp)
    80004850:	0c848593          	addi	a1,s1,200
    80004854:	429030ef          	jal	ra,8000847c <_malloc_r>
    80004858:	00050413          	mv	s0,a0
    8000485c:	02050063          	beqz	a0,8000487c <__sfmoreglue+0x50>
    80004860:	01850513          	addi	a0,a0,24
    80004864:	00043023          	sd	zero,0(s0)
    80004868:	01242423          	sw	s2,8(s0)
    8000486c:	00a43823          	sd	a0,16(s0)
    80004870:	0b048613          	addi	a2,s1,176
    80004874:	00000593          	li	a1,0
    80004878:	a4dfc0ef          	jal	ra,800012c4 <memset>
    8000487c:	01813083          	ld	ra,24(sp)
    80004880:	00040513          	mv	a0,s0
    80004884:	01013403          	ld	s0,16(sp)
    80004888:	00813483          	ld	s1,8(sp)
    8000488c:	00013903          	ld	s2,0(sp)
    80004890:	02010113          	addi	sp,sp,32
    80004894:	00008067          	ret

0000000080004898 <__sfp>:
    80004898:	fd010113          	addi	sp,sp,-48
    8000489c:	00913c23          	sd	s1,24(sp)
    800048a0:	8301b483          	ld	s1,-2000(gp) # 80015150 <_global_impure_ptr>
    800048a4:	01213823          	sd	s2,16(sp)
    800048a8:	02113423          	sd	ra,40(sp)
    800048ac:	0504a783          	lw	a5,80(s1)
    800048b0:	02813023          	sd	s0,32(sp)
    800048b4:	01313423          	sd	s3,8(sp)
    800048b8:	01413023          	sd	s4,0(sp)
    800048bc:	00050913          	mv	s2,a0
    800048c0:	0c078063          	beqz	a5,80004980 <__sfp+0xe8>
    800048c4:	52048493          	addi	s1,s1,1312
    800048c8:	0b000993          	li	s3,176
    800048cc:	00400a13          	li	s4,4
    800048d0:	0084a783          	lw	a5,8(s1)
    800048d4:	0104b403          	ld	s0,16(s1)
    800048d8:	08f05c63          	blez	a5,80004970 <__sfp+0xd8>
    800048dc:	fff7879b          	addiw	a5,a5,-1
    800048e0:	02079793          	slli	a5,a5,0x20
    800048e4:	0207d793          	srli	a5,a5,0x20
    800048e8:	00178793          	addi	a5,a5,1
    800048ec:	033787b3          	mul	a5,a5,s3
    800048f0:	00f407b3          	add	a5,s0,a5
    800048f4:	00c0006f          	j	80004900 <__sfp+0x68>
    800048f8:	0b040413          	addi	s0,s0,176
    800048fc:	06f40a63          	beq	s0,a5,80004970 <__sfp+0xd8>
    80004900:	01041703          	lh	a4,16(s0)
    80004904:	fe071ae3          	bnez	a4,800048f8 <__sfp+0x60>
    80004908:	ffff07b7          	lui	a5,0xffff0
    8000490c:	00178793          	addi	a5,a5,1 # ffffffffffff0001 <t0.2038+0xffffffff7ffb33b9>
    80004910:	0a042623          	sw	zero,172(s0)
    80004914:	00043023          	sd	zero,0(s0)
    80004918:	00043423          	sd	zero,8(s0)
    8000491c:	00f42823          	sw	a5,16(s0)
    80004920:	00043c23          	sd	zero,24(s0)
    80004924:	02042023          	sw	zero,32(s0)
    80004928:	02042423          	sw	zero,40(s0)
    8000492c:	00800613          	li	a2,8
    80004930:	00000593          	li	a1,0
    80004934:	0a440513          	addi	a0,s0,164
    80004938:	98dfc0ef          	jal	ra,800012c4 <memset>
    8000493c:	04043c23          	sd	zero,88(s0)
    80004940:	06042023          	sw	zero,96(s0)
    80004944:	06043c23          	sd	zero,120(s0)
    80004948:	08042023          	sw	zero,128(s0)
    8000494c:	02813083          	ld	ra,40(sp)
    80004950:	00040513          	mv	a0,s0
    80004954:	02013403          	ld	s0,32(sp)
    80004958:	01813483          	ld	s1,24(sp)
    8000495c:	01013903          	ld	s2,16(sp)
    80004960:	00813983          	ld	s3,8(sp)
    80004964:	00013a03          	ld	s4,0(sp)
    80004968:	03010113          	addi	sp,sp,48
    8000496c:	00008067          	ret
    80004970:	0004b403          	ld	s0,0(s1)
    80004974:	00040c63          	beqz	s0,8000498c <__sfp+0xf4>
    80004978:	00040493          	mv	s1,s0
    8000497c:	f55ff06f          	j	800048d0 <__sfp+0x38>
    80004980:	00048513          	mv	a0,s1
    80004984:	d31ff0ef          	jal	ra,800046b4 <_cleanup_r+0x14>
    80004988:	f3dff06f          	j	800048c4 <__sfp+0x2c>
    8000498c:	2d800593          	li	a1,728
    80004990:	00090513          	mv	a0,s2
    80004994:	2e9030ef          	jal	ra,8000847c <_malloc_r>
    80004998:	00050413          	mv	s0,a0
    8000499c:	02050663          	beqz	a0,800049c8 <__sfp+0x130>
    800049a0:	01850513          	addi	a0,a0,24
    800049a4:	00043023          	sd	zero,0(s0)
    800049a8:	01442423          	sw	s4,8(s0)
    800049ac:	00a43823          	sd	a0,16(s0)
    800049b0:	2c000613          	li	a2,704
    800049b4:	00000593          	li	a1,0
    800049b8:	90dfc0ef          	jal	ra,800012c4 <memset>
    800049bc:	0084b023          	sd	s0,0(s1)
    800049c0:	00040493          	mv	s1,s0
    800049c4:	f0dff06f          	j	800048d0 <__sfp+0x38>
    800049c8:	0004b023          	sd	zero,0(s1)
    800049cc:	00c00793          	li	a5,12
    800049d0:	00f92023          	sw	a5,0(s2)
    800049d4:	f79ff06f          	j	8000494c <__sfp+0xb4>

00000000800049d8 <_cleanup>:
    800049d8:	8301b503          	ld	a0,-2000(gp) # 80015150 <_global_impure_ptr>
    800049dc:	0001f5b7          	lui	a1,0x1f
    800049e0:	92458593          	addi	a1,a1,-1756 # 1e924 <_start-0x7ffe16f8>
    800049e4:	2750006f          	j	80005458 <_fwalk_reent>

00000000800049e8 <__sinit>:
    800049e8:	05052783          	lw	a5,80(a0)
    800049ec:	00078463          	beqz	a5,800049f4 <__sinit+0xc>
    800049f0:	00008067          	ret
    800049f4:	cc1ff06f          	j	800046b4 <_cleanup_r+0x14>

00000000800049f8 <__sfp_lock_acquire>:
    800049f8:	00008067          	ret

00000000800049fc <__sfp_lock_release>:
    800049fc:	00008067          	ret

0000000080004a00 <__sinit_lock_acquire>:
    80004a00:	00008067          	ret

0000000080004a04 <__sinit_lock_release>:
    80004a04:	00008067          	ret

0000000080004a08 <__fp_lock_all>:
    80004a08:	8401b503          	ld	a0,-1984(gp) # 80015160 <_impure_ptr>
    80004a0c:	000145b7          	lui	a1,0x14
    80004a10:	74858593          	addi	a1,a1,1864 # 14748 <_start-0x7ffeb8d4>
    80004a14:	1810006f          	j	80005394 <_fwalk>

0000000080004a18 <__fp_unlock_all>:
    80004a18:	8401b503          	ld	a0,-1984(gp) # 80015160 <_impure_ptr>
    80004a1c:	000145b7          	lui	a1,0x14
    80004a20:	75c58593          	addi	a1,a1,1884 # 1475c <_start-0x7ffeb8c0>
    80004a24:	1710006f          	j	80005394 <_fwalk>

0000000080004a28 <__libc_fini_array>:
    80004a28:	fe010113          	addi	sp,sp,-32
    80004a2c:	00813823          	sd	s0,16(sp)
    80004a30:	000247b7          	lui	a5,0x24
    80004a34:	00024437          	lui	s0,0x24
    80004a38:	01840413          	addi	s0,s0,24 # 24018 <_start-0x7ffdc004>
    80004a3c:	02078793          	addi	a5,a5,32 # 24020 <_start-0x7ffdbffc>
    80004a40:	408787b3          	sub	a5,a5,s0
    80004a44:	00913423          	sd	s1,8(sp)
    80004a48:	00113c23          	sd	ra,24(sp)
    80004a4c:	4037d493          	srai	s1,a5,0x3
    80004a50:	02048063          	beqz	s1,80004a70 <__libc_fini_array+0x48>
    80004a54:	ff878793          	addi	a5,a5,-8
    80004a58:	00878433          	add	s0,a5,s0
    80004a5c:	00043783          	ld	a5,0(s0)
    80004a60:	fff48493          	addi	s1,s1,-1
    80004a64:	ff840413          	addi	s0,s0,-8
    80004a68:	000780e7          	jalr	a5
    80004a6c:	fe0498e3          	bnez	s1,80004a5c <__libc_fini_array+0x34>
    80004a70:	01813083          	ld	ra,24(sp)
    80004a74:	01013403          	ld	s0,16(sp)
    80004a78:	00813483          	ld	s1,8(sp)
    80004a7c:	02010113          	addi	sp,sp,32
    80004a80:	00008067          	ret

0000000080004a84 <_malloc_trim_r>:
    80004a84:	fd010113          	addi	sp,sp,-48
    80004a88:	01313423          	sd	s3,8(sp)
    80004a8c:	000259b7          	lui	s3,0x25
    80004a90:	02813023          	sd	s0,32(sp)
    80004a94:	00913c23          	sd	s1,24(sp)
    80004a98:	01213823          	sd	s2,16(sp)
    80004a9c:	01413023          	sd	s4,0(sp)
    80004aa0:	02113423          	sd	ra,40(sp)
    80004aa4:	00058a13          	mv	s4,a1
    80004aa8:	00050913          	mv	s2,a0
    80004aac:	91098993          	addi	s3,s3,-1776 # 24910 <_start-0x7ffdb70c>
    80004ab0:	43c040ef          	jal	ra,80008eec <__malloc_lock>
    80004ab4:	0109b703          	ld	a4,16(s3)
    80004ab8:	000017b7          	lui	a5,0x1
    80004abc:	fdf78413          	addi	s0,a5,-33 # fdf <_start-0x7ffff03d>
    80004ac0:	00873483          	ld	s1,8(a4)
    80004ac4:	41440433          	sub	s0,s0,s4
    80004ac8:	ffc4f493          	andi	s1,s1,-4
    80004acc:	00940433          	add	s0,s0,s1
    80004ad0:	00c45413          	srli	s0,s0,0xc
    80004ad4:	fff40413          	addi	s0,s0,-1
    80004ad8:	00c41413          	slli	s0,s0,0xc
    80004adc:	00f44e63          	blt	s0,a5,80004af8 <_malloc_trim_r+0x74>
    80004ae0:	00000593          	li	a1,0
    80004ae4:	00090513          	mv	a0,s2
    80004ae8:	459050ef          	jal	ra,8000a740 <_sbrk_r>
    80004aec:	0109b783          	ld	a5,16(s3)
    80004af0:	009787b3          	add	a5,a5,s1
    80004af4:	02f50863          	beq	a0,a5,80004b24 <_malloc_trim_r+0xa0>
    80004af8:	00090513          	mv	a0,s2
    80004afc:	3f4040ef          	jal	ra,80008ef0 <__malloc_unlock>
    80004b00:	02813083          	ld	ra,40(sp)
    80004b04:	02013403          	ld	s0,32(sp)
    80004b08:	01813483          	ld	s1,24(sp)
    80004b0c:	01013903          	ld	s2,16(sp)
    80004b10:	00813983          	ld	s3,8(sp)
    80004b14:	00013a03          	ld	s4,0(sp)
    80004b18:	00000513          	li	a0,0
    80004b1c:	03010113          	addi	sp,sp,48
    80004b20:	00008067          	ret
    80004b24:	408005b3          	neg	a1,s0
    80004b28:	00090513          	mv	a0,s2
    80004b2c:	415050ef          	jal	ra,8000a740 <_sbrk_r>
    80004b30:	fff00793          	li	a5,-1
    80004b34:	04f50a63          	beq	a0,a5,80004b88 <_malloc_trim_r+0x104>
    80004b38:	000287b7          	lui	a5,0x28
    80004b3c:	a2878793          	addi	a5,a5,-1496 # 27a28 <_start-0x7ffd85f4>
    80004b40:	0007a703          	lw	a4,0(a5)
    80004b44:	0109b683          	ld	a3,16(s3)
    80004b48:	408484b3          	sub	s1,s1,s0
    80004b4c:	0014e493          	ori	s1,s1,1
    80004b50:	4087043b          	subw	s0,a4,s0
    80004b54:	00090513          	mv	a0,s2
    80004b58:	0096b423          	sd	s1,8(a3) # 1008 <_start-0x7ffff014>
    80004b5c:	0087a023          	sw	s0,0(a5)
    80004b60:	390040ef          	jal	ra,80008ef0 <__malloc_unlock>
    80004b64:	02813083          	ld	ra,40(sp)
    80004b68:	02013403          	ld	s0,32(sp)
    80004b6c:	01813483          	ld	s1,24(sp)
    80004b70:	01013903          	ld	s2,16(sp)
    80004b74:	00813983          	ld	s3,8(sp)
    80004b78:	00013a03          	ld	s4,0(sp)
    80004b7c:	00100513          	li	a0,1
    80004b80:	03010113          	addi	sp,sp,48
    80004b84:	00008067          	ret
    80004b88:	00000593          	li	a1,0
    80004b8c:	00090513          	mv	a0,s2
    80004b90:	3b1050ef          	jal	ra,8000a740 <_sbrk_r>
    80004b94:	0109b703          	ld	a4,16(s3)
    80004b98:	01f00693          	li	a3,31
    80004b9c:	40e507b3          	sub	a5,a0,a4
    80004ba0:	f4f6dce3          	bge	a3,a5,80004af8 <_malloc_trim_r+0x74>
    80004ba4:	8481b683          	ld	a3,-1976(gp) # 80015168 <__malloc_sbrk_base>
    80004ba8:	0017e793          	ori	a5,a5,1
    80004bac:	00f73423          	sd	a5,8(a4)
    80004bb0:	40d50533          	sub	a0,a0,a3
    80004bb4:	000286b7          	lui	a3,0x28
    80004bb8:	a2a6a423          	sw	a0,-1496(a3) # 27a28 <_start-0x7ffd85f4>
    80004bbc:	f3dff06f          	j	80004af8 <_malloc_trim_r+0x74>

0000000080004bc0 <_free_r>:
    80004bc0:	12058e63          	beqz	a1,80004cfc <_free_r+0x13c>
    80004bc4:	fe010113          	addi	sp,sp,-32
    80004bc8:	00813823          	sd	s0,16(sp)
    80004bcc:	00913423          	sd	s1,8(sp)
    80004bd0:	00058413          	mv	s0,a1
    80004bd4:	00050493          	mv	s1,a0
    80004bd8:	00113c23          	sd	ra,24(sp)
    80004bdc:	310040ef          	jal	ra,80008eec <__malloc_lock>
    80004be0:	ff843503          	ld	a0,-8(s0)
    80004be4:	ff040713          	addi	a4,s0,-16
    80004be8:	000255b7          	lui	a1,0x25
    80004bec:	ffe57793          	andi	a5,a0,-2
    80004bf0:	00f70633          	add	a2,a4,a5
    80004bf4:	91058593          	addi	a1,a1,-1776 # 24910 <_start-0x7ffdb70c>
    80004bf8:	00863683          	ld	a3,8(a2)
    80004bfc:	0105b803          	ld	a6,16(a1)
    80004c00:	ffc6f693          	andi	a3,a3,-4
    80004c04:	1cc80063          	beq	a6,a2,80004dc4 <_free_r+0x204>
    80004c08:	00d63423          	sd	a3,8(a2)
    80004c0c:	00157513          	andi	a0,a0,1
    80004c10:	00d60833          	add	a6,a2,a3
    80004c14:	0a051463          	bnez	a0,80004cbc <_free_r+0xfc>
    80004c18:	ff043303          	ld	t1,-16(s0)
    80004c1c:	00883803          	ld	a6,8(a6)
    80004c20:	00025537          	lui	a0,0x25
    80004c24:	40670733          	sub	a4,a4,t1
    80004c28:	01073883          	ld	a7,16(a4)
    80004c2c:	92050513          	addi	a0,a0,-1760 # 24920 <_start-0x7ffdb6fc>
    80004c30:	006787b3          	add	a5,a5,t1
    80004c34:	00187813          	andi	a6,a6,1
    80004c38:	14a88663          	beq	a7,a0,80004d84 <_free_r+0x1c4>
    80004c3c:	01873303          	ld	t1,24(a4)
    80004c40:	0068bc23          	sd	t1,24(a7)
    80004c44:	01133823          	sd	a7,16(t1)
    80004c48:	1e080863          	beqz	a6,80004e38 <_free_r+0x278>
    80004c4c:	0017e693          	ori	a3,a5,1
