
/home/lx/work/nutshell/nexus-am/apps/dhrystone/build/dhrystone-riscv64-nutshell.elf：     文件格式 elf64-littleriscv


Disassembly of section .text:

0000000080000000 <_start>:
    80000000:	00000413          	li	s0,0
    80000004:	0000d117          	auipc	sp,0xd
    80000008:	ffc10113          	addi	sp,sp,-4 # 8000d000 <_end>
    8000000c:	4b9000ef          	jal	ra,80000cc4 <_trm_init>

0000000080000010 <Proc_2>:
    80000010:	00005717          	auipc	a4,0x5
    80000014:	a9c74703          	lbu	a4,-1380(a4) # 80004aac <Ch_1_Glob>
    80000018:	04100793          	li	a5,65
    8000001c:	00f70463          	beq	a4,a5,80000024 <Proc_2+0x14>
    80000020:	00008067          	ret
    80000024:	00052783          	lw	a5,0(a0)
    80000028:	00005717          	auipc	a4,0x5
    8000002c:	a8072703          	lw	a4,-1408(a4) # 80004aa8 <Int_Glob>
    80000030:	0097879b          	addiw	a5,a5,9
    80000034:	40e787bb          	subw	a5,a5,a4
    80000038:	00f52023          	sw	a5,0(a0)
    8000003c:	00008067          	ret

0000000080000040 <Proc_3>:
    80000040:	00005717          	auipc	a4,0x5
    80000044:	a7070713          	addi	a4,a4,-1424 # 80004ab0 <Ptr_Glob>
    80000048:	00073783          	ld	a5,0(a4)
    8000004c:	00078863          	beqz	a5,8000005c <Proc_3+0x1c>
    80000050:	0007b783          	ld	a5,0(a5)
    80000054:	00f53023          	sd	a5,0(a0)
    80000058:	00073783          	ld	a5,0(a4)
    8000005c:	00005717          	auipc	a4,0x5
    80000060:	a4c72703          	lw	a4,-1460(a4) # 80004aa8 <Int_Glob>
    80000064:	00c7071b          	addiw	a4,a4,12
    80000068:	00e7a823          	sw	a4,16(a5)
    8000006c:	00008067          	ret

0000000080000070 <Proc_4>:
    80000070:	00005717          	auipc	a4,0x5
    80000074:	b1870713          	addi	a4,a4,-1256 # 80004b88 <Bool_Glob>
    80000078:	00072683          	lw	a3,0(a4)
    8000007c:	00005797          	auipc	a5,0x5
    80000080:	a307c783          	lbu	a5,-1488(a5) # 80004aac <Ch_1_Glob>
    80000084:	fbf78793          	addi	a5,a5,-65
    80000088:	0017b793          	seqz	a5,a5
    8000008c:	00d7e7b3          	or	a5,a5,a3
    80000090:	00f72023          	sw	a5,0(a4)
    80000094:	04200793          	li	a5,66
    80000098:	00005717          	auipc	a4,0x5
    8000009c:	a0f70aa3          	sb	a5,-1515(a4) # 80004aad <Ch_2_Glob>
    800000a0:	00008067          	ret

00000000800000a4 <Proc_5>:
    800000a4:	04100793          	li	a5,65
    800000a8:	00005717          	auipc	a4,0x5
    800000ac:	a0f70223          	sb	a5,-1532(a4) # 80004aac <Ch_1_Glob>
    800000b0:	00005797          	auipc	a5,0x5
    800000b4:	ac07ac23          	sw	zero,-1320(a5) # 80004b88 <Bool_Glob>
    800000b8:	00008067          	ret

00000000800000bc <Proc_6>:
    800000bc:	00200713          	li	a4,2
    800000c0:	04e50263          	beq	a0,a4,80000104 <Proc_6+0x48>
    800000c4:	00300793          	li	a5,3
    800000c8:	00f5a023          	sw	a5,0(a1)
    800000cc:	00100793          	li	a5,1
    800000d0:	00f50c63          	beq	a0,a5,800000e8 <Proc_6+0x2c>
    800000d4:	02a7f263          	bgeu	a5,a0,800000f8 <Proc_6+0x3c>
    800000d8:	00400793          	li	a5,4
    800000dc:	02f51263          	bne	a0,a5,80000100 <Proc_6+0x44>
    800000e0:	00e5a023          	sw	a4,0(a1)
    800000e4:	00008067          	ret
    800000e8:	00005717          	auipc	a4,0x5
    800000ec:	9c072703          	lw	a4,-1600(a4) # 80004aa8 <Int_Glob>
    800000f0:	06400793          	li	a5,100
    800000f4:	fee7d8e3          	bge	a5,a4,800000e4 <Proc_6+0x28>
    800000f8:	0005a023          	sw	zero,0(a1)
    800000fc:	00008067          	ret
    80000100:	00008067          	ret
    80000104:	00100793          	li	a5,1
    80000108:	00f5a023          	sw	a5,0(a1)
    8000010c:	00008067          	ret

0000000080000110 <Proc_1>:
    80000110:	fe010113          	addi	sp,sp,-32
    80000114:	00913423          	sd	s1,8(sp)
    80000118:	00005497          	auipc	s1,0x5
    8000011c:	99848493          	addi	s1,s1,-1640 # 80004ab0 <Ptr_Glob>
    80000120:	0004b783          	ld	a5,0(s1)
    80000124:	00813823          	sd	s0,16(sp)
    80000128:	00053403          	ld	s0,0(a0)
    8000012c:	0007b683          	ld	a3,0(a5)
    80000130:	0307b703          	ld	a4,48(a5)
    80000134:	0087b303          	ld	t1,8(a5)
    80000138:	0107b883          	ld	a7,16(a5)
    8000013c:	0187b803          	ld	a6,24(a5)
    80000140:	0207b583          	ld	a1,32(a5)
    80000144:	0287b603          	ld	a2,40(a5)
    80000148:	00113c23          	sd	ra,24(sp)
    8000014c:	00d43023          	sd	a3,0(s0)
    80000150:	00053683          	ld	a3,0(a0)
    80000154:	00643423          	sd	t1,8(s0)
    80000158:	01143823          	sd	a7,16(s0)
    8000015c:	02e43823          	sd	a4,48(s0)
    80000160:	01043c23          	sd	a6,24(s0)
    80000164:	00500713          	li	a4,5
    80000168:	02b43023          	sd	a1,32(s0)
    8000016c:	02c43423          	sd	a2,40(s0)
    80000170:	00e52823          	sw	a4,16(a0)
    80000174:	00d43023          	sd	a3,0(s0)
    80000178:	0007b683          	ld	a3,0(a5)
    8000017c:	00005797          	auipc	a5,0x5
    80000180:	92c7a783          	lw	a5,-1748(a5) # 80004aa8 <Int_Glob>
    80000184:	00e42823          	sw	a4,16(s0)
    80000188:	00d43023          	sd	a3,0(s0)
    8000018c:	0004b703          	ld	a4,0(s1)
    80000190:	00c7879b          	addiw	a5,a5,12
    80000194:	00f72823          	sw	a5,16(a4)
    80000198:	00842783          	lw	a5,8(s0)
    8000019c:	04078a63          	beqz	a5,800001f0 <Proc_1+0xe0>
    800001a0:	00053783          	ld	a5,0(a0)
    800001a4:	01813083          	ld	ra,24(sp)
    800001a8:	01013403          	ld	s0,16(sp)
    800001ac:	0007b883          	ld	a7,0(a5)
    800001b0:	0087b803          	ld	a6,8(a5)
    800001b4:	0107b583          	ld	a1,16(a5)
    800001b8:	0187b603          	ld	a2,24(a5)
    800001bc:	0207b683          	ld	a3,32(a5)
    800001c0:	0287b703          	ld	a4,40(a5)
    800001c4:	0307b783          	ld	a5,48(a5)
    800001c8:	01153023          	sd	a7,0(a0)
    800001cc:	01053423          	sd	a6,8(a0)
    800001d0:	00b53823          	sd	a1,16(a0)
    800001d4:	00c53c23          	sd	a2,24(a0)
    800001d8:	02d53023          	sd	a3,32(a0)
    800001dc:	02e53423          	sd	a4,40(a0)
    800001e0:	02f53823          	sd	a5,48(a0)
    800001e4:	00813483          	ld	s1,8(sp)
    800001e8:	02010113          	addi	sp,sp,32
    800001ec:	00008067          	ret
    800001f0:	00c52503          	lw	a0,12(a0)
    800001f4:	00600793          	li	a5,6
    800001f8:	00f42823          	sw	a5,16(s0)
    800001fc:	00c40593          	addi	a1,s0,12
    80000200:	ebdff0ef          	jal	ra,800000bc <Proc_6>
    80000204:	0004b703          	ld	a4,0(s1)
    80000208:	01042783          	lw	a5,16(s0)
    8000020c:	01813083          	ld	ra,24(sp)
    80000210:	00073703          	ld	a4,0(a4)
    80000214:	00c7879b          	addiw	a5,a5,12
    80000218:	00f42823          	sw	a5,16(s0)
    8000021c:	00e43023          	sd	a4,0(s0)
    80000220:	01013403          	ld	s0,16(sp)
    80000224:	00813483          	ld	s1,8(sp)
    80000228:	02010113          	addi	sp,sp,32
    8000022c:	00008067          	ret

0000000080000230 <Proc_7>:
    80000230:	0025051b          	addiw	a0,a0,2
    80000234:	00b5053b          	addw	a0,a0,a1
    80000238:	00a62023          	sw	a0,0(a2)
    8000023c:	00008067          	ret

0000000080000240 <Proc_8>:
    80000240:	0056079b          	addiw	a5,a2,5
    80000244:	0c800713          	li	a4,200
    80000248:	02e78733          	mul	a4,a5,a4
    8000024c:	00078813          	mv	a6,a5
    80000250:	00261613          	slli	a2,a2,0x2
    80000254:	00279793          	slli	a5,a5,0x2
    80000258:	00f50533          	add	a0,a0,a5
    8000025c:	00d52023          	sw	a3,0(a0)
    80000260:	00d52223          	sw	a3,4(a0)
    80000264:	07052c23          	sw	a6,120(a0)
    80000268:	00c707b3          	add	a5,a4,a2
    8000026c:	00f587b3          	add	a5,a1,a5
    80000270:	0107a683          	lw	a3,16(a5)
    80000274:	0107aa23          	sw	a6,20(a5)
    80000278:	0107ac23          	sw	a6,24(a5)
    8000027c:	0016869b          	addiw	a3,a3,1
    80000280:	00d7a823          	sw	a3,16(a5)
    80000284:	00052683          	lw	a3,0(a0)
    80000288:	00e585b3          	add	a1,a1,a4
    8000028c:	000017b7          	lui	a5,0x1
    80000290:	00c585b3          	add	a1,a1,a2
    80000294:	00b785b3          	add	a1,a5,a1
    80000298:	00500793          	li	a5,5
    8000029c:	fad5aa23          	sw	a3,-76(a1)
    800002a0:	00005717          	auipc	a4,0x5
    800002a4:	80f72423          	sw	a5,-2040(a4) # 80004aa8 <Int_Glob>
    800002a8:	00008067          	ret

00000000800002ac <Func_1>:
    800002ac:	0ff57513          	andi	a0,a0,255
    800002b0:	0ff5f593          	andi	a1,a1,255
    800002b4:	00b50663          	beq	a0,a1,800002c0 <Func_1+0x14>
    800002b8:	00000513          	li	a0,0
    800002bc:	00008067          	ret
    800002c0:	00004797          	auipc	a5,0x4
    800002c4:	7ea78623          	sb	a0,2028(a5) # 80004aac <Ch_1_Glob>
    800002c8:	00100513          	li	a0,1
    800002cc:	00008067          	ret

00000000800002d0 <Func_2>:
    800002d0:	ff010113          	addi	sp,sp,-16
    800002d4:	00113423          	sd	ra,8(sp)
    800002d8:	00004817          	auipc	a6,0x4
    800002dc:	7d480813          	addi	a6,a6,2004 # 80004aac <Ch_1_Glob>
    800002e0:	00254783          	lbu	a5,2(a0)
    800002e4:	0035c703          	lbu	a4,3(a1)
    800002e8:	00084603          	lbu	a2,0(a6)
    800002ec:	00000693          	li	a3,0
    800002f0:	02e78c63          	beq	a5,a4,80000328 <Func_2+0x58>
    800002f4:	00068463          	beqz	a3,800002fc <Func_2+0x2c>
    800002f8:	00c80023          	sb	a2,0(a6)
    800002fc:	528010ef          	jal	ra,80001824 <strcmp>
    80000300:	00000793          	li	a5,0
    80000304:	00a05a63          	blez	a0,80000318 <Func_2+0x48>
    80000308:	00a00793          	li	a5,10
    8000030c:	00004717          	auipc	a4,0x4
    80000310:	78f72e23          	sw	a5,1948(a4) # 80004aa8 <Int_Glob>
    80000314:	00100793          	li	a5,1
    80000318:	00813083          	ld	ra,8(sp)
    8000031c:	00078513          	mv	a0,a5
    80000320:	01010113          	addi	sp,sp,16
    80000324:	00008067          	ret
    80000328:	00100693          	li	a3,1
    8000032c:	00078613          	mv	a2,a5
    80000330:	fc1ff06f          	j	800002f0 <Func_2+0x20>

0000000080000334 <Func_3>:
    80000334:	ffe50513          	addi	a0,a0,-2
    80000338:	00153513          	seqz	a0,a0
    8000033c:	00008067          	ret

0000000080000340 <check>:
    80000340:	00051663          	bnez	a0,8000034c <check+0xc>
    80000344:	00002797          	auipc	a5,0x2
    80000348:	c007aa23          	sw	zero,-1004(a5) # 80001f58 <pass>
    8000034c:	00008067          	ret

Disassembly of section .text.startup:

0000000080000350 <main>:
    80000350:	f5010113          	addi	sp,sp,-176
    80000354:	0a113423          	sd	ra,168(sp)
    80000358:	0a813023          	sd	s0,160(sp)
    8000035c:	08913c23          	sd	s1,152(sp)
    80000360:	09213823          	sd	s2,144(sp)
    80000364:	09313423          	sd	s3,136(sp)
    80000368:	09413023          	sd	s4,128(sp)
    8000036c:	07513c23          	sd	s5,120(sp)
    80000370:	07613823          	sd	s6,112(sp)
    80000374:	07713423          	sd	s7,104(sp)
    80000378:	07813023          	sd	s8,96(sp)
    8000037c:	05913c23          	sd	s9,88(sp)
    80000380:	05a13823          	sd	s10,80(sp)
    80000384:	05b13423          	sd	s11,72(sp)
    80000388:	71c000ef          	jal	ra,80000aa4 <_ioe_init>
    8000038c:	00002697          	auipc	a3,0x2
    80000390:	bd468693          	addi	a3,a3,-1068 # 80001f60 <free_mem>
    80000394:	0006b783          	ld	a5,0(a3)
    80000398:	0037f713          	andi	a4,a5,3
    8000039c:	00070c63          	beqz	a4,800003b4 <main+0x64>
    800003a0:	00178713          	addi	a4,a5,1
    800003a4:	00377613          	andi	a2,a4,3
    800003a8:	00070793          	mv	a5,a4
    800003ac:	00170713          	addi	a4,a4,1
    800003b0:	fe061ae3          	bnez	a2,800003a4 <main+0x54>
    800003b4:	00004717          	auipc	a4,0x4
    800003b8:	6ec70713          	addi	a4,a4,1772 # 80004aa0 <Next_Ptr_Glob>
    800003bc:	00f73023          	sd	a5,0(a4)
    800003c0:	0037f713          	andi	a4,a5,3
    800003c4:	03878513          	addi	a0,a5,56
    800003c8:	00070c63          	beqz	a4,800003e0 <main+0x90>
    800003cc:	03978713          	addi	a4,a5,57
    800003d0:	00377613          	andi	a2,a4,3
    800003d4:	00070513          	mv	a0,a4
    800003d8:	00170713          	addi	a4,a4,1
    800003dc:	fe061ae3          	bnez	a2,800003d0 <main+0x80>
    800003e0:	00004a97          	auipc	s5,0x4
    800003e4:	6d0a8a93          	addi	s5,s5,1744 # 80004ab0 <Ptr_Glob>
    800003e8:	00aab023          	sd	a0,0(s5)
    800003ec:	00f53023          	sd	a5,0(a0)
    800003f0:	00100793          	li	a5,1
    800003f4:	02179793          	slli	a5,a5,0x21
    800003f8:	00f53423          	sd	a5,8(a0)
    800003fc:	02800793          	li	a5,40
    80000400:	03850713          	addi	a4,a0,56
    80000404:	00f52823          	sw	a5,16(a0)
    80000408:	00001597          	auipc	a1,0x1
    8000040c:	46858593          	addi	a1,a1,1128 # 80001870 <strcmp+0x4c>
    80000410:	01450513          	addi	a0,a0,20
    80000414:	00e6b023          	sd	a4,0(a3)
    80000418:	3f0010ef          	jal	ra,80001808 <strcpy>
    8000041c:	00001597          	auipc	a1,0x1
    80000420:	47458593          	addi	a1,a1,1140 # 80001890 <strcmp+0x6c>
    80000424:	00010513          	mv	a0,sp
    80000428:	3e0010ef          	jal	ra,80001808 <strcpy>
    8000042c:	00a00793          	li	a5,10
    80000430:	00002717          	auipc	a4,0x2
    80000434:	f5870713          	addi	a4,a4,-168 # 80002388 <Arr_2_Glob>
    80000438:	00001597          	auipc	a1,0x1
    8000043c:	47858593          	addi	a1,a1,1144 # 800018b0 <strcmp+0x8c>
    80000440:	00001517          	auipc	a0,0x1
    80000444:	48050513          	addi	a0,a0,1152 # 800018c0 <strcmp+0x9c>
    80000448:	64f72e23          	sw	a5,1628(a4)
    8000044c:	0007ab37          	lui	s6,0x7a
    80000450:	33c010ef          	jal	ra,8000178c <printf>
    80000454:	120b0593          	addi	a1,s6,288 # 7a120 <_start-0x7ff85ee0>
    80000458:	00001517          	auipc	a0,0x1
    8000045c:	49050513          	addi	a0,a0,1168 # 800018e8 <strcmp+0xc4>
    80000460:	00004797          	auipc	a5,0x4
    80000464:	6407ac23          	sw	zero,1624(a5) # 80004ab8 <Done>
    80000468:	324010ef          	jal	ra,8000178c <printf>
    8000046c:	0cd000ef          	jal	ra,80000d38 <uptime>
    80000470:	02051793          	slli	a5,a0,0x20
    80000474:	0207d793          	srli	a5,a5,0x20
    80000478:	00002717          	auipc	a4,0x2
    8000047c:	f0870713          	addi	a4,a4,-248 # 80002380 <Begin_Time>
    80000480:	00f73023          	sd	a5,0(a4)
    80000484:	00100c13          	li	s8,1
    80000488:	00004497          	auipc	s1,0x4
    8000048c:	62448493          	addi	s1,s1,1572 # 80004aac <Ch_1_Glob>
    80000490:	00004917          	auipc	s2,0x4
    80000494:	6f890913          	addi	s2,s2,1784 # 80004b88 <Bool_Glob>
    80000498:	00004c97          	auipc	s9,0x4
    8000049c:	615c8c93          	addi	s9,s9,1557 # 80004aad <Ch_2_Glob>
    800004a0:	00004997          	auipc	s3,0x4
    800004a4:	60898993          	addi	s3,s3,1544 # 80004aa8 <Int_Glob>
    800004a8:	04300b93          	li	s7,67
    800004ac:	00001a17          	auipc	s4,0x1
    800004b0:	484a0a13          	addi	s4,s4,1156 # 80001930 <strcmp+0x10c>
    800004b4:	121b0b13          	addi	s6,s6,289
    800004b8:	04100793          	li	a5,65
    800004bc:	00f48023          	sb	a5,0(s1)
    800004c0:	00100793          	li	a5,1
    800004c4:	00001597          	auipc	a1,0x1
    800004c8:	44c58593          	addi	a1,a1,1100 # 80001910 <strcmp+0xec>
    800004cc:	00f92023          	sw	a5,0(s2)
    800004d0:	02010513          	addi	a0,sp,32
    800004d4:	04200793          	li	a5,66
    800004d8:	00fc8023          	sb	a5,0(s9)
    800004dc:	32c010ef          	jal	ra,80001808 <strcpy>
    800004e0:	02010593          	addi	a1,sp,32
    800004e4:	00010513          	mv	a0,sp
    800004e8:	de9ff0ef          	jal	ra,800002d0 <Func_2>
    800004ec:	00153793          	seqz	a5,a0
    800004f0:	00300613          	li	a2,3
    800004f4:	00002597          	auipc	a1,0x2
    800004f8:	e9458593          	addi	a1,a1,-364 # 80002388 <Arr_2_Glob>
    800004fc:	00700693          	li	a3,7
    80000500:	00004517          	auipc	a0,0x4
    80000504:	5c050513          	addi	a0,a0,1472 # 80004ac0 <Arr_1_Glob>
    80000508:	00f92023          	sw	a5,0(s2)
    8000050c:	d35ff0ef          	jal	ra,80000240 <Proc_8>
    80000510:	000ab503          	ld	a0,0(s5)
    80000514:	04100413          	li	s0,65
    80000518:	00100d13          	li	s10,1
    8000051c:	bf5ff0ef          	jal	ra,80000110 <Proc_1>
    80000520:	000cc583          	lbu	a1,0(s9)
    80000524:	04000793          	li	a5,64
    80000528:	00300613          	li	a2,3
    8000052c:	56b7f663          	bgeu	a5,a1,80000a98 <main+0x748>
    80000530:	000cc783          	lbu	a5,0(s9)
    80000534:	0014041b          	addiw	s0,s0,1
    80000538:	0ff47413          	andi	s0,s0,255
    8000053c:	0287ec63          	bltu	a5,s0,80000574 <main+0x224>
    80000540:	00000793          	li	a5,0
    80000544:	55740263          	beq	s0,s7,80000a88 <main+0x738>
    80000548:	fefd14e3          	bne	s10,a5,80000530 <main+0x1e0>
    8000054c:	000a0593          	mv	a1,s4
    80000550:	02010513          	addi	a0,sp,32
    80000554:	2b4010ef          	jal	ra,80001808 <strcpy>
    80000558:	000cc783          	lbu	a5,0(s9)
    8000055c:	0014041b          	addiw	s0,s0,1
    80000560:	0189a023          	sw	s8,0(s3)
    80000564:	0ff47413          	andi	s0,s0,255
    80000568:	00000d13          	li	s10,0
    8000056c:	000c0613          	mv	a2,s8
    80000570:	fc87f8e3          	bgeu	a5,s0,80000540 <main+0x1f0>
    80000574:	0016179b          	slliw	a5,a2,0x1
    80000578:	00c787bb          	addw	a5,a5,a2
    8000057c:	00700613          	li	a2,7
    80000580:	02c7cdbb          	divw	s11,a5,a2
    80000584:	ff97879b          	addiw	a5,a5,-7
    80000588:	0037959b          	slliw	a1,a5,0x3
    8000058c:	40f587bb          	subw	a5,a1,a5
    80000590:	41b7843b          	subw	s0,a5,s11
    80000594:	0004c783          	lbu	a5,0(s1)
    80000598:	04100713          	li	a4,65
    8000059c:	00e79863          	bne	a5,a4,800005ac <main+0x25c>
    800005a0:	0009a783          	lw	a5,0(s3)
    800005a4:	009d831b          	addiw	t1,s11,9
    800005a8:	40f30dbb          	subw	s11,t1,a5
    800005ac:	001c0c1b          	addiw	s8,s8,1
    800005b0:	f16c14e3          	bne	s8,s6,800004b8 <main+0x168>
    800005b4:	784000ef          	jal	ra,80000d38 <uptime>
    800005b8:	00002797          	auipc	a5,0x2
    800005bc:	dc878793          	addi	a5,a5,-568 # 80002380 <Begin_Time>
    800005c0:	0007b603          	ld	a2,0(a5)
    800005c4:	02051793          	slli	a5,a0,0x20
    800005c8:	0207d793          	srli	a5,a5,0x20
    800005cc:	0009a583          	lw	a1,0(s3)
    800005d0:	40c78633          	sub	a2,a5,a2
    800005d4:	00002997          	auipc	s3,0x2
    800005d8:	da498993          	addi	s3,s3,-604 # 80002378 <User_Time>
    800005dc:	00004717          	auipc	a4,0x4
    800005e0:	4af73e23          	sd	a5,1212(a4) # 80004a98 <End_Time>
    800005e4:	00100793          	li	a5,1
    800005e8:	00004717          	auipc	a4,0x4
    800005ec:	4cf72823          	sw	a5,1232(a4) # 80004ab8 <Done>
    800005f0:	00c9b023          	sd	a2,0(s3)
    800005f4:	00500793          	li	a5,5
    800005f8:	02f58463          	beq	a1,a5,80000620 <main+0x2d0>
    800005fc:	00001517          	auipc	a0,0x1
    80000600:	35450513          	addi	a0,a0,852 # 80001950 <strcmp+0x12c>
    80000604:	00002797          	auipc	a5,0x2
    80000608:	9407aa23          	sw	zero,-1708(a5) # 80001f58 <pass>
    8000060c:	180010ef          	jal	ra,8000178c <printf>
    80000610:	00500593          	li	a1,5
    80000614:	00001517          	auipc	a0,0x1
    80000618:	35c50513          	addi	a0,a0,860 # 80001970 <strcmp+0x14c>
    8000061c:	170010ef          	jal	ra,8000178c <printf>
    80000620:	00092583          	lw	a1,0(s2)
    80000624:	00100793          	li	a5,1
    80000628:	02f58463          	beq	a1,a5,80000650 <main+0x300>
    8000062c:	00001517          	auipc	a0,0x1
    80000630:	36450513          	addi	a0,a0,868 # 80001990 <strcmp+0x16c>
    80000634:	00002797          	auipc	a5,0x2
    80000638:	9207a223          	sw	zero,-1756(a5) # 80001f58 <pass>
    8000063c:	150010ef          	jal	ra,8000178c <printf>
    80000640:	00100593          	li	a1,1
    80000644:	00001517          	auipc	a0,0x1
    80000648:	32c50513          	addi	a0,a0,812 # 80001970 <strcmp+0x14c>
    8000064c:	140010ef          	jal	ra,8000178c <printf>
    80000650:	0004c583          	lbu	a1,0(s1)
    80000654:	04100793          	li	a5,65
    80000658:	02f58463          	beq	a1,a5,80000680 <main+0x330>
    8000065c:	00001517          	auipc	a0,0x1
    80000660:	35450513          	addi	a0,a0,852 # 800019b0 <strcmp+0x18c>
    80000664:	00002797          	auipc	a5,0x2
    80000668:	8e07aa23          	sw	zero,-1804(a5) # 80001f58 <pass>
    8000066c:	120010ef          	jal	ra,8000178c <printf>
    80000670:	04100593          	li	a1,65
    80000674:	00001517          	auipc	a0,0x1
    80000678:	35c50513          	addi	a0,a0,860 # 800019d0 <strcmp+0x1ac>
    8000067c:	110010ef          	jal	ra,8000178c <printf>
    80000680:	000cc583          	lbu	a1,0(s9)
    80000684:	04200793          	li	a5,66
    80000688:	02f58463          	beq	a1,a5,800006b0 <main+0x360>
    8000068c:	00001517          	auipc	a0,0x1
    80000690:	36450513          	addi	a0,a0,868 # 800019f0 <strcmp+0x1cc>
    80000694:	00002797          	auipc	a5,0x2
    80000698:	8c07a223          	sw	zero,-1852(a5) # 80001f58 <pass>
    8000069c:	0f0010ef          	jal	ra,8000178c <printf>
    800006a0:	04200593          	li	a1,66
    800006a4:	00001517          	auipc	a0,0x1
    800006a8:	32c50513          	addi	a0,a0,812 # 800019d0 <strcmp+0x1ac>
    800006ac:	0e0010ef          	jal	ra,8000178c <printf>
    800006b0:	00004597          	auipc	a1,0x4
    800006b4:	4305a583          	lw	a1,1072(a1) # 80004ae0 <Arr_1_Glob+0x20>
    800006b8:	00700793          	li	a5,7
    800006bc:	02f58463          	beq	a1,a5,800006e4 <main+0x394>
    800006c0:	00001517          	auipc	a0,0x1
    800006c4:	35050513          	addi	a0,a0,848 # 80001a10 <strcmp+0x1ec>
    800006c8:	00002797          	auipc	a5,0x2
    800006cc:	8807a823          	sw	zero,-1904(a5) # 80001f58 <pass>
    800006d0:	0bc010ef          	jal	ra,8000178c <printf>
    800006d4:	00700593          	li	a1,7
    800006d8:	00001517          	auipc	a0,0x1
    800006dc:	29850513          	addi	a0,a0,664 # 80001970 <strcmp+0x14c>
    800006e0:	0ac010ef          	jal	ra,8000178c <printf>
    800006e4:	00002797          	auipc	a5,0x2
    800006e8:	ca478793          	addi	a5,a5,-860 # 80002388 <Arr_2_Glob>
    800006ec:	65c7a583          	lw	a1,1628(a5)
    800006f0:	0007a7b7          	lui	a5,0x7a
    800006f4:	12a78793          	addi	a5,a5,298 # 7a12a <_start-0x7ff85ed6>
    800006f8:	02f58263          	beq	a1,a5,8000071c <main+0x3cc>
    800006fc:	00001517          	auipc	a0,0x1
    80000700:	33450513          	addi	a0,a0,820 # 80001a30 <strcmp+0x20c>
    80000704:	00002797          	auipc	a5,0x2
    80000708:	8407aa23          	sw	zero,-1964(a5) # 80001f58 <pass>
    8000070c:	080010ef          	jal	ra,8000178c <printf>
    80000710:	00001517          	auipc	a0,0x1
    80000714:	34050513          	addi	a0,a0,832 # 80001a50 <strcmp+0x22c>
    80000718:	074010ef          	jal	ra,8000178c <printf>
    8000071c:	000ab783          	ld	a5,0(s5)
    80000720:	0087a583          	lw	a1,8(a5)
    80000724:	02058463          	beqz	a1,8000074c <main+0x3fc>
    80000728:	00001517          	auipc	a0,0x1
    8000072c:	35850513          	addi	a0,a0,856 # 80001a80 <strcmp+0x25c>
    80000730:	00002797          	auipc	a5,0x2
    80000734:	8207a423          	sw	zero,-2008(a5) # 80001f58 <pass>
    80000738:	054010ef          	jal	ra,8000178c <printf>
    8000073c:	00000593          	li	a1,0
    80000740:	00001517          	auipc	a0,0x1
    80000744:	23050513          	addi	a0,a0,560 # 80001970 <strcmp+0x14c>
    80000748:	044010ef          	jal	ra,8000178c <printf>
    8000074c:	000ab703          	ld	a4,0(s5)
    80000750:	00200793          	li	a5,2
    80000754:	00c72583          	lw	a1,12(a4)
    80000758:	02f58463          	beq	a1,a5,80000780 <main+0x430>
    8000075c:	00001517          	auipc	a0,0x1
    80000760:	34c50513          	addi	a0,a0,844 # 80001aa8 <strcmp+0x284>
    80000764:	00001797          	auipc	a5,0x1
    80000768:	7e07aa23          	sw	zero,2036(a5) # 80001f58 <pass>
    8000076c:	020010ef          	jal	ra,8000178c <printf>
    80000770:	00200593          	li	a1,2
    80000774:	00001517          	auipc	a0,0x1
    80000778:	1fc50513          	addi	a0,a0,508 # 80001970 <strcmp+0x14c>
    8000077c:	010010ef          	jal	ra,8000178c <printf>
    80000780:	000ab703          	ld	a4,0(s5)
    80000784:	01100793          	li	a5,17
    80000788:	01072583          	lw	a1,16(a4)
    8000078c:	02f58463          	beq	a1,a5,800007b4 <main+0x464>
    80000790:	00001517          	auipc	a0,0x1
    80000794:	34050513          	addi	a0,a0,832 # 80001ad0 <strcmp+0x2ac>
    80000798:	00001797          	auipc	a5,0x1
    8000079c:	7c07a023          	sw	zero,1984(a5) # 80001f58 <pass>
    800007a0:	7ed000ef          	jal	ra,8000178c <printf>
    800007a4:	01100593          	li	a1,17
    800007a8:	00001517          	auipc	a0,0x1
    800007ac:	1c850513          	addi	a0,a0,456 # 80001970 <strcmp+0x14c>
    800007b0:	7dd000ef          	jal	ra,8000178c <printf>
    800007b4:	000ab503          	ld	a0,0(s5)
    800007b8:	00001597          	auipc	a1,0x1
    800007bc:	0b858593          	addi	a1,a1,184 # 80001870 <strcmp+0x4c>
    800007c0:	01450513          	addi	a0,a0,20
    800007c4:	060010ef          	jal	ra,80001824 <strcmp>
    800007c8:	02050663          	beqz	a0,800007f4 <main+0x4a4>
    800007cc:	000ab583          	ld	a1,0(s5)
    800007d0:	00001517          	auipc	a0,0x1
    800007d4:	32850513          	addi	a0,a0,808 # 80001af8 <strcmp+0x2d4>
    800007d8:	00001797          	auipc	a5,0x1
    800007dc:	7807a023          	sw	zero,1920(a5) # 80001f58 <pass>
    800007e0:	01458593          	addi	a1,a1,20
    800007e4:	7a9000ef          	jal	ra,8000178c <printf>
    800007e8:	00001517          	auipc	a0,0x1
    800007ec:	33850513          	addi	a0,a0,824 # 80001b20 <strcmp+0x2fc>
    800007f0:	79d000ef          	jal	ra,8000178c <printf>
    800007f4:	00004797          	auipc	a5,0x4
    800007f8:	2ac78793          	addi	a5,a5,684 # 80004aa0 <Next_Ptr_Glob>
    800007fc:	0007b783          	ld	a5,0(a5)
    80000800:	0087a583          	lw	a1,8(a5)
    80000804:	02058463          	beqz	a1,8000082c <main+0x4dc>
    80000808:	00001517          	auipc	a0,0x1
    8000080c:	35050513          	addi	a0,a0,848 # 80001b58 <strcmp+0x334>
    80000810:	00001797          	auipc	a5,0x1
    80000814:	7407a423          	sw	zero,1864(a5) # 80001f58 <pass>
    80000818:	775000ef          	jal	ra,8000178c <printf>
    8000081c:	00000593          	li	a1,0
    80000820:	00001517          	auipc	a0,0x1
    80000824:	15050513          	addi	a0,a0,336 # 80001970 <strcmp+0x14c>
    80000828:	765000ef          	jal	ra,8000178c <printf>
    8000082c:	00004797          	auipc	a5,0x4
    80000830:	27478793          	addi	a5,a5,628 # 80004aa0 <Next_Ptr_Glob>
    80000834:	0007b703          	ld	a4,0(a5)
    80000838:	00100793          	li	a5,1
    8000083c:	00c72583          	lw	a1,12(a4)
    80000840:	02f58463          	beq	a1,a5,80000868 <main+0x518>
    80000844:	00001517          	auipc	a0,0x1
    80000848:	33c50513          	addi	a0,a0,828 # 80001b80 <strcmp+0x35c>
    8000084c:	00001797          	auipc	a5,0x1
    80000850:	7007a623          	sw	zero,1804(a5) # 80001f58 <pass>
    80000854:	739000ef          	jal	ra,8000178c <printf>
    80000858:	00100593          	li	a1,1
    8000085c:	00001517          	auipc	a0,0x1
    80000860:	11450513          	addi	a0,a0,276 # 80001970 <strcmp+0x14c>
    80000864:	729000ef          	jal	ra,8000178c <printf>
    80000868:	00004797          	auipc	a5,0x4
    8000086c:	23878793          	addi	a5,a5,568 # 80004aa0 <Next_Ptr_Glob>
    80000870:	0007b703          	ld	a4,0(a5)
    80000874:	01200793          	li	a5,18
    80000878:	01072583          	lw	a1,16(a4)
    8000087c:	02f58463          	beq	a1,a5,800008a4 <main+0x554>
    80000880:	00001517          	auipc	a0,0x1
    80000884:	32850513          	addi	a0,a0,808 # 80001ba8 <strcmp+0x384>
    80000888:	00001797          	auipc	a5,0x1
    8000088c:	6c07a823          	sw	zero,1744(a5) # 80001f58 <pass>
    80000890:	6fd000ef          	jal	ra,8000178c <printf>
    80000894:	01200593          	li	a1,18
    80000898:	00001517          	auipc	a0,0x1
    8000089c:	0d850513          	addi	a0,a0,216 # 80001970 <strcmp+0x14c>
    800008a0:	6ed000ef          	jal	ra,8000178c <printf>
    800008a4:	00004497          	auipc	s1,0x4
    800008a8:	1fc48493          	addi	s1,s1,508 # 80004aa0 <Next_Ptr_Glob>
    800008ac:	0004b503          	ld	a0,0(s1)
    800008b0:	00001597          	auipc	a1,0x1
    800008b4:	fc058593          	addi	a1,a1,-64 # 80001870 <strcmp+0x4c>
    800008b8:	01450513          	addi	a0,a0,20
    800008bc:	769000ef          	jal	ra,80001824 <strcmp>
    800008c0:	02050663          	beqz	a0,800008ec <main+0x59c>
    800008c4:	0004b583          	ld	a1,0(s1)
    800008c8:	00001517          	auipc	a0,0x1
    800008cc:	30850513          	addi	a0,a0,776 # 80001bd0 <strcmp+0x3ac>
    800008d0:	00001797          	auipc	a5,0x1
    800008d4:	6807a423          	sw	zero,1672(a5) # 80001f58 <pass>
    800008d8:	01458593          	addi	a1,a1,20
    800008dc:	6b1000ef          	jal	ra,8000178c <printf>
    800008e0:	00001517          	auipc	a0,0x1
    800008e4:	24050513          	addi	a0,a0,576 # 80001b20 <strcmp+0x2fc>
    800008e8:	6a5000ef          	jal	ra,8000178c <printf>
    800008ec:	00500793          	li	a5,5
    800008f0:	02fd8663          	beq	s11,a5,8000091c <main+0x5cc>
    800008f4:	000d8593          	mv	a1,s11
    800008f8:	00001517          	auipc	a0,0x1
    800008fc:	30050513          	addi	a0,a0,768 # 80001bf8 <strcmp+0x3d4>
    80000900:	00001797          	auipc	a5,0x1
    80000904:	6407ac23          	sw	zero,1624(a5) # 80001f58 <pass>
    80000908:	685000ef          	jal	ra,8000178c <printf>
    8000090c:	00500593          	li	a1,5
    80000910:	00001517          	auipc	a0,0x1
    80000914:	06050513          	addi	a0,a0,96 # 80001970 <strcmp+0x14c>
    80000918:	675000ef          	jal	ra,8000178c <printf>
    8000091c:	00d00793          	li	a5,13
    80000920:	02f40663          	beq	s0,a5,8000094c <main+0x5fc>
    80000924:	00040593          	mv	a1,s0
    80000928:	00001517          	auipc	a0,0x1
    8000092c:	2f050513          	addi	a0,a0,752 # 80001c18 <strcmp+0x3f4>
    80000930:	00001797          	auipc	a5,0x1
    80000934:	6207a423          	sw	zero,1576(a5) # 80001f58 <pass>
    80000938:	655000ef          	jal	ra,8000178c <printf>
    8000093c:	00d00593          	li	a1,13
    80000940:	00001517          	auipc	a0,0x1
    80000944:	03050513          	addi	a0,a0,48 # 80001970 <strcmp+0x14c>
    80000948:	645000ef          	jal	ra,8000178c <printf>
    8000094c:	020d1663          	bnez	s10,80000978 <main+0x628>
    80000950:	000d0593          	mv	a1,s10
    80000954:	00001517          	auipc	a0,0x1
    80000958:	2e450513          	addi	a0,a0,740 # 80001c38 <strcmp+0x414>
    8000095c:	00001797          	auipc	a5,0x1
    80000960:	5e07ae23          	sw	zero,1532(a5) # 80001f58 <pass>
    80000964:	629000ef          	jal	ra,8000178c <printf>
    80000968:	00100593          	li	a1,1
    8000096c:	00001517          	auipc	a0,0x1
    80000970:	00450513          	addi	a0,a0,4 # 80001970 <strcmp+0x14c>
    80000974:	619000ef          	jal	ra,8000178c <printf>
    80000978:	00001597          	auipc	a1,0x1
    8000097c:	f1858593          	addi	a1,a1,-232 # 80001890 <strcmp+0x6c>
    80000980:	00010513          	mv	a0,sp
    80000984:	6a1000ef          	jal	ra,80001824 <strcmp>
    80000988:	02050463          	beqz	a0,800009b0 <main+0x660>
    8000098c:	00010593          	mv	a1,sp
    80000990:	00001517          	auipc	a0,0x1
    80000994:	2c850513          	addi	a0,a0,712 # 80001c58 <strcmp+0x434>
    80000998:	00001797          	auipc	a5,0x1
    8000099c:	5c07a023          	sw	zero,1472(a5) # 80001f58 <pass>
    800009a0:	5ed000ef          	jal	ra,8000178c <printf>
    800009a4:	00001517          	auipc	a0,0x1
    800009a8:	2d450513          	addi	a0,a0,724 # 80001c78 <strcmp+0x454>
    800009ac:	5e1000ef          	jal	ra,8000178c <printf>
    800009b0:	00001597          	auipc	a1,0x1
    800009b4:	f6058593          	addi	a1,a1,-160 # 80001910 <strcmp+0xec>
    800009b8:	02010513          	addi	a0,sp,32
    800009bc:	669000ef          	jal	ra,80001824 <strcmp>
    800009c0:	02050463          	beqz	a0,800009e8 <main+0x698>
    800009c4:	02010593          	addi	a1,sp,32
    800009c8:	00001517          	auipc	a0,0x1
    800009cc:	2e850513          	addi	a0,a0,744 # 80001cb0 <strcmp+0x48c>
    800009d0:	00001797          	auipc	a5,0x1
    800009d4:	5807a423          	sw	zero,1416(a5) # 80001f58 <pass>
    800009d8:	5b5000ef          	jal	ra,8000178c <printf>
    800009dc:	00001517          	auipc	a0,0x1
    800009e0:	2f450513          	addi	a0,a0,756 # 80001cd0 <strcmp+0x4ac>
    800009e4:	5a9000ef          	jal	ra,8000178c <printf>
    800009e8:	0009a583          	lw	a1,0(s3)
    800009ec:	00001517          	auipc	a0,0x1
    800009f0:	31c50513          	addi	a0,a0,796 # 80001d08 <strcmp+0x4e4>
    800009f4:	599000ef          	jal	ra,8000178c <printf>
    800009f8:	00001517          	auipc	a0,0x1
    800009fc:	32850513          	addi	a0,a0,808 # 80001d20 <strcmp+0x4fc>
    80000a00:	58d000ef          	jal	ra,8000178c <printf>
    80000a04:	00001797          	auipc	a5,0x1
    80000a08:	5547a783          	lw	a5,1364(a5) # 80001f58 <pass>
    80000a0c:	00001597          	auipc	a1,0x1
    80000a10:	e5458593          	addi	a1,a1,-428 # 80001860 <strcmp+0x3c>
    80000a14:	00079663          	bnez	a5,80000a20 <main+0x6d0>
    80000a18:	00001597          	auipc	a1,0x1
    80000a1c:	e5058593          	addi	a1,a1,-432 # 80001868 <strcmp+0x44>
    80000a20:	0009b603          	ld	a2,0(s3)
    80000a24:	000d77b7          	lui	a5,0xd7
    80000a28:	1047879b          	addiw	a5,a5,260
    80000a2c:	02c7c63b          	divw	a2,a5,a2
    80000a30:	00001517          	auipc	a0,0x1
    80000a34:	32850513          	addi	a0,a0,808 # 80001d58 <strcmp+0x534>
    80000a38:	555000ef          	jal	ra,8000178c <printf>
    80000a3c:	00001517          	auipc	a0,0x1
    80000a40:	33c50513          	addi	a0,a0,828 # 80001d78 <strcmp+0x554>
    80000a44:	549000ef          	jal	ra,8000178c <printf>
    80000a48:	0a813083          	ld	ra,168(sp)
    80000a4c:	0a013403          	ld	s0,160(sp)
    80000a50:	09813483          	ld	s1,152(sp)
    80000a54:	09013903          	ld	s2,144(sp)
    80000a58:	08813983          	ld	s3,136(sp)
    80000a5c:	08013a03          	ld	s4,128(sp)
    80000a60:	07813a83          	ld	s5,120(sp)
    80000a64:	07013b03          	ld	s6,112(sp)
    80000a68:	06813b83          	ld	s7,104(sp)
    80000a6c:	06013c03          	ld	s8,96(sp)
    80000a70:	05813c83          	ld	s9,88(sp)
    80000a74:	05013d03          	ld	s10,80(sp)
    80000a78:	04813d83          	ld	s11,72(sp)
    80000a7c:	00000513          	li	a0,0
    80000a80:	0b010113          	addi	sp,sp,176
    80000a84:	00008067          	ret
    80000a88:	00848023          	sb	s0,0(s1)
    80000a8c:	00100793          	li	a5,1
    80000a90:	aafd10e3          	bne	s10,a5,80000530 <main+0x1e0>
    80000a94:	ab9ff06f          	j	8000054c <main+0x1fc>
    80000a98:	00d00413          	li	s0,13
    80000a9c:	00100d93          	li	s11,1
    80000aa0:	af5ff06f          	j	80000594 <main+0x244>

Disassembly of section .text._ioe_init:

0000000080000aa4 <_ioe_init>:
    80000aa4:	ff010113          	addi	sp,sp,-16
    80000aa8:	00113423          	sd	ra,8(sp)
    80000aac:	1e0000ef          	jal	ra,80000c8c <__am_vga_init>
    80000ab0:	140000ef          	jal	ra,80000bf0 <__am_timer_init>
    80000ab4:	1dc000ef          	jal	ra,80000c90 <__am_audio_init>
    80000ab8:	00813083          	ld	ra,8(sp)
    80000abc:	00000513          	li	a0,0
    80000ac0:	01010113          	addi	sp,sp,16
    80000ac4:	00008067          	ret

Disassembly of section .text._io_read:

0000000080000ac8 <_io_read>:
    80000ac8:	0000b7b7          	lui	a5,0xb
    80000acc:	00050713          	mv	a4,a0
    80000ad0:	c0478813          	addi	a6,a5,-1020 # ac04 <_start-0x7fff53fc>
    80000ad4:	00058513          	mv	a0,a1
    80000ad8:	00060593          	mv	a1,a2
    80000adc:	00068613          	mv	a2,a3
    80000ae0:	03070863          	beq	a4,a6,80000b10 <_io_read+0x48>
    80000ae4:	00e86c63          	bltu	a6,a4,80000afc <_io_read+0x34>
    80000ae8:	c0278693          	addi	a3,a5,-1022
    80000aec:	02d70463          	beq	a4,a3,80000b14 <_io_read+0x4c>
    80000af0:	c0378793          	addi	a5,a5,-1021
    80000af4:	00f71a63          	bne	a4,a5,80000b08 <_io_read+0x40>
    80000af8:	0200006f          	j	80000b18 <__am_timer_read>
    80000afc:	c0778793          	addi	a5,a5,-1017
    80000b00:	00f71463          	bne	a4,a5,80000b08 <_io_read+0x40>
    80000b04:	1900006f          	j	80000c94 <__am_audio_read>
    80000b08:	00000513          	li	a0,0
    80000b0c:	00008067          	ret
    80000b10:	13c0006f          	j	80000c4c <__am_video_read>
    80000b14:	1000006f          	j	80000c14 <__am_input_read>

Disassembly of section .text.__am_timer_read:

0000000080000b18 <__am_timer_read>:
    80000b18:	00100793          	li	a5,1
    80000b1c:	08f50263          	beq	a0,a5,80000ba0 <__am_timer_read+0x88>
    80000b20:	00200793          	li	a5,2
    80000b24:	06f51a63          	bne	a0,a5,80000b98 <__am_timer_read+0x80>
    80000b28:	fe200793          	li	a5,-30
    80000b2c:	00f58023          	sb	a5,0(a1)
    80000b30:	00700793          	li	a5,7
    80000b34:	00058a23          	sb	zero,20(a1)
    80000b38:	00058aa3          	sb	zero,21(a1)
    80000b3c:	00058b23          	sb	zero,22(a1)
    80000b40:	00058ba3          	sb	zero,23(a1)
    80000b44:	00058823          	sb	zero,16(a1)
    80000b48:	000588a3          	sb	zero,17(a1)
    80000b4c:	00058923          	sb	zero,18(a1)
    80000b50:	000589a3          	sb	zero,19(a1)
    80000b54:	00058623          	sb	zero,12(a1)
    80000b58:	000586a3          	sb	zero,13(a1)
    80000b5c:	00058723          	sb	zero,14(a1)
    80000b60:	000587a3          	sb	zero,15(a1)
    80000b64:	00058423          	sb	zero,8(a1)
    80000b68:	000584a3          	sb	zero,9(a1)
    80000b6c:	00058523          	sb	zero,10(a1)
    80000b70:	000585a3          	sb	zero,11(a1)
    80000b74:	00058223          	sb	zero,4(a1)
    80000b78:	000582a3          	sb	zero,5(a1)
    80000b7c:	00058323          	sb	zero,6(a1)
    80000b80:	000583a3          	sb	zero,7(a1)
    80000b84:	00f580a3          	sb	a5,1(a1)
    80000b88:	00058123          	sb	zero,2(a1)
    80000b8c:	000581a3          	sb	zero,3(a1)
    80000b90:	01800513          	li	a0,24
    80000b94:	00008067          	ret
    80000b98:	00000513          	li	a0,0
    80000b9c:	00008067          	ret
    80000ba0:	3800c7b7          	lui	a5,0x3800c
    80000ba4:	ff87b783          	ld	a5,-8(a5) # 3800bff8 <_start-0x47ff4008>
    80000ba8:	3e800713          	li	a4,1000
    80000bac:	00058023          	sb	zero,0(a1)
    80000bb0:	02e7d7b3          	divu	a5,a5,a4
    80000bb4:	00001717          	auipc	a4,0x1
    80000bb8:	7b473703          	ld	a4,1972(a4) # 80002368 <boot_time>
    80000bbc:	000580a3          	sb	zero,1(a1)
    80000bc0:	00058123          	sb	zero,2(a1)
    80000bc4:	000581a3          	sb	zero,3(a1)
    80000bc8:	00800513          	li	a0,8
    80000bcc:	40e787bb          	subw	a5,a5,a4
    80000bd0:	0087d61b          	srliw	a2,a5,0x8
    80000bd4:	0107d69b          	srliw	a3,a5,0x10
    80000bd8:	0187d71b          	srliw	a4,a5,0x18
    80000bdc:	00f58223          	sb	a5,4(a1)
    80000be0:	00c582a3          	sb	a2,5(a1)
    80000be4:	00d58323          	sb	a3,6(a1)
    80000be8:	00e583a3          	sb	a4,7(a1)
    80000bec:	00008067          	ret

Disassembly of section .text.__am_timer_init:

0000000080000bf0 <__am_timer_init>:
    80000bf0:	3800c7b7          	lui	a5,0x3800c
    80000bf4:	ff87b783          	ld	a5,-8(a5) # 3800bff8 <_start-0x47ff4008>
    80000bf8:	3e800713          	li	a4,1000
    80000bfc:	02e7d7b3          	divu	a5,a5,a4
    80000c00:	02079793          	slli	a5,a5,0x20
    80000c04:	0207d793          	srli	a5,a5,0x20
    80000c08:	00001717          	auipc	a4,0x1
    80000c0c:	76f73023          	sd	a5,1888(a4) # 80002368 <boot_time>
    80000c10:	00008067          	ret

Disassembly of section .text.__am_input_read:

0000000080000c14 <__am_input_read>:
    80000c14:	00100793          	li	a5,1
    80000c18:	00f50663          	beq	a0,a5,80000c24 <__am_input_read+0x10>
    80000c1c:	00000513          	li	a0,0
    80000c20:	00008067          	ret
    80000c24:	00058023          	sb	zero,0(a1)
    80000c28:	000580a3          	sb	zero,1(a1)
    80000c2c:	00058123          	sb	zero,2(a1)
    80000c30:	000581a3          	sb	zero,3(a1)
    80000c34:	00058223          	sb	zero,4(a1)
    80000c38:	000582a3          	sb	zero,5(a1)
    80000c3c:	00058323          	sb	zero,6(a1)
    80000c40:	000583a3          	sb	zero,7(a1)
    80000c44:	00800513          	li	a0,8
    80000c48:	00008067          	ret

Disassembly of section .text.__am_video_read:

0000000080000c4c <__am_video_read>:
    80000c4c:	00100793          	li	a5,1
    80000c50:	00f50663          	beq	a0,a5,80000c5c <__am_video_read+0x10>
    80000c54:	00000513          	li	a0,0
    80000c58:	00008067          	ret
    80000c5c:	04000793          	li	a5,64
    80000c60:	00f58023          	sb	a5,0(a1)
    80000c64:	ff000793          	li	a5,-16
    80000c68:	00a580a3          	sb	a0,1(a1)
    80000c6c:	00058123          	sb	zero,2(a1)
    80000c70:	000581a3          	sb	zero,3(a1)
    80000c74:	00f58223          	sb	a5,4(a1)
    80000c78:	000582a3          	sb	zero,5(a1)
    80000c7c:	00058323          	sb	zero,6(a1)
    80000c80:	000583a3          	sb	zero,7(a1)
    80000c84:	00800513          	li	a0,8
    80000c88:	00008067          	ret

Disassembly of section .text.__am_vga_init:

0000000080000c8c <__am_vga_init>:
    80000c8c:	00008067          	ret

Disassembly of section .text.__am_audio_init:

0000000080000c90 <__am_audio_init>:
    80000c90:	00008067          	ret

Disassembly of section .text.__am_audio_read:

0000000080000c94 <__am_audio_read>:
    80000c94:	00000513          	li	a0,0
    80000c98:	00008067          	ret

Disassembly of section .text._putc:

0000000080000c9c <_putc>:
    80000c9c:	0540006f          	j	80000cf0 <__am_uartlite_putchar>

Disassembly of section .text._halt:

0000000080000ca0 <_halt>:
    80000ca0:	ff010113          	addi	sp,sp,-16
    80000ca4:	00113423          	sd	ra,8(sp)
    80000ca8:	00050593          	mv	a1,a0
    80000cac:	00050513          	mv	a0,a0
    80000cb0:	0005006b          	0x5006b
    80000cb4:	00001517          	auipc	a0,0x1
    80000cb8:	10450513          	addi	a0,a0,260 # 80001db8 <strcmp+0x594>
    80000cbc:	2d1000ef          	jal	ra,8000178c <printf>
    80000cc0:	0000006f          	j	80000cc0 <_halt+0x20>

Disassembly of section .text._trm_init:

0000000080000cc4 <_trm_init>:
    80000cc4:	ff010113          	addi	sp,sp,-16
    80000cc8:	00113423          	sd	ra,8(sp)
    80000ccc:	014000ef          	jal	ra,80000ce0 <__am_init_uartlite>
    80000cd0:	00001517          	auipc	a0,0x1
    80000cd4:	0fd50513          	addi	a0,a0,253 # 80001dcd <__am_mainargs>
    80000cd8:	e78ff0ef          	jal	ra,80000350 <main>
    80000cdc:	fc5ff0ef          	jal	ra,80000ca0 <_halt>

Disassembly of section .text.__am_init_uartlite:

0000000080000ce0 <__am_init_uartlite>:
    80000ce0:	406007b7          	lui	a5,0x40600
    80000ce4:	00300713          	li	a4,3
    80000ce8:	00e78623          	sb	a4,12(a5) # 4060000c <_start-0x3f9ffff4>
    80000cec:	00008067          	ret

Disassembly of section .text.__am_uartlite_putchar:

0000000080000cf0 <__am_uartlite_putchar>:
    80000cf0:	ff010113          	addi	sp,sp,-16
    80000cf4:	00813023          	sd	s0,0(sp)
    80000cf8:	00113423          	sd	ra,8(sp)
    80000cfc:	00a00793          	li	a5,10
    80000d00:	00050413          	mv	s0,a0
    80000d04:	02f50463          	beq	a0,a5,80000d2c <__am_uartlite_putchar+0x3c>
    80000d08:	40600737          	lui	a4,0x40600
    80000d0c:	00874783          	lbu	a5,8(a4) # 40600008 <_start-0x3f9ffff8>
    80000d10:	0087f793          	andi	a5,a5,8
    80000d14:	fe079ce3          	bnez	a5,80000d0c <__am_uartlite_putchar+0x1c>
    80000d18:	00870223          	sb	s0,4(a4)
    80000d1c:	00813083          	ld	ra,8(sp)
    80000d20:	00013403          	ld	s0,0(sp)
    80000d24:	01010113          	addi	sp,sp,16
    80000d28:	00008067          	ret
    80000d2c:	00d00513          	li	a0,13
    80000d30:	fc1ff0ef          	jal	ra,80000cf0 <__am_uartlite_putchar>
    80000d34:	fd5ff06f          	j	80000d08 <__am_uartlite_putchar+0x18>

Disassembly of section .text.uptime:

0000000080000d38 <uptime>:
    80000d38:	fe010113          	addi	sp,sp,-32
    80000d3c:	0000b537          	lui	a0,0xb
    80000d40:	00810613          	addi	a2,sp,8
    80000d44:	00800693          	li	a3,8
    80000d48:	00100593          	li	a1,1
    80000d4c:	c0350513          	addi	a0,a0,-1021 # ac03 <_start-0x7fff53fd>
    80000d50:	00113c23          	sd	ra,24(sp)
    80000d54:	d75ff0ef          	jal	ra,80000ac8 <_io_read>
    80000d58:	01813083          	ld	ra,24(sp)
    80000d5c:	00c12503          	lw	a0,12(sp)
    80000d60:	02010113          	addi	sp,sp,32
    80000d64:	00008067          	ret

Disassembly of section .text.__putch:

0000000080000d68 <__putch>:
    80000d68:	08058c63          	beqz	a1,80000e00 <__putch+0x98>
    80000d6c:	fd010113          	addi	sp,sp,-48
    80000d70:	02813023          	sd	s0,32(sp)
    80000d74:	00913c23          	sd	s1,24(sp)
    80000d78:	01213823          	sd	s2,16(sp)
    80000d7c:	01313423          	sd	s3,8(sp)
    80000d80:	02113423          	sd	ra,40(sp)
    80000d84:	fff5849b          	addiw	s1,a1,-1
    80000d88:	00060413          	mv	s0,a2
    80000d8c:	00050993          	mv	s3,a0
    80000d90:	fff00913          	li	s2,-1
    80000d94:	0280006f          	j	80000dbc <__putch+0x54>
    80000d98:	01843703          	ld	a4,24(s0)
    80000d9c:	00e78663          	beq	a5,a4,80000da8 <__putch+0x40>
    80000da0:	00d43823          	sd	a3,16(s0)
    80000da4:	01378023          	sb	s3,0(a5)
    80000da8:	02043783          	ld	a5,32(s0)
    80000dac:	fff4849b          	addiw	s1,s1,-1
    80000db0:	00178793          	addi	a5,a5,1
    80000db4:	02f43023          	sd	a5,32(s0)
    80000db8:	03248663          	beq	s1,s2,80000de4 <__putch+0x7c>
    80000dbc:	01043783          	ld	a5,16(s0)
    80000dc0:	00178693          	addi	a3,a5,1
    80000dc4:	fc079ae3          	bnez	a5,80000d98 <__putch+0x30>
    80000dc8:	00098513          	mv	a0,s3
    80000dcc:	ed1ff0ef          	jal	ra,80000c9c <_putc>
    80000dd0:	02043783          	ld	a5,32(s0)
    80000dd4:	fff4849b          	addiw	s1,s1,-1
    80000dd8:	00178793          	addi	a5,a5,1
    80000ddc:	02f43023          	sd	a5,32(s0)
    80000de0:	fd249ee3          	bne	s1,s2,80000dbc <__putch+0x54>
    80000de4:	02813083          	ld	ra,40(sp)
    80000de8:	02013403          	ld	s0,32(sp)
    80000dec:	01813483          	ld	s1,24(sp)
    80000df0:	01013903          	ld	s2,16(sp)
    80000df4:	00813983          	ld	s3,8(sp)
    80000df8:	03010113          	addi	sp,sp,48
    80000dfc:	00008067          	ret
    80000e00:	00008067          	ret

Disassembly of section .text.vsnprintf_internal:

0000000080000e04 <vsnprintf_internal>:
    80000e04:	f1010113          	addi	sp,sp,-240
    80000e08:	0e813023          	sd	s0,224(sp)
    80000e0c:	0d413023          	sd	s4,192(sp)
    80000e10:	0e113423          	sd	ra,232(sp)
    80000e14:	0c913c23          	sd	s1,216(sp)
    80000e18:	0d213823          	sd	s2,208(sp)
    80000e1c:	0d313423          	sd	s3,200(sp)
    80000e20:	0b513c23          	sd	s5,184(sp)
    80000e24:	0b613823          	sd	s6,176(sp)
    80000e28:	0b713423          	sd	s7,168(sp)
    80000e2c:	0b813023          	sd	s8,160(sp)
    80000e30:	09913c23          	sd	s9,152(sp)
    80000e34:	09a13823          	sd	s10,144(sp)
    80000e38:	09b13423          	sd	s11,136(sp)
    80000e3c:	00013c23          	sd	zero,24(sp)
    80000e40:	02013023          	sd	zero,32(sp)
    80000e44:	02013c23          	sd	zero,56(sp)
    80000e48:	02a13423          	sd	a0,40(sp)
    80000e4c:	00060413          	mv	s0,a2
    80000e50:	00068a13          	mv	s4,a3
    80000e54:	00050663          	beqz	a0,80000e60 <vsnprintf_internal+0x5c>
    80000e58:	00b50533          	add	a0,a0,a1
    80000e5c:	58058863          	beqz	a1,800013ec <vsnprintf_internal+0x5e8>
    80000e60:	02a13823          	sd	a0,48(sp)
    80000e64:	00001917          	auipc	s2,0x1
    80000e68:	f6c90913          	addi	s2,s2,-148 # 80001dd0 <__am_mainargs+0x3>
    80000e6c:	03900a93          	li	s5,57
    80000e70:	00001997          	auipc	s3,0x1
    80000e74:	0d098993          	addi	s3,s3,208 # 80001f40 <__am_mainargs+0x173>
    80000e78:	00044503          	lbu	a0,0(s0)
    80000e7c:	02050263          	beqz	a0,80000ea0 <vsnprintf_internal+0x9c>
    80000e80:	02500793          	li	a5,37
    80000e84:	00140413          	addi	s0,s0,1
    80000e88:	06f50263          	beq	a0,a5,80000eec <vsnprintf_internal+0xe8>
    80000e8c:	01810613          	addi	a2,sp,24
    80000e90:	00100593          	li	a1,1
    80000e94:	ed5ff0ef          	jal	ra,80000d68 <__putch>
    80000e98:	00044503          	lbu	a0,0(s0)
    80000e9c:	fe0512e3          	bnez	a0,80000e80 <vsnprintf_internal+0x7c>
    80000ea0:	02813783          	ld	a5,40(sp)
    80000ea4:	00078463          	beqz	a5,80000eac <vsnprintf_internal+0xa8>
    80000ea8:	00078023          	sb	zero,0(a5)
    80000eac:	0e813083          	ld	ra,232(sp)
    80000eb0:	0e013403          	ld	s0,224(sp)
    80000eb4:	03812503          	lw	a0,56(sp)
    80000eb8:	0d813483          	ld	s1,216(sp)
    80000ebc:	0d013903          	ld	s2,208(sp)
    80000ec0:	0c813983          	ld	s3,200(sp)
    80000ec4:	0c013a03          	ld	s4,192(sp)
    80000ec8:	0b813a83          	ld	s5,184(sp)
    80000ecc:	0b013b03          	ld	s6,176(sp)
    80000ed0:	0a813b83          	ld	s7,168(sp)
    80000ed4:	0a013c03          	ld	s8,160(sp)
    80000ed8:	09813c83          	ld	s9,152(sp)
    80000edc:	09013d03          	ld	s10,144(sp)
    80000ee0:	08813d83          	ld	s11,136(sp)
    80000ee4:	0f010113          	addi	sp,sp,240
    80000ee8:	00008067          	ret
    80000eec:	02000793          	li	a5,32
    80000ef0:	00f10e23          	sb	a5,28(sp)
    80000ef4:	00012c23          	sw	zero,24(sp)
    80000ef8:	02012023          	sw	zero,32(sp)
    80000efc:	00040793          	mv	a5,s0
    80000f00:	00000b93          	li	s7,0
    80000f04:	00000b13          	li	s6,0
    80000f08:	00000c13          	li	s8,0
    80000f0c:	05800693          	li	a3,88
    80000f10:	06c00e13          	li	t3,108
    80000f14:	06800313          	li	t1,104
    80000f18:	02f00593          	li	a1,47
    80000f1c:	02d00e93          	li	t4,45
    80000f20:	00900613          	li	a2,9
    80000f24:	02000813          	li	a6,32
    80000f28:	00100513          	li	a0,1
    80000f2c:	02b00893          	li	a7,43
    80000f30:	02b00f13          	li	t5,43
    80000f34:	0007c703          	lbu	a4,0(a5)
    80000f38:	00140413          	addi	s0,s0,1
    80000f3c:	fe07079b          	addiw	a5,a4,-32
    80000f40:	0ff7f793          	andi	a5,a5,255
    80000f44:	f2f6eae3          	bltu	a3,a5,80000e78 <vsnprintf_internal+0x74>
    80000f48:	00279793          	slli	a5,a5,0x2
    80000f4c:	012787b3          	add	a5,a5,s2
    80000f50:	0007a783          	lw	a5,0(a5)
    80000f54:	012787b3          	add	a5,a5,s2
    80000f58:	00078067          	jr	a5
    80000f5c:	fd070c1b          	addiw	s8,a4,-48
    80000f60:	00044703          	lbu	a4,0(s0)
    80000f64:	00140413          	addi	s0,s0,1
    80000f68:	02e5f463          	bgeu	a1,a4,80000f90 <vsnprintf_internal+0x18c>
    80000f6c:	fceae8e3          	bltu	s5,a4,80000f3c <vsnprintf_internal+0x138>
    80000f70:	002c179b          	slliw	a5,s8,0x2
    80000f74:	01878c3b          	addw	s8,a5,s8
    80000f78:	001c1c1b          	slliw	s8,s8,0x1
    80000f7c:	00140413          	addi	s0,s0,1
    80000f80:	00ec0c3b          	addw	s8,s8,a4
    80000f84:	fff44703          	lbu	a4,-1(s0)
    80000f88:	fd0c0c1b          	addiw	s8,s8,-48
    80000f8c:	fee5e0e3          	bltu	a1,a4,80000f6c <vsnprintf_internal+0x168>
    80000f90:	fbd716e3          	bne	a4,t4,80000f3c <vsnprintf_internal+0x138>
    80000f94:	41800c3b          	negw	s8,s8
    80000f98:	00040793          	mv	a5,s0
    80000f9c:	f99ff06f          	j	80000f34 <vsnprintf_internal+0x130>
    80000fa0:	00200793          	li	a5,2
    80000fa4:	008a0513          	addi	a0,s4,8
    80000fa8:	74fb8063          	beq	s7,a5,800016e8 <vsnprintf_internal+0x8e4>
    80000fac:	4b77da63          	bge	a5,s7,80001460 <vsnprintf_internal+0x65c>
    80000fb0:	00300793          	li	a5,3
    80000fb4:	00fb8663          	beq	s7,a5,80000fc0 <vsnprintf_internal+0x1bc>
    80000fb8:	00400793          	li	a5,4
    80000fbc:	72fb9a63          	bne	s7,a5,800016f0 <vsnprintf_internal+0x8ec>
    80000fc0:	000a3483          	ld	s1,0(s4)
    80000fc4:	01810c93          	addi	s9,sp,24
    80000fc8:	00050a13          	mv	s4,a0
    80000fcc:	06010fa3          	sb	zero,127(sp)
    80000fd0:	07f10713          	addi	a4,sp,127
    80000fd4:	00f00613          	li	a2,15
    80000fd8:	0080006f          	j	80000fe0 <vsnprintf_internal+0x1dc>
    80000fdc:	00068493          	mv	s1,a3
    80000fe0:	00f4f793          	andi	a5,s1,15
    80000fe4:	00f987b3          	add	a5,s3,a5
    80000fe8:	0007c783          	lbu	a5,0(a5)
    80000fec:	fff70713          	addi	a4,a4,-1
    80000ff0:	0044d693          	srli	a3,s1,0x4
    80000ff4:	00f70023          	sb	a5,0(a4)
    80000ff8:	fe9662e3          	bltu	a2,s1,80000fdc <vsnprintf_internal+0x1d8>
    80000ffc:	08010793          	addi	a5,sp,128
    80001000:	40e7873b          	subw	a4,a5,a4
    80001004:	fff70d1b          	addiw	s10,a4,-1
    80001008:	ffe7079b          	addiw	a5,a4,-2
    8000100c:	fffd4493          	not	s1,s10
    80001010:	00f13023          	sd	a5,0(sp)
    80001014:	08010793          	addi	a5,sp,128
    80001018:	009784b3          	add	s1,a5,s1
    8000101c:	00000b93          	li	s7,0
    80001020:	136d5a63          	bge	s10,s6,80001154 <vsnprintf_internal+0x350>
    80001024:	41ab083b          	subw	a6,s6,s10
    80001028:	01780b3b          	addw	s6,a6,s7
    8000102c:	01ab073b          	addw	a4,s6,s10
    80001030:	00000d93          	li	s11,0
    80001034:	01875463          	bge	a4,s8,8000103c <vsnprintf_internal+0x238>
    80001038:	40ec0dbb          	subw	s11,s8,a4
    8000103c:	01813683          	ld	a3,24(sp)
    80001040:	fff00713          	li	a4,-1
    80001044:	01875713          	srli	a4,a4,0x18
    80001048:	00e6f6b3          	and	a3,a3,a4
    8000104c:	00100713          	li	a4,1
    80001050:	02571713          	slli	a4,a4,0x25
    80001054:	3ae68063          	beq	a3,a4,800013f4 <vsnprintf_internal+0x5f0>
    80001058:	3a0b9c63          	bnez	s7,80001410 <vsnprintf_internal+0x60c>
    8000105c:	01813683          	ld	a3,24(sp)
    80001060:	fff00713          	li	a4,-1
    80001064:	01875713          	srli	a4,a4,0x18
    80001068:	00e6f6b3          	and	a3,a3,a4
    8000106c:	00300713          	li	a4,3
    80001070:	02471713          	slli	a4,a4,0x24
    80001074:	3ce68863          	beq	a3,a4,80001444 <vsnprintf_internal+0x640>
    80001078:	000c8613          	mv	a2,s9
    8000107c:	00080593          	mv	a1,a6
    80001080:	03000513          	li	a0,48
    80001084:	ce5ff0ef          	jal	ra,80000d68 <__putch>
    80001088:	020d0463          	beqz	s10,800010b0 <vsnprintf_internal+0x2ac>
    8000108c:	00016b03          	lwu	s6,0(sp)
    80001090:	001b0b13          	addi	s6,s6,1
    80001094:	01648b33          	add	s6,s1,s6
    80001098:	00148493          	addi	s1,s1,1
    8000109c:	fff4c503          	lbu	a0,-1(s1)
    800010a0:	000c8613          	mv	a2,s9
    800010a4:	00100593          	li	a1,1
    800010a8:	cc1ff0ef          	jal	ra,80000d68 <__putch>
    800010ac:	ff6496e3          	bne	s1,s6,80001098 <vsnprintf_internal+0x294>
    800010b0:	01812783          	lw	a5,24(sp)
    800010b4:	dc0782e3          	beqz	a5,80000e78 <vsnprintf_internal+0x74>
    800010b8:	01c14503          	lbu	a0,28(sp)
    800010bc:	000c8613          	mv	a2,s9
    800010c0:	000d8593          	mv	a1,s11
    800010c4:	ca5ff0ef          	jal	ra,80000d68 <__putch>
    800010c8:	db1ff06f          	j	80000e78 <vsnprintf_internal+0x74>
    800010cc:	01812783          	lw	a5,24(sp)
    800010d0:	ec0794e3          	bnez	a5,80000f98 <vsnprintf_internal+0x194>
    800010d4:	03000793          	li	a5,48
    800010d8:	00f10e23          	sb	a5,28(sp)
    800010dc:	00040793          	mv	a5,s0
    800010e0:	e55ff06f          	j	80000f34 <vsnprintf_internal+0x130>
    800010e4:	00200793          	li	a5,2
    800010e8:	60fb8e63          	beq	s7,a5,80001704 <vsnprintf_internal+0x900>
    800010ec:	4377d663          	bge	a5,s7,80001518 <vsnprintf_internal+0x714>
    800010f0:	00300793          	li	a5,3
    800010f4:	64fb8063          	beq	s7,a5,80001734 <vsnprintf_internal+0x930>
    800010f8:	00400793          	li	a5,4
    800010fc:	00a00713          	li	a4,10
    80001100:	60fb9a63          	bne	s7,a5,80001714 <vsnprintf_internal+0x910>
    80001104:	00800693          	li	a3,8
    80001108:	008a0513          	addi	a0,s4,8
    8000110c:	000a3783          	ld	a5,0(s4)
    80001110:	44d70263          	beq	a4,a3,80001554 <vsnprintf_internal+0x750>
    80001114:	00a00693          	li	a3,10
    80001118:	00050a13          	mv	s4,a0
    8000111c:	66d70463          	beq	a4,a3,80001784 <vsnprintf_internal+0x980>
    80001120:	fff00793          	li	a5,-1
    80001124:	00f13023          	sd	a5,0(sp)
    80001128:	fff00493          	li	s1,-1
    8000112c:	00000b93          	li	s7,0
    80001130:	00000d13          	li	s10,0
    80001134:	08010793          	addi	a5,sp,128
    80001138:	009784b3          	add	s1,a5,s1
    8000113c:	01810c93          	addi	s9,sp,24
    80001140:	ee0b80e3          	beqz	s7,80001020 <vsnprintf_internal+0x21c>
    80001144:	02012b83          	lw	s7,32(sp)
    80001148:	01810c93          	addi	s9,sp,24
    8000114c:	01703bb3          	snez	s7,s7
    80001150:	ed6d4ae3          	blt	s10,s6,80001024 <vsnprintf_internal+0x220>
    80001154:	000b8b13          	mv	s6,s7
    80001158:	00000813          	li	a6,0
    8000115c:	ed1ff06f          	j	8000102c <vsnprintf_internal+0x228>
    80001160:	008a0c93          	addi	s9,s4,8
    80001164:	000a3483          	ld	s1,0(s4)
    80001168:	500b0a63          	beqz	s6,8000167c <vsnprintf_internal+0x878>
    8000116c:	fffb0b9b          	addiw	s7,s6,-1
    80001170:	000c8a13          	mv	s4,s9
    80001174:	00000d13          	li	s10,0
    80001178:	018b5463          	bge	s6,s8,80001180 <vsnprintf_internal+0x37c>
    8000117c:	416c0d3b          	subw	s10,s8,s6
    80001180:	01812783          	lw	a5,24(sp)
    80001184:	3a078663          	beqz	a5,80001530 <vsnprintf_internal+0x72c>
    80001188:	01810c93          	addi	s9,sp,24
    8000118c:	020b0a63          	beqz	s6,800011c0 <vsnprintf_internal+0x3bc>
    80001190:	020b9b13          	slli	s6,s7,0x20
    80001194:	020b5b13          	srli	s6,s6,0x20
    80001198:	001b0b13          	addi	s6,s6,1
    8000119c:	01648b33          	add	s6,s1,s6
    800011a0:	00148493          	addi	s1,s1,1
    800011a4:	fff4c503          	lbu	a0,-1(s1)
    800011a8:	000c8613          	mv	a2,s9
    800011ac:	00100593          	li	a1,1
    800011b0:	bb9ff0ef          	jal	ra,80000d68 <__putch>
    800011b4:	fe9b16e3          	bne	s6,s1,800011a0 <vsnprintf_internal+0x39c>
    800011b8:	01812783          	lw	a5,24(sp)
    800011bc:	ca078ee3          	beqz	a5,80000e78 <vsnprintf_internal+0x74>
    800011c0:	01c14503          	lbu	a0,28(sp)
    800011c4:	000c8613          	mv	a2,s9
    800011c8:	000d0593          	mv	a1,s10
    800011cc:	b9dff0ef          	jal	ra,80000d68 <__putch>
    800011d0:	ca9ff06f          	j	80000e78 <vsnprintf_internal+0x74>
    800011d4:	000a3483          	ld	s1,0(s4)
    800011d8:	008a0a13          	addi	s4,s4,8
    800011dc:	46049c63          	bnez	s1,80001654 <vsnprintf_internal+0x850>
    800011e0:	02800513          	li	a0,40
    800011e4:	00001497          	auipc	s1,0x1
    800011e8:	d5448493          	addi	s1,s1,-684 # 80001f38 <__am_mainargs+0x16b>
    800011ec:	01810c93          	addi	s9,sp,24
    800011f0:	00001b17          	auipc	s6,0x1
    800011f4:	d4db0b13          	addi	s6,s6,-691 # 80001f3d <__am_mainargs+0x170>
    800011f8:	0080006f          	j	80001200 <vsnprintf_internal+0x3fc>
    800011fc:	0004c503          	lbu	a0,0(s1)
    80001200:	00148493          	addi	s1,s1,1
    80001204:	000c8613          	mv	a2,s9
    80001208:	00100593          	li	a1,1
    8000120c:	b5dff0ef          	jal	ra,80000d68 <__putch>
    80001210:	ff6496e3          	bne	s1,s6,800011fc <vsnprintf_internal+0x3f8>
    80001214:	c65ff06f          	j	80000e78 <vsnprintf_internal+0x74>
    80001218:	00200793          	li	a5,2
    8000121c:	4cfb8e63          	beq	s7,a5,800016f8 <vsnprintf_internal+0x8f4>
    80001220:	2d77dc63          	bge	a5,s7,800014f8 <vsnprintf_internal+0x6f4>
    80001224:	00300793          	li	a5,3
    80001228:	32fb8263          	beq	s7,a5,8000154c <vsnprintf_internal+0x748>
    8000122c:	00400793          	li	a5,4
    80001230:	00800713          	li	a4,8
    80001234:	ecfb88e3          	beq	s7,a5,80001104 <vsnprintf_internal+0x300>
    80001238:	000a2783          	lw	a5,0(s4)
    8000123c:	008a0a13          	addi	s4,s4,8
    80001240:	0077f713          	andi	a4,a5,7
    80001244:	00e98733          	add	a4,s3,a4
    80001248:	00074603          	lbu	a2,0(a4)
    8000124c:	06010fa3          	sb	zero,127(sp)
    80001250:	07f10713          	addi	a4,sp,127
    80001254:	00700593          	li	a1,7
    80001258:	0140006f          	j	8000126c <vsnprintf_internal+0x468>
    8000125c:	0076f793          	andi	a5,a3,7
    80001260:	00f987b3          	add	a5,s3,a5
    80001264:	0007c603          	lbu	a2,0(a5)
    80001268:	0006879b          	sext.w	a5,a3
    8000126c:	fff70713          	addi	a4,a4,-1
    80001270:	00c70023          	sb	a2,0(a4)
    80001274:	0037d69b          	srliw	a3,a5,0x3
    80001278:	fef5e2e3          	bltu	a1,a5,8000125c <vsnprintf_internal+0x458>
    8000127c:	08010793          	addi	a5,sp,128
    80001280:	40e7873b          	subw	a4,a5,a4
    80001284:	fff70d1b          	addiw	s10,a4,-1
    80001288:	ffe7079b          	addiw	a5,a4,-2
    8000128c:	fffd4493          	not	s1,s10
    80001290:	00f13023          	sd	a5,0(sp)
    80001294:	01810c93          	addi	s9,sp,24
    80001298:	d7dff06f          	j	80001014 <vsnprintf_internal+0x210>
    8000129c:	00044703          	lbu	a4,0(s0)
    800012a0:	00140413          	addi	s0,s0,1
    800012a4:	4dc70463          	beq	a4,t3,8000176c <vsnprintf_internal+0x968>
    800012a8:	00300b93          	li	s7,3
    800012ac:	c91ff06f          	j	80000f3c <vsnprintf_internal+0x138>
    800012b0:	02a12023          	sw	a0,32(sp)
    800012b4:	03110223          	sb	a7,36(sp)
    800012b8:	00040793          	mv	a5,s0
    800012bc:	c79ff06f          	j	80000f34 <vsnprintf_internal+0x130>
    800012c0:	01810613          	addi	a2,sp,24
    800012c4:	00100593          	li	a1,1
    800012c8:	02500513          	li	a0,37
    800012cc:	a9dff0ef          	jal	ra,80000d68 <__putch>
    800012d0:	ba9ff06f          	j	80000e78 <vsnprintf_internal+0x74>
    800012d4:	02012783          	lw	a5,32(sp)
    800012d8:	2c079863          	bnez	a5,800015a8 <vsnprintf_internal+0x7a4>
    800012dc:	02a12023          	sw	a0,32(sp)
    800012e0:	03010223          	sb	a6,36(sp)
    800012e4:	00040793          	mv	a5,s0
    800012e8:	c4dff06f          	j	80000f34 <vsnprintf_internal+0x130>
    800012ec:	00044703          	lbu	a4,0(s0)
    800012f0:	00140413          	addi	s0,s0,1
    800012f4:	fd07079b          	addiw	a5,a4,-48
    800012f8:	0ff7f793          	andi	a5,a5,255
    800012fc:	02f66663          	bltu	a2,a5,80001328 <vsnprintf_internal+0x524>
    80001300:	002b179b          	slliw	a5,s6,0x2
    80001304:	01678b3b          	addw	s6,a5,s6
    80001308:	001b1b1b          	slliw	s6,s6,0x1
    8000130c:	00140413          	addi	s0,s0,1
    80001310:	00eb0b3b          	addw	s6,s6,a4
    80001314:	fff44703          	lbu	a4,-1(s0)
    80001318:	fd0b0b1b          	addiw	s6,s6,-48
    8000131c:	fd07079b          	addiw	a5,a4,-48
    80001320:	0ff7f793          	andi	a5,a5,255
    80001324:	fcf67ee3          	bgeu	a2,a5,80001300 <vsnprintf_internal+0x4fc>
    80001328:	01010e23          	sb	a6,28(sp)
    8000132c:	c11ff06f          	j	80000f3c <vsnprintf_internal+0x138>
    80001330:	00200793          	li	a5,2
    80001334:	38fb8a63          	beq	s7,a5,800016c8 <vsnprintf_internal+0x8c4>
    80001338:	1977d463          	bge	a5,s7,800014c0 <vsnprintf_internal+0x6bc>
    8000133c:	00300793          	li	a5,3
    80001340:	00fb8663          	beq	s7,a5,8000134c <vsnprintf_internal+0x548>
    80001344:	00400793          	li	a5,4
    80001348:	34fb9263          	bne	s7,a5,8000168c <vsnprintf_internal+0x888>
    8000134c:	000a3783          	ld	a5,0(s4)
    80001350:	008a0a13          	addi	s4,s4,8
    80001354:	2607c463          	bltz	a5,800015bc <vsnprintf_internal+0x7b8>
    80001358:	00100b93          	li	s7,1
    8000135c:	06010fa3          	sb	zero,127(sp)
    80001360:	07f10693          	addi	a3,sp,127
    80001364:	00a00613          	li	a2,10
    80001368:	00900513          	li	a0,9
    8000136c:	0080006f          	j	80001374 <vsnprintf_internal+0x570>
    80001370:	00058793          	mv	a5,a1
    80001374:	02c7f733          	remu	a4,a5,a2
    80001378:	fff68693          	addi	a3,a3,-1
    8000137c:	00e98733          	add	a4,s3,a4
    80001380:	00074703          	lbu	a4,0(a4)
    80001384:	02c7d5b3          	divu	a1,a5,a2
    80001388:	00e68023          	sb	a4,0(a3)
    8000138c:	fef562e3          	bltu	a0,a5,80001370 <vsnprintf_internal+0x56c>
    80001390:	08010793          	addi	a5,sp,128
    80001394:	40d786bb          	subw	a3,a5,a3
    80001398:	fff68d1b          	addiw	s10,a3,-1
    8000139c:	ffe6879b          	addiw	a5,a3,-2
    800013a0:	fffd4493          	not	s1,s10
    800013a4:	00f13023          	sd	a5,0(sp)
    800013a8:	d8dff06f          	j	80001134 <vsnprintf_internal+0x330>
    800013ac:	00a12c23          	sw	a0,24(sp)
    800013b0:	01010e23          	sb	a6,28(sp)
    800013b4:	00040793          	mv	a5,s0
    800013b8:	b7dff06f          	j	80000f34 <vsnprintf_internal+0x130>
    800013bc:	00044703          	lbu	a4,0(s0)
    800013c0:	00140413          	addi	s0,s0,1
    800013c4:	3a670a63          	beq	a4,t1,80001778 <vsnprintf_internal+0x974>
    800013c8:	00200b93          	li	s7,2
    800013cc:	b71ff06f          	j	80000f3c <vsnprintf_internal+0x138>
    800013d0:	000a2783          	lw	a5,0(s4)
    800013d4:	00000b93          	li	s7,0
    800013d8:	008a0a13          	addi	s4,s4,8
    800013dc:	04f10023          	sb	a5,64(sp)
    800013e0:	04010493          	addi	s1,sp,64
    800013e4:	00100b13          	li	s6,1
    800013e8:	d8dff06f          	j	80001174 <vsnprintf_internal+0x370>
    800013ec:	00000513          	li	a0,0
    800013f0:	a71ff06f          	j	80000e60 <vsnprintf_internal+0x5c>
    800013f4:	01c14503          	lbu	a0,28(sp)
    800013f8:	000c8613          	mv	a2,s9
    800013fc:	000d8593          	mv	a1,s11
    80001400:	01013423          	sd	a6,8(sp)
    80001404:	965ff0ef          	jal	ra,80000d68 <__putch>
    80001408:	00813803          	ld	a6,8(sp)
    8000140c:	c40b88e3          	beqz	s7,8000105c <vsnprintf_internal+0x258>
    80001410:	02414503          	lbu	a0,36(sp)
    80001414:	000c8613          	mv	a2,s9
    80001418:	00100593          	li	a1,1
    8000141c:	01013423          	sd	a6,8(sp)
    80001420:	949ff0ef          	jal	ra,80000d68 <__putch>
    80001424:	01813683          	ld	a3,24(sp)
    80001428:	fff00713          	li	a4,-1
    8000142c:	01875713          	srli	a4,a4,0x18
    80001430:	00e6f6b3          	and	a3,a3,a4
    80001434:	00300713          	li	a4,3
    80001438:	02471713          	slli	a4,a4,0x24
    8000143c:	00813803          	ld	a6,8(sp)
    80001440:	c2e69ce3          	bne	a3,a4,80001078 <vsnprintf_internal+0x274>
    80001444:	01c14503          	lbu	a0,28(sp)
    80001448:	000c8613          	mv	a2,s9
    8000144c:	000d8593          	mv	a1,s11
    80001450:	01013423          	sd	a6,8(sp)
    80001454:	915ff0ef          	jal	ra,80000d68 <__putch>
    80001458:	00813803          	ld	a6,8(sp)
    8000145c:	c1dff06f          	j	80001078 <vsnprintf_internal+0x274>
    80001460:	00100793          	li	a5,1
    80001464:	28fb9663          	bne	s7,a5,800016f0 <vsnprintf_internal+0x8ec>
    80001468:	000a4703          	lbu	a4,0(s4)
    8000146c:	06010fa3          	sb	zero,127(sp)
    80001470:	07f10693          	addi	a3,sp,127
    80001474:	00f00593          	li	a1,15
    80001478:	0080006f          	j	80001480 <vsnprintf_internal+0x67c>
    8000147c:	00060713          	mv	a4,a2
    80001480:	00f77793          	andi	a5,a4,15
    80001484:	00f987b3          	add	a5,s3,a5
    80001488:	0007c783          	lbu	a5,0(a5)
    8000148c:	fff68693          	addi	a3,a3,-1
    80001490:	0047561b          	srliw	a2,a4,0x4
    80001494:	00f68023          	sb	a5,0(a3)
    80001498:	fee5e2e3          	bltu	a1,a4,8000147c <vsnprintf_internal+0x678>
    8000149c:	08010793          	addi	a5,sp,128
    800014a0:	40d786bb          	subw	a3,a5,a3
    800014a4:	fff68d1b          	addiw	s10,a3,-1
    800014a8:	ffe6879b          	addiw	a5,a3,-2
    800014ac:	fffd4493          	not	s1,s10
    800014b0:	00f13023          	sd	a5,0(sp)
    800014b4:	00050a13          	mv	s4,a0
    800014b8:	01810c93          	addi	s9,sp,24
    800014bc:	b59ff06f          	j	80001014 <vsnprintf_internal+0x210>
    800014c0:	00100793          	li	a5,1
    800014c4:	1cfb9463          	bne	s7,a5,8000168c <vsnprintf_internal+0x888>
    800014c8:	000a2703          	lw	a4,0(s4)
    800014cc:	008a0793          	addi	a5,s4,8
    800014d0:	0187169b          	slliw	a3,a4,0x18
    800014d4:	4186d69b          	sraiw	a3,a3,0x18
    800014d8:	0e06ce63          	bltz	a3,800015d4 <vsnprintf_internal+0x7d0>
    800014dc:	0ff77713          	andi	a4,a4,255
    800014e0:	00a00693          	li	a3,10
    800014e4:	02d776bb          	remuw	a3,a4,a3
    800014e8:	00078a13          	mv	s4,a5
    800014ec:	00d987b3          	add	a5,s3,a3
    800014f0:	0007c783          	lbu	a5,0(a5)
    800014f4:	1100006f          	j	80001604 <vsnprintf_internal+0x800>
    800014f8:	00100793          	li	a5,1
    800014fc:	d2fb9ee3          	bne	s7,a5,80001238 <vsnprintf_internal+0x434>
    80001500:	000a4783          	lbu	a5,0(s4)
    80001504:	008a0a13          	addi	s4,s4,8
    80001508:	0077f713          	andi	a4,a5,7
    8000150c:	00e98733          	add	a4,s3,a4
    80001510:	00074603          	lbu	a2,0(a4)
    80001514:	d39ff06f          	j	8000124c <vsnprintf_internal+0x448>
    80001518:	00100793          	li	a5,1
    8000151c:	1efb9c63          	bne	s7,a5,80001714 <vsnprintf_internal+0x910>
    80001520:	008a0793          	addi	a5,s4,8
    80001524:	000a4703          	lbu	a4,0(s4)
    80001528:	00000b93          	li	s7,0
    8000152c:	fb5ff06f          	j	800014e0 <vsnprintf_internal+0x6dc>
    80001530:	01c14503          	lbu	a0,28(sp)
    80001534:	01810c93          	addi	s9,sp,24
    80001538:	000c8613          	mv	a2,s9
    8000153c:	000d0593          	mv	a1,s10
    80001540:	829ff0ef          	jal	ra,80000d68 <__putch>
    80001544:	c40b16e3          	bnez	s6,80001190 <vsnprintf_internal+0x38c>
    80001548:	c71ff06f          	j	800011b8 <vsnprintf_internal+0x3b4>
    8000154c:	000a3783          	ld	a5,0(s4)
    80001550:	008a0513          	addi	a0,s4,8
    80001554:	06010fa3          	sb	zero,127(sp)
    80001558:	07f10693          	addi	a3,sp,127
    8000155c:	00700593          	li	a1,7
    80001560:	0080006f          	j	80001568 <vsnprintf_internal+0x764>
    80001564:	00060793          	mv	a5,a2
    80001568:	0077f713          	andi	a4,a5,7
    8000156c:	00e98733          	add	a4,s3,a4
    80001570:	00074703          	lbu	a4,0(a4)
    80001574:	fff68693          	addi	a3,a3,-1
    80001578:	0037d613          	srli	a2,a5,0x3
    8000157c:	00e68023          	sb	a4,0(a3)
    80001580:	fef5e2e3          	bltu	a1,a5,80001564 <vsnprintf_internal+0x760>
    80001584:	08010793          	addi	a5,sp,128
    80001588:	40d786bb          	subw	a3,a5,a3
    8000158c:	fff68d1b          	addiw	s10,a3,-1
    80001590:	ffe6879b          	addiw	a5,a3,-2
    80001594:	fffd4493          	not	s1,s10
    80001598:	00f13023          	sd	a5,0(sp)
    8000159c:	00050a13          	mv	s4,a0
    800015a0:	01810c93          	addi	s9,sp,24
    800015a4:	a71ff06f          	j	80001014 <vsnprintf_internal+0x210>
    800015a8:	02414783          	lbu	a5,36(sp)
    800015ac:	9fe786e3          	beq	a5,t5,80000f98 <vsnprintf_internal+0x194>
    800015b0:	02a12023          	sw	a0,32(sp)
    800015b4:	03010223          	sb	a6,36(sp)
    800015b8:	d2dff06f          	j	800012e4 <vsnprintf_internal+0x4e0>
    800015bc:	02d00713          	li	a4,45
    800015c0:	02e10223          	sb	a4,36(sp)
    800015c4:	00100713          	li	a4,1
    800015c8:	02e12023          	sw	a4,32(sp)
    800015cc:	40f007b3          	neg	a5,a5
    800015d0:	d89ff06f          	j	80001358 <vsnprintf_internal+0x554>
    800015d4:	fff74713          	not	a4,a4
    800015d8:	0ff77713          	andi	a4,a4,255
    800015dc:	02d00693          	li	a3,45
    800015e0:	02d10223          	sb	a3,36(sp)
    800015e4:	03712023          	sw	s7,32(sp)
    800015e8:	00170713          	addi	a4,a4,1
    800015ec:	00078a13          	mv	s4,a5
    800015f0:	00a00793          	li	a5,10
    800015f4:	02f777bb          	remuw	a5,a4,a5
    800015f8:	00100b93          	li	s7,1
    800015fc:	00f987b3          	add	a5,s3,a5
    80001600:	0007c783          	lbu	a5,0(a5)
    80001604:	06010fa3          	sb	zero,127(sp)
    80001608:	07f10693          	addi	a3,sp,127
    8000160c:	00a00613          	li	a2,10
    80001610:	00900593          	li	a1,9
    80001614:	0140006f          	j	80001628 <vsnprintf_internal+0x824>
    80001618:	0007871b          	sext.w	a4,a5
    8000161c:	02c7f7bb          	remuw	a5,a5,a2
    80001620:	00f987b3          	add	a5,s3,a5
    80001624:	0007c783          	lbu	a5,0(a5)
    80001628:	fff68693          	addi	a3,a3,-1
    8000162c:	00f68023          	sb	a5,0(a3)
    80001630:	02c757bb          	divuw	a5,a4,a2
    80001634:	fee5e2e3          	bltu	a1,a4,80001618 <vsnprintf_internal+0x814>
    80001638:	08010793          	addi	a5,sp,128
    8000163c:	40d786bb          	subw	a3,a5,a3
    80001640:	fff68d1b          	addiw	s10,a3,-1
    80001644:	ffe6879b          	addiw	a5,a3,-2
    80001648:	fffd4493          	not	s1,s10
    8000164c:	00f13023          	sd	a5,0(sp)
    80001650:	ae5ff06f          	j	80001134 <vsnprintf_internal+0x330>
    80001654:	01810c93          	addi	s9,sp,24
    80001658:	000c8613          	mv	a2,s9
    8000165c:	00100593          	li	a1,1
    80001660:	03000513          	li	a0,48
    80001664:	f04ff0ef          	jal	ra,80000d68 <__putch>
    80001668:	000c8613          	mv	a2,s9
    8000166c:	00100593          	li	a1,1
    80001670:	07800513          	li	a0,120
    80001674:	ef4ff0ef          	jal	ra,80000d68 <__putch>
    80001678:	955ff06f          	j	80000fcc <vsnprintf_internal+0x1c8>
    8000167c:	00048513          	mv	a0,s1
    80001680:	158000ef          	jal	ra,800017d8 <strlen>
    80001684:	00050b1b          	sext.w	s6,a0
    80001688:	ae5ff06f          	j	8000116c <vsnprintf_internal+0x368>
    8000168c:	000a2783          	lw	a5,0(s4)
    80001690:	008a0a13          	addi	s4,s4,8
    80001694:	0007871b          	sext.w	a4,a5
    80001698:	f407dce3          	bgez	a5,800015f0 <vsnprintf_internal+0x7ec>
    8000169c:	40e0073b          	negw	a4,a4
    800016a0:	00a00793          	li	a5,10
    800016a4:	02f777bb          	remuw	a5,a4,a5
    800016a8:	02d00693          	li	a3,45
    800016ac:	02d10223          	sb	a3,36(sp)
    800016b0:	00100693          	li	a3,1
    800016b4:	02d12023          	sw	a3,32(sp)
    800016b8:	00100b93          	li	s7,1
    800016bc:	00f987b3          	add	a5,s3,a5
    800016c0:	0007c783          	lbu	a5,0(a5)
    800016c4:	f41ff06f          	j	80001604 <vsnprintf_internal+0x800>
    800016c8:	000a2703          	lw	a4,0(s4)
    800016cc:	008a0793          	addi	a5,s4,8
    800016d0:	03071693          	slli	a3,a4,0x30
    800016d4:	0606c863          	bltz	a3,80001744 <vsnprintf_internal+0x940>
    800016d8:	03071713          	slli	a4,a4,0x30
    800016dc:	03075713          	srli	a4,a4,0x30
    800016e0:	00100b93          	li	s7,1
    800016e4:	dfdff06f          	j	800014e0 <vsnprintf_internal+0x6dc>
    800016e8:	000a5703          	lhu	a4,0(s4)
    800016ec:	d81ff06f          	j	8000146c <vsnprintf_internal+0x668>
    800016f0:	000a2703          	lw	a4,0(s4)
    800016f4:	d79ff06f          	j	8000146c <vsnprintf_internal+0x668>
    800016f8:	000a5783          	lhu	a5,0(s4)
    800016fc:	008a0a13          	addi	s4,s4,8
    80001700:	e09ff06f          	j	80001508 <vsnprintf_internal+0x704>
    80001704:	008a0793          	addi	a5,s4,8
    80001708:	000a5703          	lhu	a4,0(s4)
    8000170c:	00000b93          	li	s7,0
    80001710:	dd1ff06f          	j	800014e0 <vsnprintf_internal+0x6dc>
    80001714:	000a2703          	lw	a4,0(s4)
    80001718:	00a00793          	li	a5,10
    8000171c:	008a0a13          	addi	s4,s4,8
    80001720:	02f777bb          	remuw	a5,a4,a5
    80001724:	00000b93          	li	s7,0
    80001728:	00f987b3          	add	a5,s3,a5
    8000172c:	0007c783          	lbu	a5,0(a5)
    80001730:	ed5ff06f          	j	80001604 <vsnprintf_internal+0x800>
    80001734:	000a3783          	ld	a5,0(s4)
    80001738:	00000b93          	li	s7,0
    8000173c:	008a0a13          	addi	s4,s4,8
    80001740:	c1dff06f          	j	8000135c <vsnprintf_internal+0x558>
    80001744:	fff74713          	not	a4,a4
    80001748:	02d00693          	li	a3,45
    8000174c:	0107171b          	slliw	a4,a4,0x10
    80001750:	0107571b          	srliw	a4,a4,0x10
    80001754:	02d10223          	sb	a3,36(sp)
    80001758:	00100693          	li	a3,1
    8000175c:	02d12023          	sw	a3,32(sp)
    80001760:	00170713          	addi	a4,a4,1
    80001764:	00078a13          	mv	s4,a5
    80001768:	e89ff06f          	j	800015f0 <vsnprintf_internal+0x7ec>
    8000176c:	00400b93          	li	s7,4
    80001770:	00040793          	mv	a5,s0
    80001774:	fc0ff06f          	j	80000f34 <vsnprintf_internal+0x130>
    80001778:	00100b93          	li	s7,1
    8000177c:	00040793          	mv	a5,s0
    80001780:	fb4ff06f          	j	80000f34 <vsnprintf_internal+0x130>
    80001784:	00000b93          	li	s7,0
    80001788:	bd5ff06f          	j	8000135c <vsnprintf_internal+0x558>

Disassembly of section .text.printf:

000000008000178c <printf>:
    8000178c:	fa010113          	addi	sp,sp,-96
    80001790:	02810313          	addi	t1,sp,40
    80001794:	02b13423          	sd	a1,40(sp)
    80001798:	02c13823          	sd	a2,48(sp)
    8000179c:	02d13c23          	sd	a3,56(sp)
    800017a0:	00050613          	mv	a2,a0
    800017a4:	00030693          	mv	a3,t1
    800017a8:	00000593          	li	a1,0
    800017ac:	00000513          	li	a0,0
    800017b0:	00113c23          	sd	ra,24(sp)
    800017b4:	04e13023          	sd	a4,64(sp)
    800017b8:	04f13423          	sd	a5,72(sp)
    800017bc:	05013823          	sd	a6,80(sp)
    800017c0:	05113c23          	sd	a7,88(sp)
    800017c4:	00613423          	sd	t1,8(sp)
    800017c8:	e3cff0ef          	jal	ra,80000e04 <vsnprintf_internal>
    800017cc:	01813083          	ld	ra,24(sp)
    800017d0:	06010113          	addi	sp,sp,96
    800017d4:	00008067          	ret

Disassembly of section .text.strlen:

00000000800017d8 <strlen>:
    800017d8:	00054783          	lbu	a5,0(a0)
    800017dc:	02078063          	beqz	a5,800017fc <strlen+0x24>
    800017e0:	00000793          	li	a5,0
    800017e4:	00178793          	addi	a5,a5,1
    800017e8:	00f50733          	add	a4,a0,a5
    800017ec:	00074703          	lbu	a4,0(a4)
    800017f0:	fe071ae3          	bnez	a4,800017e4 <strlen+0xc>
    800017f4:	00078513          	mv	a0,a5
    800017f8:	00008067          	ret
    800017fc:	00000793          	li	a5,0
    80001800:	00078513          	mv	a0,a5
    80001804:	00008067          	ret

Disassembly of section .text.strcpy:

0000000080001808 <strcpy>:
    80001808:	00050793          	mv	a5,a0
    8000180c:	00158593          	addi	a1,a1,1
    80001810:	fff5c703          	lbu	a4,-1(a1)
    80001814:	00178793          	addi	a5,a5,1
    80001818:	fee78fa3          	sb	a4,-1(a5)
    8000181c:	fe0718e3          	bnez	a4,8000180c <strcpy+0x4>
    80001820:	00008067          	ret

Disassembly of section .text.strcmp:

0000000080001824 <strcmp>:
    80001824:	00054783          	lbu	a5,0(a0)
    80001828:	0005c703          	lbu	a4,0(a1)
    8000182c:	00078e63          	beqz	a5,80001848 <strcmp+0x24>
    80001830:	02e79263          	bne	a5,a4,80001854 <strcmp+0x30>
    80001834:	00150513          	addi	a0,a0,1
    80001838:	00054783          	lbu	a5,0(a0)
    8000183c:	00158593          	addi	a1,a1,1
    80001840:	0005c703          	lbu	a4,0(a1)
    80001844:	fe0796e3          	bnez	a5,80001830 <strcmp+0xc>
    80001848:	00000513          	li	a0,0
    8000184c:	40e5053b          	subw	a0,a0,a4
    80001850:	00008067          	ret
    80001854:	0007851b          	sext.w	a0,a5
    80001858:	40e5053b          	subw	a0,a0,a4
    8000185c:	00008067          	ret
